ccopy_reg
_reconstructor
p1
(cfeedparser
FeedParserDict
p2
c__builtin__
dict
p3
(dp4
S'feed'
p5
g1
(g2
g3
(dp6
S'updated'
p7
VSun, 24 Mar 2013 22:53:44 -0700
p8
sS'subtitle'
p9
V
sS'updated_parsed'
p10
ctime
struct_time
p11
((I2013
I3
I25
I5
I53
I44
I0
I84
I0
t(dtRp12
sS'links'
p13
(lp14
g1
(g2
g3
(dp15
S'href'
p16
Vhttp://www.linuxtoday.com/
p17
sS'type'
p18
Vtext/html
p19
sS'rel'
p20
Valternate
p21
stRp22
asS'docs'
p23
Vhttp://blogs.law.harvard.edu/tech/rss
p24
sS'generator_detail'
p25
g1
(g2
g3
(dp26
S'name'
p27
VZend_Feed
p28
stRp29
sS'link'
p30
g17
sS'authors'
p31
(lp32
g1
(g2
g3
(dtRp33
asS'author_detail'
p34
g1
(g2
g3
(dp35
S'email'
p36
Vinfo@quinstreet.com
p37
stRp38
sS'published_parsed'
p39
g11
((I2013
I3
I25
I5
I53
I44
I0
I84
I0
t(dtRp40
sS'generator'
p41
g28
sS'title'
p42
VLinuxtoday.com
p43
sS'author'
p44
g37
sS'subtitle_detail'
p45
g1
(g2
g3
(dp46
S'base'
p47
Vhttp://www.linuxtoday.com/biglt.rss
p48
sg18
Vtext/html
p49
sS'language'
p50
NsS'value'
p51
V
stRp52
sS'title_detail'
p53
g1
(g2
g3
(dp54
g47
Vhttp://www.linuxtoday.com/biglt.rss
p55
sg18
Vtext/plain
p56
sg50
Nsg51
g43
stRp57
sS'published'
p58
VSun, 24 Mar 2013 22:53:44 -0700
p59
stRp60
sS'status'
p61
I200
sS'canto_version'
p62
(I0
I7
I10
tp63
sS'bozo'
p64
I0
sS'encoding'
p65
Vutf-8
p66
sS'canto_update'
p67
F1364190826.0723391
sS'headers'
p68
(dp69
S'content-length'
p70
S'4600'
p71
sS'x-powered-by'
p72
S'PHP/5.3.2-1ubuntu4.17'
p73
sS'vary'
p74
S'Accept-Encoding'
p75
sS'server'
p76
S'Apache'
p77
sS'connection'
p78
S'close'
p79
sS'cache-control'
p80
S'public, public'
p81
sS'date'
p82
S'Mon, 25 Mar 2013 05:53:44 GMT'
p83
sS'content-type'
p84
S'application/rss+xml'
p85
ssS'version'
p86
Vrss20
p87
sS'canto_state'
p88
(lp89
sg16
Vhttp://www.linuxtoday.com/biglt.rss
p90
sS'namespaces'
p91
(dp92
S'content'
p93
Vhttp://purl.org/rss/1.0/modules/content/
p94
ssS'entries'
p95
(lp96
g1
(g2
g3
(dp97
S'summary_detail'
p98
g1
(g2
g3
(dp99
g47
Vhttp://www.linuxtoday.com/biglt.rss
p100
sg18
g49
sg50
Nsg51
V<p><strong>Linux.com:&nbsp;</strong> RSS is an open XML standard for syndicating Web content.</p>
p101
stRp102
sg13
(lp103
g1
(g2
g3
(dp104
g16
Vhttp://www.linuxtoday.com/infrastructure/goodbye-google-reader-linux-has-its-own-rss-aggregators.html
p105
sg18
g19
sg20
g21
stRp106
asg39
g11
((I2013
I3
I25
I1
I0
I0
I0
I84
I0
t(dtRp107
sg42
VGoodbye Google Reader, Linux Has Its Own RSS Aggregators
p108
sS'summary'
p109
g101
sS'title_detail'
p110
g1
(g2
g3
(dp111
g47
Vhttp://www.linuxtoday.com/biglt.rss
p112
sg18
g56
sg50
Nsg51
g108
stRp113
sg30
g105
sg58
VSun, 24 Mar 2013 18:00:00 -0700
p114
sg88
(lp115
VLinux Today
p116
aV*
aS'read'
p117
asS'id'
p118
g105
stRp119
ag1
(g2
g3
(dp120
S'summary_detail'
p121
g1
(g2
g3
(dp122
g47
Vhttp://www.linuxtoday.com/biglt.rss
p123
sg18
g49
sg50
Nsg51
V<p><strong>InternetNews:</strong> Big Data frothyness</p>
p124
stRp125
sg13
(lp126
g1
(g2
g3
(dp127
g16
Vhttp://www.linuxtoday.com/it_management/say-what-march22-2013.html
p128
sg18
g19
sg20
g21
stRp129
asg39
g11
((I2013
I3
I24
I21
I0
I0
I6
I83
I0
t(dtRp130
sg42
VSay What? Top Five IT Quotes of the Week
p131
sg109
g124
sS'title_detail'
p132
g1
(g2
g3
(dp133
g47
Vhttp://www.linuxtoday.com/biglt.rss
p134
sg18
g56
sg50
Nsg51
g131
stRp135
sg30
g128
sg58
VSun, 24 Mar 2013 14:00:00 -0700
p136
sg88
(lp137
g116
aV*
ag117
asg118
g128
stRp138
ag1
(g2
g3
(dp139
S'summary_detail'
p140
g1
(g2
g3
(dp141
g47
Vhttp://www.linuxtoday.com/biglt.rss
p142
sg18
g49
sg50
Nsg51
V<p><strong>ServerWatch:</strong> This partnership is the result of many months of conversation that came about from Canonical's existing presence in China</p>
p143
stRp144
sg13
(lp145
g1
(g2
g3
(dp146
g16
Vhttp://www.linuxtoday.com/it_management/canonical-partners-with-china-for-ubuntu-kaylin-linux.html
p147
sg18
g19
sg20
g21
stRp148
asg39
g11
((I2013
I3
I24
I17
I0
I0
I6
I83
I0
t(dtRp149
sg42
VCanonical Partners with China for Ubuntu Kaylin Linux
p150
sg109
g143
sS'title_detail'
p151
g1
(g2
g3
(dp152
g47
Vhttp://www.linuxtoday.com/biglt.rss
p153
sg18
g56
sg50
Nsg51
g150
stRp154
sg30
g147
sg58
VSun, 24 Mar 2013 10:00:00 -0700
p155
sg88
(lp156
g116
aV*
ag117
asg118
g147
stRp157
ag1
(g2
g3
(dp158
S'summary_detail'
p159
g1
(g2
g3
(dp160
g47
Vhttp://www.linuxtoday.com/biglt.rss
p161
sg18
g49
sg50
Nsg51
V<p><strong>WIRED:</strong> If you want to set up your own cloud service, Amazon can't help you. You need software like Riak CS.</p>
p162
stRp163
sg13
(lp164
g1
(g2
g3
(dp165
g16
Vhttp://www.linuxtoday.com/high_performance/amazon-cloud-storage-clone-goes-open-source.html
p166
sg18
g19
sg20
g21
stRp167
asg39
g11
((I2013
I3
I24
I13
I0
I0
I6
I83
I0
t(dtRp168
sg42
VAmazon Cloud Storage Clone Goes Open Source
p169
sg109
g162
sS'title_detail'
p170
g1
(g2
g3
(dp171
g47
Vhttp://www.linuxtoday.com/biglt.rss
p172
sg18
g56
sg50
Nsg51
g169
stRp173
sg30
g166
sg58
VSun, 24 Mar 2013 06:00:00 -0700
p174
sg88
(lp175
g116
aV*
ag117
asg118
g166
stRp176
ag1
(g2
g3
(dp177
S'summary_detail'
p178
g1
(g2
g3
(dp179
g47
Vhttp://www.linuxtoday.com/biglt.rss
p180
sg18
g49
sg50
Nsg51
V<p><strong>The VAR Guy:</strong> Pentaho, which develops a variety of solutions for accessing, integrating, interpreting and analyzing data that are based on open source technology, announced the hires on Wednesday.</p>
p181
stRp182
sg13
(lp183
g1
(g2
g3
(dp184
g16
Vhttp://www.linuxtoday.com/upload/pentaho-hires-execs-for-open-source-big-data-growth-130321144008.html
p185
sg18
g19
sg20
g21
stRp186
asg39
g11
((I2013
I3
I24
I2
I0
I0
I6
I83
I0
t(dtRp187
sg42
VPentaho Hires Execs for Open Source Big Data Growth
p188
sg109
g181
sS'title_detail'
p189
g1
(g2
g3
(dp190
g47
Vhttp://www.linuxtoday.com/biglt.rss
p191
sg18
g56
sg50
Nsg51
g188
stRp192
sg30
g185
sg58
VSat, 23 Mar 2013 19:00:00 -0700
p193
sg88
(lp194
g116
aV*
ag117
asg118
g185
stRp195
ag1
(g2
g3
(dp196
S'summary_detail'
p197
g1
(g2
g3
(dp198
g47
Vhttp://www.linuxtoday.com/biglt.rss
p199
sg18
g49
sg50
Nsg51
V<p><strong>Kickstarter:</strong> For the first time in OpenShot's history, it will spread it's wings, and include Windows and Mac versions.&nbsp;</p>
p200
stRp201
sg13
(lp202
g1
(g2
g3
(dp203
g16
Vhttp://www.linuxtoday.com/upload/openshot-creator-launches-kickstarter-130321195505.html
p204
sg18
g19
sg20
g21
stRp205
asg39
g11
((I2013
I3
I23
I22
I0
I0
I5
I82
I0
t(dtRp206
sg42
VOpenshot Creator Launches Kickstarter
p207
sg109
g200
sS'title_detail'
p208
g1
(g2
g3
(dp209
g47
Vhttp://www.linuxtoday.com/biglt.rss
p210
sg18
g56
sg50
Nsg51
g207
stRp211
sg30
g204
sg58
VSat, 23 Mar 2013 15:00:00 -0700
p212
sg88
(lp213
g116
aV*
ag117
asg118
g204
stRp214
ag1
(g2
g3
(dp215
S'summary_detail'
p216
g1
(g2
g3
(dp217
g47
Vhttp://www.linuxtoday.com/biglt.rss
p218
sg18
g49
sg50
Nsg51
V<p><strong>OSTATIC:</strong> It's still considered pre-alpha, but Fischer has posted the code and a screenshot!.</p>
p219
stRp220
sg13
(lp221
g1
(g2
g3
(dp222
g16
Vhttp://www.linuxtoday.com/upload/new-kmix-is-coming-new-kmix-is-coming-130321230015.html
p223
sg18
g19
sg20
g21
stRp224
asg39
g11
((I2013
I3
I23
I18
I0
I0
I5
I82
I0
t(dtRp225
sg42
VNew Kmix is Coming, New Kmix is Coming
p226
sg109
g219
sS'title_detail'
p227
g1
(g2
g3
(dp228
g47
Vhttp://www.linuxtoday.com/biglt.rss
p229
sg18
g56
sg50
Nsg51
g226
stRp230
sg30
g223
sg58
VSat, 23 Mar 2013 11:00:00 -0700
p231
sg88
(lp232
g116
aV*
ag117
asg118
g223
stRp233
ag1
(g2
g3
(dp234
S'summary_detail'
p235
g1
(g2
g3
(dp236
g47
Vhttp://www.linuxtoday.com/biglt.rss
p237
sg18
g49
sg50
Nsg51
V<p><strong>HowtoForge:</strong> This tutorial explains how to use mod_spdy with Apache2 on CentOS 6.4.</p>
p238
stRp239
sg13
(lp240
g1
(g2
g3
(dp241
g16
Vhttp://www.linuxtoday.com/upload/using-modspdy-with-apache2-on-centos-6.4-130322014006.html
p242
sg18
g19
sg20
g21
stRp243
asg39
g11
((I2013
I3
I23
I14
I0
I0
I5
I82
I0
t(dtRp244
sg42
VUsing mod_spdy With Apache2 On CentOS 6.4
p245
sg109
g238
sS'title_detail'
p246
g1
(g2
g3
(dp247
g47
Vhttp://www.linuxtoday.com/biglt.rss
p248
sg18
g56
sg50
Nsg51
g245
stRp249
sg30
g242
sg58
VSat, 23 Mar 2013 07:00:00 -0700
p250
sg88
(lp251
g116
aV*
ag117
asg118
g242
stRp252
ag1
(g2
g3
(dp253
S'summary_detail'
p254
g1
(g2
g3
(dp255
g47
Vhttp://www.linuxtoday.com/biglt.rss
p256
sg18
g49
sg50
Nsg51
V<p><strong>Phandroid:</strong> The greatest part about Android is the sheer flexibility developers have with the platform.</p>
p257
stRp258
sg13
(lp259
g1
(g2
g3
(dp260
g16
Vhttp://www.linuxtoday.com/infrastructure/review-sidebar-pro-and-lite-multitasking-the-ubuntu-touch-way-video.html
p261
sg18
g19
sg20
g21
stRp262
asg39
g11
((I2013
I3
I23
I10
I0
I0
I5
I82
I0
t(dtRp263
sg42
VReview: Sidebar Pro and Lite, multitasking the Ubuntu Touch way [VIDEO]
p264
sg109
g257
sS'title_detail'
p265
g1
(g2
g3
(dp266
g47
Vhttp://www.linuxtoday.com/biglt.rss
p267
sg18
g56
sg50
Nsg51
g264
stRp268
sg30
g261
sg58
VSat, 23 Mar 2013 03:00:00 -0700
p269
sg88
(lp270
g116
aV*
ag117
asg118
g261
stRp271
astRp272
.