ccopy_reg
_reconstructor
p1
(cfeedparser
FeedParserDict
p2
c__builtin__
dict
p3
(dp4
S'feed'
p5
g1
(g2
g3
(dp6
S'updated'
p7
VSat, 23 Mar 2013 11:59:00 GMT
p8
sS'subtitle'
p9
VOpen source news and features
p10
sS'language'
p11
Ven
p12
sS'published_parsed'
p13
ctime
struct_time
p14
((I2013
I3
I23
I11
I59
I0
I5
I82
I0
t(dtRp15
sS'title'
p16
VThe H Open
p17
sS'published'
p18
VSat, 23 Mar 2013 11:59:00 GMT
p19
sS'links'
p20
(lp21
g1
(g2
g3
(dp22
S'href'
p23
Vhttp://www.h-online.com/open/news/
p24
sS'type'
p25
Vtext/html
p26
sS'rel'
p27
Valternate
p28
stRp29
asS'subtitle_detail'
p30
g1
(g2
g3
(dp31
S'base'
p32
Vhttp://rss.feedsportal.com/c/32569/f/491735/index.rss
p33
sg25
Vtext/html
p34
sg11
NsS'value'
p35
g10
stRp36
sS'title_detail'
p37
g1
(g2
g3
(dp38
g32
Vhttp://rss.feedsportal.com/c/32569/f/491735/index.rss
p39
sg25
Vtext/plain
p40
sg11
Nsg35
g17
stRp41
sS'link'
p42
g24
sS'ttl'
p43
V2
sS'updated_parsed'
p44
g14
((I2013
I3
I23
I11
I59
I0
I5
I82
I0
t(dtRp45
stRp46
sS'status'
p47
I200
sg7
S'Sat, 23 Mar 2013 11:59:00 GMT'
p48
sg44
g14
((I2013
I3
I23
I11
I59
I0
I5
I82
I0
t(dtRp49
sS'encoding'
p50
VUTF-8
p51
sS'bozo'
p52
I0
sS'entries'
p53
(lp54
g1
(g2
g3
(dp55
S'summary_detail'
p56
g1
(g2
g3
(dp57
g32
Vhttp://rss.feedsportal.com/c/32569/f/491735/index.rss
p58
sg25
g34
sg11
Nsg35
VIn the week ending 23 March \u2013 Cameras and networks were hacked, botnets went mapping, Ubuntu support was shortened, MongoDB got text searching, and Pythons settled. Also - a look at Dell's Ubuntu laptop and what now after Android?<img border="0" height="1" src="http://rss.feedsportal.com/c/32569/f/491735/s/29e6c5d6/mf.gif" width="1" /><div class="mf-viral"><table border="0"><tr><td valign="middle"><a href="http://share.feedsportal.com/viral/sendEmail.cfm?lang=en&amp;title=The+H+Roundup+-+Hacking+cameras%2C+mapping+botnets+and+Easter+Wheezy%3F&amp;link=http%3A%2F%2Fwww.h-online.com%2Fopen%2Fnews%2Fitem%2FThe-H-Roundup-Hacking-cameras-mapping-botnets-and-Easter-Wheezy-1828831.html%2Ffrom%2Frss" target="_blank"><img border="0" src="http://res3.feedsportal.com/images/emailthis2.gif" /></a></td><td valign="middle"><a href="http://res.feedsportal.com/viral/bookmark.cfm?title=The+H+Roundup+-+Hacking+cameras%2C+mapping+botnets+and+Easter+Wheezy%3F&amp;link=http%3A%2F%2Fwww.h-online.com%2Fopen%2Fnews%2Fitem%2FThe-H-Roundup-Hacking-cameras-mapping-botnets-and-Easter-Wheezy-1828831.html%2Ffrom%2Frss" target="_blank"><img border="0" src="http://res3.feedsportal.com/images/bookmark.gif" /></a></td></tr></table></div><br /><br /><a href="http://da.feedsportal.com/r/161393779852/u/0/f/491735/c/32569/s/29e6c5d6/a2.htm"><img border="0" src="http://da.feedsportal.com/r/161393779852/u/0/f/491735/c/32569/s/29e6c5d6/a2.img" /></a><img border="0" height="1" src="http://pi.feedsportal.com/r/161393779852/u/0/f/491735/c/32569/s/29e6c5d6/a2t.img" width="1" />
p59
stRp60
sg20
(lp61
g1
(g2
g3
(dp62
g23
Vhttp://rss.feedsportal.com/c/32569/f/491735/s/29e6c5d6/l/0L0Sh0Eonline0N0Copen0Cnews0Citem0CThe0EH0ERoundup0EHacking0Ecameras0Emapping0Ebotnets0Eand0EEaster0EWheezy0E18288310Bhtml0Cfrom0Crss/story01.htm
p63
sg25
g26
sg27
g28
stRp64
asg13
g14
((I2013
I3
I23
I11
I59
I0
I5
I82
I0
t(dtRp65
sg16
VThe H Roundup - Hacking cameras, mapping botnets and Easter Wheezy?
p66
sS'summary'
p67
VIn the week ending 23 March \u2013 Cameras and networks were hacked, botnets went mapping, Ubuntu support was shortened, MongoDB got text searching, and Pythons settled. Also - a look at Dell's Ubuntu laptop and what now after Android?<img border="0" height="1" src="http://rss.feedsportal.com/c/32569/f/491735/s/29e6c5d6/mf.gif" width="1" /><div class="mf-viral"><table border="0"><tr><td valign="middle"><a href="http://share.feedsportal.com/viral/sendEmail.cfm?lang=en&amp;title=The+H+Roundup+-+Hacking+cameras\u005c%2C+mapping+botnets+and+Easter+Wheezy\u005c%3F&amp;link=http\u005c%3A\u005c%2F\u005c%2Fwww.h-online.com\u005c%2Fopen\u005c%2Fnews\u005c%2Fitem\u005c%2FThe-H-Roundup-Hacking-cameras-mapping-botnets-and-Easter-Wheezy-1828831.html\u005c%2Ffrom\u005c%2Frss" target="_blank"><img border="0" src="http://res3.feedsportal.com/images/emailthis2.gif" /></a></td><td valign="middle"><a href="http://res.feedsportal.com/viral/bookmark.cfm?title=The+H+Roundup+-+Hacking+cameras\u005c%2C+mapping+botnets+and+Easter+Wheezy\u005c%3F&amp;link=http\u005c%3A\u005c%2F\u005c%2Fwww.h-online.com\u005c%2Fopen\u005c%2Fnews\u005c%2Fitem\u005c%2FThe-H-Roundup-Hacking-cameras-mapping-botnets-and-Easter-Wheezy-1828831.html\u005c%2Ffrom\u005c%2Frss" target="_blank"><img border="0" src="http://res3.feedsportal.com/images/bookmark.gif" /></a></td></tr></table></div><br /><br /><a href="http://da.feedsportal.com/r/161393779852/u/0/f/491735/c/32569/s/29e6c5d6/a2.htm"><img border="0" src="http://da.feedsportal.com/r/161393779852/u/0/f/491735/c/32569/s/29e6c5d6/a2.img" /></a><img border="0" height="1" src="http://pi.feedsportal.com/r/161393779852/u/0/f/491735/c/32569/s/29e6c5d6/a2t.img" width="1" />
p68
sS'guidislink'
p69
I00
sS'title_detail'
p70
g1
(g2
g3
(dp71
g32
Vhttp://rss.feedsportal.com/c/32569/f/491735/index.rss
p72
sg25
g40
sg11
Nsg35
g66
stRp73
sg42
g63
sg18
VSat, 23 Mar 2013 11:59:00 GMT
p74
sS'canto_state'
p75
(lp76
VThe H Open Source
p77
aV*
aS'read'
p78
asS'id'
p79
Vhttp://www.h-online.com/open/news/item/The-H-Roundup-Hacking-cameras-mapping-botnets-and-Easter-Wheezy-1828831.html/from/rss
p80
stRp81
ag1
(g2
g3
(dp82
S'summary_detail'
p83
g1
(g2
g3
(dp84
g32
Vhttp://rss.feedsportal.com/c/32569/f/491735/index.rss
p85
sg25
g34
sg11
Nsg35
VThe GCC developers have, after years of planning, completed the switch to C++ as the implementation language for their software. The new version of GCC also includes performance improvements and a new general optimisation level<img border="0" height="1" src="http://rss.feedsportal.com/c/32569/f/491735/s/29e127de/mf.gif" width="1" /><div class="mf-viral"><table border="0"><tr><td valign="middle"><a href="http://share.feedsportal.com/viral/sendEmail.cfm?lang=en&amp;title=GCC+4.8+completes+migration+to+C%2B%2B&amp;link=http%3A%2F%2Fwww.h-online.com%2Fopen%2Fnews%2Fitem%2FGCC-4-8-completes-migration-to-C-1824539.html%2Ffrom%2Frss" target="_blank"><img border="0" src="http://res3.feedsportal.com/images/emailthis2.gif" /></a></td><td valign="middle"><a href="http://res.feedsportal.com/viral/bookmark.cfm?title=GCC+4.8+completes+migration+to+C%2B%2B&amp;link=http%3A%2F%2Fwww.h-online.com%2Fopen%2Fnews%2Fitem%2FGCC-4-8-completes-migration-to-C-1824539.html%2Ffrom%2Frss" target="_blank"><img border="0" src="http://res3.feedsportal.com/images/bookmark.gif" /></a></td></tr></table></div><br /><br /><a href="http://da.feedsportal.com/r/161393943689/u/0/f/491735/c/32569/s/29e127de/a2.htm"><img border="0" src="http://da.feedsportal.com/r/161393943689/u/0/f/491735/c/32569/s/29e127de/a2.img" /></a><img border="0" height="1" src="http://pi.feedsportal.com/r/161393943689/u/0/f/491735/c/32569/s/29e127de/a2t.img" width="1" />
p86
stRp87
sg20
(lp88
g1
(g2
g3
(dp89
g23
Vhttp://rss.feedsportal.com/c/32569/f/491735/s/29e127de/l/0L0Sh0Eonline0N0Copen0Cnews0Citem0CGCC0E40E80Ecompletes0Emigration0Eto0EC0E18245390Bhtml0Cfrom0Crss/story01.htm
p90
sg25
g26
sg27
g28
stRp91
asg13
g14
((I2013
I3
I22
I17
I14
I0
I4
I81
I0
t(dtRp92
sg16
VGCC 4.8 completes migration to C++
p93
sg67
VThe GCC developers have, after years of planning, completed the switch to C++ as the implementation language for their software. The new version of GCC also includes performance improvements and a new general optimisation level<img border="0" height="1" src="http://rss.feedsportal.com/c/32569/f/491735/s/29e127de/mf.gif" width="1" /><div class="mf-viral"><table border="0"><tr><td valign="middle"><a href="http://share.feedsportal.com/viral/sendEmail.cfm?lang=en&amp;title=GCC+4.8+completes+migration+to+C\u005c%2B\u005c%2B&amp;link=http\u005c%3A\u005c%2F\u005c%2Fwww.h-online.com\u005c%2Fopen\u005c%2Fnews\u005c%2Fitem\u005c%2FGCC-4-8-completes-migration-to-C-1824539.html\u005c%2Ffrom\u005c%2Frss" target="_blank"><img border="0" src="http://res3.feedsportal.com/images/emailthis2.gif" /></a></td><td valign="middle"><a href="http://res.feedsportal.com/viral/bookmark.cfm?title=GCC+4.8+completes+migration+to+C\u005c%2B\u005c%2B&amp;link=http\u005c%3A\u005c%2F\u005c%2Fwww.h-online.com\u005c%2Fopen\u005c%2Fnews\u005c%2Fitem\u005c%2FGCC-4-8-completes-migration-to-C-1824539.html\u005c%2Ffrom\u005c%2Frss" target="_blank"><img border="0" src="http://res3.feedsportal.com/images/bookmark.gif" /></a></td></tr></table></div><br /><br /><a href="http://da.feedsportal.com/r/161393943689/u/0/f/491735/c/32569/s/29e127de/a2.htm"><img border="0" src="http://da.feedsportal.com/r/161393943689/u/0/f/491735/c/32569/s/29e127de/a2.img" /></a><img border="0" height="1" src="http://pi.feedsportal.com/r/161393943689/u/0/f/491735/c/32569/s/29e127de/a2t.img" width="1" />
p94
sg69
I00
sS'title_detail'
p95
g1
(g2
g3
(dp96
g32
Vhttp://rss.feedsportal.com/c/32569/f/491735/index.rss
p97
sg25
g40
sg11
Nsg35
g93
stRp98
sg42
g90
sg18
VFri, 22 Mar 2013 17:14:00 GMT
p99
sg75
(lp100
g77
aV*
ag78
asg79
Vhttp://www.h-online.com/open/news/item/GCC-4-8-completes-migration-to-C-1824539.html/from/rss
p101
stRp102
ag1
(g2
g3
(dp103
S'summary_detail'
p104
g1
(g2
g3
(dp105
g32
Vhttp://rss.feedsportal.com/c/32569/f/491735/index.rss
p106
sg25
g34
sg11
Nsg35
VThe update to Qt's IDE and UI designer has many improvements especially for C++11 users and BlackBerry developers \u2013 it also adds experimental support for the QBS build system<img border="0" height="1" src="http://rss.feedsportal.com/c/32569/f/491735/s/29df1c5a/mf.gif" width="1" /><div class="mf-viral"><table border="0"><tr><td valign="middle"><a href="http://share.feedsportal.com/viral/sendEmail.cfm?lang=en&amp;title=C%2B%2B11+and+Blackberry+support+improved+in+Qt+Creator+2.7.0&amp;link=http%3A%2F%2Fwww.h-online.com%2Fopen%2Fnews%2Fitem%2FC-11-and-Blackberry-support-improved-in-Qt-Creator-2-7-0-1828356.html%2Ffrom%2Frss" target="_blank"><img border="0" src="http://res3.feedsportal.com/images/emailthis2.gif" /></a></td><td valign="middle"><a href="http://res.feedsportal.com/viral/bookmark.cfm?title=C%2B%2B11+and+Blackberry+support+improved+in+Qt+Creator+2.7.0&amp;link=http%3A%2F%2Fwww.h-online.com%2Fopen%2Fnews%2Fitem%2FC-11-and-Blackberry-support-improved-in-Qt-Creator-2-7-0-1828356.html%2Ffrom%2Frss" target="_blank"><img border="0" src="http://res3.feedsportal.com/images/bookmark.gif" /></a></td></tr></table></div><br /><br /><a href="http://da.feedsportal.com/r/161393891107/u/0/f/491735/c/32569/s/29df1c5a/kg/355/a2.htm"><img border="0" src="http://da.feedsportal.com/r/161393891107/u/0/f/491735/c/32569/s/29df1c5a/kg/355/a2.img" /></a><img border="0" height="1" src="http://pi.feedsportal.com/r/161393891107/u/0/f/491735/c/32569/s/29df1c5a/kg/355/a2t.img" width="1" />
p107
stRp108
sg20
(lp109
g1
(g2
g3
(dp110
g23
Vhttp://rss.feedsportal.com/c/32569/f/491735/s/29df1c5a/l/0L0Sh0Eonline0N0Copen0Cnews0Citem0CC0E110Eand0EBlackberry0Esupport0Eimproved0Ein0EQt0ECreator0E20E70E0A0E18283560Bhtml0Cfrom0Crss/story01.htm
p111
sg25
g26
sg27
g28
stRp112
asg13
g14
((I2013
I3
I22
I13
I8
I0
I4
I81
I0
t(dtRp113
sg16
VC++11 and Blackberry support improved in Qt Creator 2.7.0
p114
sg67
VThe update to Qt's IDE and UI designer has many improvements especially for C++11 users and BlackBerry developers \u2013 it also adds experimental support for the QBS build system<img border="0" height="1" src="http://rss.feedsportal.com/c/32569/f/491735/s/29df1c5a/mf.gif" width="1" /><div class="mf-viral"><table border="0"><tr><td valign="middle"><a href="http://share.feedsportal.com/viral/sendEmail.cfm?lang=en&amp;title=C\u005c%2B\u005c%2B11+and+Blackberry+support+improved+in+Qt+Creator+2.7.0&amp;link=http\u005c%3A\u005c%2F\u005c%2Fwww.h-online.com\u005c%2Fopen\u005c%2Fnews\u005c%2Fitem\u005c%2FC-11-and-Blackberry-support-improved-in-Qt-Creator-2-7-0-1828356.html\u005c%2Ffrom\u005c%2Frss" target="_blank"><img border="0" src="http://res3.feedsportal.com/images/emailthis2.gif" /></a></td><td valign="middle"><a href="http://res.feedsportal.com/viral/bookmark.cfm?title=C\u005c%2B\u005c%2B11+and+Blackberry+support+improved+in+Qt+Creator+2.7.0&amp;link=http\u005c%3A\u005c%2F\u005c%2Fwww.h-online.com\u005c%2Fopen\u005c%2Fnews\u005c%2Fitem\u005c%2FC-11-and-Blackberry-support-improved-in-Qt-Creator-2-7-0-1828356.html\u005c%2Ffrom\u005c%2Frss" target="_blank"><img border="0" src="http://res3.feedsportal.com/images/bookmark.gif" /></a></td></tr></table></div><br /><br /><a href="http://da.feedsportal.com/r/161393891107/u/0/f/491735/c/32569/s/29df1c5a/kg/355/a2.htm"><img border="0" src="http://da.feedsportal.com/r/161393891107/u/0/f/491735/c/32569/s/29df1c5a/kg/355/a2.img" /></a><img border="0" height="1" src="http://pi.feedsportal.com/r/161393891107/u/0/f/491735/c/32569/s/29df1c5a/kg/355/a2t.img" width="1" />
p115
sg69
I00
sS'title_detail'
p116
g1
(g2
g3
(dp117
g32
Vhttp://rss.feedsportal.com/c/32569/f/491735/index.rss
p118
sg25
g40
sg11
Nsg35
g114
stRp119
sg42
g111
sg18
VFri, 22 Mar 2013 13:08:00 GMT
p120
sg75
(lp121
g77
aV*
ag78
asg79
Vhttp://www.h-online.com/open/news/item/C-11-and-Blackberry-support-improved-in-Qt-Creator-2-7-0-1828356.html/from/rss
p122
stRp123
ag1
(g2
g3
(dp124
S'summary_detail'
p125
g1
(g2
g3
(dp126
g32
Vhttp://rss.feedsportal.com/c/32569/f/491735/index.rss
p127
sg25
g34
sg11
Nsg35
VAmong the latest features that have been incorporated as part of the development of PHP 5.5 is Zend's opcache Optimizer+, which will simply be called opcache in the upcoming version of PHP<img border="0" height="1" src="http://rss.feedsportal.com/c/32569/f/491735/s/29dee386/mf.gif" width="1" /><div class="mf-viral"><table border="0"><tr><td valign="middle"><a href="http://share.feedsportal.com/viral/sendEmail.cfm?lang=en&amp;title=First+beta+of+PHP+5.5+with+new+accelerator&amp;link=http%3A%2F%2Fwww.h-online.com%2Fopen%2Fnews%2Fitem%2FFirst-beta-of-PHP-5-5-with-new-accelerator-1828336.html%2Ffrom%2Frss" target="_blank"><img border="0" src="http://res3.feedsportal.com/images/emailthis2.gif" /></a></td><td valign="middle"><a href="http://res.feedsportal.com/viral/bookmark.cfm?title=First+beta+of+PHP+5.5+with+new+accelerator&amp;link=http%3A%2F%2Fwww.h-online.com%2Fopen%2Fnews%2Fitem%2FFirst-beta-of-PHP-5-5-with-new-accelerator-1828336.html%2Ffrom%2Frss" target="_blank"><img border="0" src="http://res3.feedsportal.com/images/bookmark.gif" /></a></td></tr></table></div><br /><br /><a href="http://da.feedsportal.com/r/161393698382/u/0/f/491735/c/32569/s/29dee386/a2.htm"><img border="0" src="http://da.feedsportal.com/r/161393698382/u/0/f/491735/c/32569/s/29dee386/a2.img" /></a><img border="0" height="1" src="http://pi.feedsportal.com/r/161393698382/u/0/f/491735/c/32569/s/29dee386/a2t.img" width="1" />
p128
stRp129
sg20
(lp130
g1
(g2
g3
(dp131
g23
Vhttp://rss.feedsportal.com/c/32569/f/491735/s/29dee386/l/0L0Sh0Eonline0N0Copen0Cnews0Citem0CFirst0Ebeta0Eof0EPHP0E50E50Ewith0Enew0Eaccelerator0E18283360Bhtml0Cfrom0Crss/story01.htm
p132
sg25
g26
sg27
g28
stRp133
asg13
g14
((I2013
I3
I22
I12
I55
I0
I4
I81
I0
t(dtRp134
sg16
VFirst beta of PHP 5.5 with new accelerator
p135
sg67
VAmong the latest features that have been incorporated as part of the development of PHP 5.5 is Zend's opcache Optimizer+, which will simply be called opcache in the upcoming version of PHP<img border="0" height="1" src="http://rss.feedsportal.com/c/32569/f/491735/s/29dee386/mf.gif" width="1" /><div class="mf-viral"><table border="0"><tr><td valign="middle"><a href="http://share.feedsportal.com/viral/sendEmail.cfm?lang=en&amp;title=First+beta+of+PHP+5.5+with+new+accelerator&amp;link=http\u005c%3A\u005c%2F\u005c%2Fwww.h-online.com\u005c%2Fopen\u005c%2Fnews\u005c%2Fitem\u005c%2FFirst-beta-of-PHP-5-5-with-new-accelerator-1828336.html\u005c%2Ffrom\u005c%2Frss" target="_blank"><img border="0" src="http://res3.feedsportal.com/images/emailthis2.gif" /></a></td><td valign="middle"><a href="http://res.feedsportal.com/viral/bookmark.cfm?title=First+beta+of+PHP+5.5+with+new+accelerator&amp;link=http\u005c%3A\u005c%2F\u005c%2Fwww.h-online.com\u005c%2Fopen\u005c%2Fnews\u005c%2Fitem\u005c%2FFirst-beta-of-PHP-5-5-with-new-accelerator-1828336.html\u005c%2Ffrom\u005c%2Frss" target="_blank"><img border="0" src="http://res3.feedsportal.com/images/bookmark.gif" /></a></td></tr></table></div><br /><br /><a href="http://da.feedsportal.com/r/161393698382/u/0/f/491735/c/32569/s/29dee386/a2.htm"><img border="0" src="http://da.feedsportal.com/r/161393698382/u/0/f/491735/c/32569/s/29dee386/a2.img" /></a><img border="0" height="1" src="http://pi.feedsportal.com/r/161393698382/u/0/f/491735/c/32569/s/29dee386/a2t.img" width="1" />
p136
sg69
I00
sS'title_detail'
p137
g1
(g2
g3
(dp138
g32
Vhttp://rss.feedsportal.com/c/32569/f/491735/index.rss
p139
sg25
g40
sg11
Nsg35
g135
stRp140
sg42
g132
sg18
VFri, 22 Mar 2013 12:55:00 GMT
p141
sg75
(lp142
g77
aV*
ag78
asg79
Vhttp://www.h-online.com/open/news/item/First-beta-of-PHP-5-5-with-new-accelerator-1828336.html/from/rss
p143
stRp144
ag1
(g2
g3
(dp145
S'summary_detail'
p146
g1
(g2
g3
(dp147
g32
Vhttp://rss.feedsportal.com/c/32569/f/491735/index.rss
p148
sg25
g34
sg11
Nsg35
VThe H Community Calendar presents the coming month's events in various open source, development, Linux, Unix and other communities, from multi-day conferences to user group get-togethers<img border="0" height="1" src="http://rss.feedsportal.com/c/32569/f/491735/s/29dee384/mf.gif" width="1" /><div class="mf-viral"><table border="0"><tr><td valign="middle"><a href="http://share.feedsportal.com/viral/sendEmail.cfm?lang=en&amp;title=The+H+Community+Calendar+-+April+2013&amp;link=http%3A%2F%2Fwww.h-online.com%2Fopen%2Ffeatures%2FThe-H-Community-Calendar-April-2013-1826414.html%2Ffrom%2Frss" target="_blank"><img border="0" src="http://res3.feedsportal.com/images/emailthis2.gif" /></a></td><td valign="middle"><a href="http://res.feedsportal.com/viral/bookmark.cfm?title=The+H+Community+Calendar+-+April+2013&amp;link=http%3A%2F%2Fwww.h-online.com%2Fopen%2Ffeatures%2FThe-H-Community-Calendar-April-2013-1826414.html%2Ffrom%2Frss" target="_blank"><img border="0" src="http://res3.feedsportal.com/images/bookmark.gif" /></a></td></tr></table></div><br /><br /><a href="http://da.feedsportal.com/r/161393698380/u/0/f/491735/c/32569/s/29dee384/a2.htm"><img border="0" src="http://da.feedsportal.com/r/161393698380/u/0/f/491735/c/32569/s/29dee384/a2.img" /></a><img border="0" height="1" src="http://pi.feedsportal.com/r/161393698380/u/0/f/491735/c/32569/s/29dee384/a2t.img" width="1" />
p149
stRp150
sg20
(lp151
g1
(g2
g3
(dp152
g23
Vhttp://rss.feedsportal.com/c/32569/f/491735/s/29dee384/l/0L0Sh0Eonline0N0Copen0Cfeatures0CThe0EH0ECommunity0ECalendar0EApril0E20A130E18264140Bhtml0Cfrom0Crss/story01.htm
p153
sg25
g26
sg27
g28
stRp154
asg13
g14
((I2013
I3
I22
I12
I54
I0
I4
I81
I0
t(dtRp155
sg16
VThe H Community Calendar - April 2013
p156
sg67
VThe H Community Calendar presents the coming month's events in various open source, development, Linux, Unix and other communities, from multi-day conferences to user group get-togethers<img border="0" height="1" src="http://rss.feedsportal.com/c/32569/f/491735/s/29dee384/mf.gif" width="1" /><div class="mf-viral"><table border="0"><tr><td valign="middle"><a href="http://share.feedsportal.com/viral/sendEmail.cfm?lang=en&amp;title=The+H+Community+Calendar+-+April+2013&amp;link=http\u005c%3A\u005c%2F\u005c%2Fwww.h-online.com\u005c%2Fopen\u005c%2Ffeatures\u005c%2FThe-H-Community-Calendar-April-2013-1826414.html\u005c%2Ffrom\u005c%2Frss" target="_blank"><img border="0" src="http://res3.feedsportal.com/images/emailthis2.gif" /></a></td><td valign="middle"><a href="http://res.feedsportal.com/viral/bookmark.cfm?title=The+H+Community+Calendar+-+April+2013&amp;link=http\u005c%3A\u005c%2F\u005c%2Fwww.h-online.com\u005c%2Fopen\u005c%2Ffeatures\u005c%2FThe-H-Community-Calendar-April-2013-1826414.html\u005c%2Ffrom\u005c%2Frss" target="_blank"><img border="0" src="http://res3.feedsportal.com/images/bookmark.gif" /></a></td></tr></table></div><br /><br /><a href="http://da.feedsportal.com/r/161393698380/u/0/f/491735/c/32569/s/29dee384/a2.htm"><img border="0" src="http://da.feedsportal.com/r/161393698380/u/0/f/491735/c/32569/s/29dee384/a2.img" /></a><img border="0" height="1" src="http://pi.feedsportal.com/r/161393698380/u/0/f/491735/c/32569/s/29dee384/a2t.img" width="1" />
p157
sg69
I00
sS'title_detail'
p158
g1
(g2
g3
(dp159
g32
Vhttp://rss.feedsportal.com/c/32569/f/491735/index.rss
p160
sg25
g40
sg11
Nsg35
g156
stRp161
sg42
g153
sg18
VFri, 22 Mar 2013 12:54:00 GMT
p162
sg75
(lp163
g77
aV*
ag78
asg79
Vhttp://www.h-online.com/open/features/The-H-Community-Calendar-April-2013-1826414.html/from/rss
p164
stRp165
ag1
(g2
g3
(dp166
S'summary_detail'
p167
g1
(g2
g3
(dp168
g32
Vhttp://rss.feedsportal.com/c/32569/f/491735/index.rss
p169
sg25
g34
sg11
Nsg35
VGoogle, Microsoft and Netflix want to integrate an extension for encrypting media content into HTML5. Civil rights campaigners have warned that Hollywood is pushing for the introduction of innovation-averse copyright protection mechanisms<img border="0" height="1" src="http://rss.feedsportal.com/c/32569/f/491735/s/29de82e6/mf.gif" width="1" /><div class="mf-viral"><table border="0"><tr><td valign="middle"><a href="http://share.feedsportal.com/viral/sendEmail.cfm?lang=en&amp;title=DRM+dispute+around+HTML5&amp;link=http%3A%2F%2Fwww.h-online.com%2Fopen%2Fnews%2Fitem%2FDRM-dispute-around-HTML5-1828185.html%2Ffrom%2Frss" target="_blank"><img border="0" src="http://res3.feedsportal.com/images/emailthis2.gif" /></a></td><td valign="middle"><a href="http://res.feedsportal.com/viral/bookmark.cfm?title=DRM+dispute+around+HTML5&amp;link=http%3A%2F%2Fwww.h-online.com%2Fopen%2Fnews%2Fitem%2FDRM-dispute-around-HTML5-1828185.html%2Ffrom%2Frss" target="_blank"><img border="0" src="http://res3.feedsportal.com/images/bookmark.gif" /></a></td></tr></table></div><br /><br /><a href="http://da.feedsportal.com/r/161393889135/u/0/f/491735/c/32569/s/29de82e6/a2.htm"><img border="0" src="http://da.feedsportal.com/r/161393889135/u/0/f/491735/c/32569/s/29de82e6/a2.img" /></a><img border="0" height="1" src="http://pi.feedsportal.com/r/161393889135/u/0/f/491735/c/32569/s/29de82e6/a2t.img" width="1" />
p170
stRp171
sg20
(lp172
g1
(g2
g3
(dp173
g23
Vhttp://rss.feedsportal.com/c/32569/f/491735/s/29de82e6/l/0L0Sh0Eonline0N0Copen0Cnews0Citem0CDRM0Edispute0Earound0EHTML50E18281850Bhtml0Cfrom0Crss/story01.htm
p174
sg25
g26
sg27
g28
stRp175
asg13
g14
((I2013
I3
I22
I12
I4
I0
I4
I81
I0
t(dtRp176
sg16
VDRM dispute around HTML5
p177
sg67
VGoogle, Microsoft and Netflix want to integrate an extension for encrypting media content into HTML5. Civil rights campaigners have warned that Hollywood is pushing for the introduction of innovation-averse copyright protection mechanisms<img border="0" height="1" src="http://rss.feedsportal.com/c/32569/f/491735/s/29de82e6/mf.gif" width="1" /><div class="mf-viral"><table border="0"><tr><td valign="middle"><a href="http://share.feedsportal.com/viral/sendEmail.cfm?lang=en&amp;title=DRM+dispute+around+HTML5&amp;link=http\u005c%3A\u005c%2F\u005c%2Fwww.h-online.com\u005c%2Fopen\u005c%2Fnews\u005c%2Fitem\u005c%2FDRM-dispute-around-HTML5-1828185.html\u005c%2Ffrom\u005c%2Frss" target="_blank"><img border="0" src="http://res3.feedsportal.com/images/emailthis2.gif" /></a></td><td valign="middle"><a href="http://res.feedsportal.com/viral/bookmark.cfm?title=DRM+dispute+around+HTML5&amp;link=http\u005c%3A\u005c%2F\u005c%2Fwww.h-online.com\u005c%2Fopen\u005c%2Fnews\u005c%2Fitem\u005c%2FDRM-dispute-around-HTML5-1828185.html\u005c%2Ffrom\u005c%2Frss" target="_blank"><img border="0" src="http://res3.feedsportal.com/images/bookmark.gif" /></a></td></tr></table></div><br /><br /><a href="http://da.feedsportal.com/r/161393889135/u/0/f/491735/c/32569/s/29de82e6/a2.htm"><img border="0" src="http://da.feedsportal.com/r/161393889135/u/0/f/491735/c/32569/s/29de82e6/a2.img" /></a><img border="0" height="1" src="http://pi.feedsportal.com/r/161393889135/u/0/f/491735/c/32569/s/29de82e6/a2t.img" width="1" />
p178
sg69
I00
sS'title_detail'
p179
g1
(g2
g3
(dp180
g32
Vhttp://rss.feedsportal.com/c/32569/f/491735/index.rss
p181
sg25
g40
sg11
Nsg35
g177
stRp182
sg42
g174
sg18
VFri, 22 Mar 2013 12:04:00 GMT
p183
sg75
(lp184
g77
aV*
ag78
asg79
Vhttp://www.h-online.com/open/news/item/DRM-dispute-around-HTML5-1828185.html/from/rss
p185
stRp186
ag1
(g2
g3
(dp187
S'summary_detail'
p188
g1
(g2
g3
(dp189
g32
Vhttp://rss.feedsportal.com/c/32569/f/491735/index.rss
p190
sg25
g34
sg11
Nsg35
VAsm.js is a specialised subset of JavaScript designed for high performance and OdinMonkey, an optimiser for that subset of JavaScript, has just landed in Firefox nightlies offering the possibility of performance closer to native code<img border="0" height="1" src="http://rss.feedsportal.com/c/32569/f/491735/s/29de3610/mf.gif" width="1" /><div class="mf-viral"><table border="0"><tr><td valign="middle"><a href="http://share.feedsportal.com/viral/sendEmail.cfm?lang=en&amp;title=OdinMonkey+and+Asm.js+arrive+in+Firefox+Nightly&amp;link=http%3A%2F%2Fwww.h-online.com%2Fopen%2Fnews%2Fitem%2FOdinMonkey-and-Asm-js-arrive-in-Firefox-Nightly-1828202.html%2Ffrom%2Frss" target="_blank"><img border="0" src="http://res3.feedsportal.com/images/emailthis2.gif" /></a></td><td valign="middle"><a href="http://res.feedsportal.com/viral/bookmark.cfm?title=OdinMonkey+and+Asm.js+arrive+in+Firefox+Nightly&amp;link=http%3A%2F%2Fwww.h-online.com%2Fopen%2Fnews%2Fitem%2FOdinMonkey-and-Asm-js-arrive-in-Firefox-Nightly-1828202.html%2Ffrom%2Frss" target="_blank"><img border="0" src="http://res3.feedsportal.com/images/bookmark.gif" /></a></td></tr></table></div><br /><br /><a href="http://da.feedsportal.com/r/161393696441/u/0/f/491735/c/32569/s/29de3610/a2.htm"><img border="0" src="http://da.feedsportal.com/r/161393696441/u/0/f/491735/c/32569/s/29de3610/a2.img" /></a><img border="0" height="1" src="http://pi.feedsportal.com/r/161393696441/u/0/f/491735/c/32569/s/29de3610/a2t.img" width="1" />
p191
stRp192
sg20
(lp193
g1
(g2
g3
(dp194
g23
Vhttp://rss.feedsportal.com/c/32569/f/491735/s/29de3610/l/0L0Sh0Eonline0N0Copen0Cnews0Citem0COdinMonkey0Eand0EAsm0Ejs0Earrive0Ein0EFirefox0ENightly0E182820A20Bhtml0Cfrom0Crss/story01.htm
p195
sg25
g26
sg27
g28
stRp196
asg13
g14
((I2013
I3
I22
I11
I54
I0
I4
I81
I0
t(dtRp197
sg16
VOdinMonkey and Asm.js arrive in Firefox Nightly
p198
sg67
VAsm.js is a specialised subset of JavaScript designed for high performance and OdinMonkey, an optimiser for that subset of JavaScript, has just landed in Firefox nightlies offering the possibility of performance closer to native code<img border="0" height="1" src="http://rss.feedsportal.com/c/32569/f/491735/s/29de3610/mf.gif" width="1" /><div class="mf-viral"><table border="0"><tr><td valign="middle"><a href="http://share.feedsportal.com/viral/sendEmail.cfm?lang=en&amp;title=OdinMonkey+and+Asm.js+arrive+in+Firefox+Nightly&amp;link=http\u005c%3A\u005c%2F\u005c%2Fwww.h-online.com\u005c%2Fopen\u005c%2Fnews\u005c%2Fitem\u005c%2FOdinMonkey-and-Asm-js-arrive-in-Firefox-Nightly-1828202.html\u005c%2Ffrom\u005c%2Frss" target="_blank"><img border="0" src="http://res3.feedsportal.com/images/emailthis2.gif" /></a></td><td valign="middle"><a href="http://res.feedsportal.com/viral/bookmark.cfm?title=OdinMonkey+and+Asm.js+arrive+in+Firefox+Nightly&amp;link=http\u005c%3A\u005c%2F\u005c%2Fwww.h-online.com\u005c%2Fopen\u005c%2Fnews\u005c%2Fitem\u005c%2FOdinMonkey-and-Asm-js-arrive-in-Firefox-Nightly-1828202.html\u005c%2Ffrom\u005c%2Frss" target="_blank"><img border="0" src="http://res3.feedsportal.com/images/bookmark.gif" /></a></td></tr></table></div><br /><br /><a href="http://da.feedsportal.com/r/161393696441/u/0/f/491735/c/32569/s/29de3610/a2.htm"><img border="0" src="http://da.feedsportal.com/r/161393696441/u/0/f/491735/c/32569/s/29de3610/a2.img" /></a><img border="0" height="1" src="http://pi.feedsportal.com/r/161393696441/u/0/f/491735/c/32569/s/29de3610/a2t.img" width="1" />
p199
sg69
I00
sS'title_detail'
p200
g1
(g2
g3
(dp201
g32
Vhttp://rss.feedsportal.com/c/32569/f/491735/index.rss
p202
sg25
g40
sg11
Nsg35
g198
stRp203
sg42
g195
sg18
VFri, 22 Mar 2013 11:54:00 GMT
p204
sg75
(lp205
g77
aV*
ag78
asg79
Vhttp://www.h-online.com/open/news/item/OdinMonkey-and-Asm-js-arrive-in-Firefox-Nightly-1828202.html/from/rss
p206
stRp207
ag1
(g2
g3
(dp208
S'summary_detail'
p209
g1
(g2
g3
(dp210
g32
Vhttp://rss.feedsportal.com/c/32569/f/491735/index.rss
p211
sg25
g34
sg11
Nsg35
VA little over five years after the creation of the Open Handset Alliance, Glyn Moody looks at Android's global market position and the challenges that Google faces to avoid Android disappearing under a plethora of other companies' interfaces and apps<img border="0" height="1" src="http://rss.feedsportal.com/c/32569/f/491735/s/29dda4cd/mf.gif" width="1" /><div class="mf-viral"><table border="0"><tr><td valign="middle"><a href="http://share.feedsportal.com/viral/sendEmail.cfm?lang=en&amp;title=Android+has+won%3A+now+what%3F&amp;link=http%3A%2F%2Fwww.h-online.com%2Fopen%2Ffeatures%2FAndroid-has-won-now-what-1828041.html%2Ffrom%2Frss" target="_blank"><img border="0" src="http://res3.feedsportal.com/images/emailthis2.gif" /></a></td><td valign="middle"><a href="http://res.feedsportal.com/viral/bookmark.cfm?title=Android+has+won%3A+now+what%3F&amp;link=http%3A%2F%2Fwww.h-online.com%2Fopen%2Ffeatures%2FAndroid-has-won-now-what-1828041.html%2Ffrom%2Frss" target="_blank"><img border="0" src="http://res3.feedsportal.com/images/bookmark.gif" /></a></td></tr></table></div><br /><br /><a href="http://da.feedsportal.com/r/161393695367/u/0/f/491735/c/32569/s/29dda4cd/a2.htm"><img border="0" src="http://da.feedsportal.com/r/161393695367/u/0/f/491735/c/32569/s/29dda4cd/a2.img" /></a><img border="0" height="1" src="http://pi.feedsportal.com/r/161393695367/u/0/f/491735/c/32569/s/29dda4cd/a2t.img" width="1" />
p212
stRp213
sg20
(lp214
g1
(g2
g3
(dp215
g23
Vhttp://rss.feedsportal.com/c/32569/f/491735/s/29dda4cd/l/0L0Sh0Eonline0N0Copen0Cfeatures0CAndroid0Ehas0Ewon0Enow0Ewhat0E18280A410Bhtml0Cfrom0Crss/story01.htm
p216
sg25
g26
sg27
g28
stRp217
asg13
g14
((I2013
I3
I22
I11
I25
I0
I4
I81
I0
t(dtRp218
sg16
VAndroid has won: now what?
p219
sg67
VA little over five years after the creation of the Open Handset Alliance, Glyn Moody looks at Android's global market position and the challenges that Google faces to avoid Android disappearing under a plethora of other companies' interfaces and apps<img border="0" height="1" src="http://rss.feedsportal.com/c/32569/f/491735/s/29dda4cd/mf.gif" width="1" /><div class="mf-viral"><table border="0"><tr><td valign="middle"><a href="http://share.feedsportal.com/viral/sendEmail.cfm?lang=en&amp;title=Android+has+won\u005c%3A+now+what\u005c%3F&amp;link=http\u005c%3A\u005c%2F\u005c%2Fwww.h-online.com\u005c%2Fopen\u005c%2Ffeatures\u005c%2FAndroid-has-won-now-what-1828041.html\u005c%2Ffrom\u005c%2Frss" target="_blank"><img border="0" src="http://res3.feedsportal.com/images/emailthis2.gif" /></a></td><td valign="middle"><a href="http://res.feedsportal.com/viral/bookmark.cfm?title=Android+has+won\u005c%3A+now+what\u005c%3F&amp;link=http\u005c%3A\u005c%2F\u005c%2Fwww.h-online.com\u005c%2Fopen\u005c%2Ffeatures\u005c%2FAndroid-has-won-now-what-1828041.html\u005c%2Ffrom\u005c%2Frss" target="_blank"><img border="0" src="http://res3.feedsportal.com/images/bookmark.gif" /></a></td></tr></table></div><br /><br /><a href="http://da.feedsportal.com/r/161393695367/u/0/f/491735/c/32569/s/29dda4cd/a2.htm"><img border="0" src="http://da.feedsportal.com/r/161393695367/u/0/f/491735/c/32569/s/29dda4cd/a2.img" /></a><img border="0" height="1" src="http://pi.feedsportal.com/r/161393695367/u/0/f/491735/c/32569/s/29dda4cd/a2t.img" width="1" />
p220
sg69
I00
sS'title_detail'
p221
g1
(g2
g3
(dp222
g32
Vhttp://rss.feedsportal.com/c/32569/f/491735/index.rss
p223
sg25
g40
sg11
Nsg35
g219
stRp224
sg42
g216
sg18
VFri, 22 Mar 2013 11:25:00 GMT
p225
sg75
(lp226
g77
aV*
ag78
asg79
Vhttp://www.h-online.com/open/features/Android-has-won-now-what-1828041.html/from/rss
p227
stRp228
ag1
(g2
g3
(dp229
S'summary_detail'
p230
g1
(g2
g3
(dp231
g32
Vhttp://rss.feedsportal.com/c/32569/f/491735/index.rss
p232
sg25
g34
sg11
Nsg35
VWith the release of GParted 0.15.0, the developers of the open source partitioning tool have refactored its code so that it is now twice as fast and allows users to get status information on running processes<img border="0" height="1" src="http://rss.feedsportal.com/c/32569/f/491735/s/29dd9441/mf.gif" width="1" /><div class="mf-viral"><table border="0"><tr><td valign="middle"><a href="http://share.feedsportal.com/viral/sendEmail.cfm?lang=en&amp;title=GParted+receives+a+speed+boost+with+version+0.15.0&amp;link=http%3A%2F%2Fwww.h-online.com%2Fopen%2Fnews%2Fitem%2FGParted-receives-a-speed-boost-with-version-0-15-0-1828058.html%2Ffrom%2Frss" target="_blank"><img border="0" src="http://res3.feedsportal.com/images/emailthis2.gif" /></a></td><td valign="middle"><a href="http://res.feedsportal.com/viral/bookmark.cfm?title=GParted+receives+a+speed+boost+with+version+0.15.0&amp;link=http%3A%2F%2Fwww.h-online.com%2Fopen%2Fnews%2Fitem%2FGParted-receives-a-speed-boost-with-version-0-15-0-1828058.html%2Ffrom%2Frss" target="_blank"><img border="0" src="http://res3.feedsportal.com/images/bookmark.gif" /></a></td></tr></table></div><br /><br /><a href="http://da.feedsportal.com/r/161393693433/u/0/f/491735/c/32569/s/29dd9441/a2.htm"><img border="0" src="http://da.feedsportal.com/r/161393693433/u/0/f/491735/c/32569/s/29dd9441/a2.img" /></a><img border="0" height="1" src="http://pi.feedsportal.com/r/161393693433/u/0/f/491735/c/32569/s/29dd9441/a2t.img" width="1" />
p233
stRp234
sg20
(lp235
g1
(g2
g3
(dp236
g23
Vhttp://rss.feedsportal.com/c/32569/f/491735/s/29dd9441/l/0L0Sh0Eonline0N0Copen0Cnews0Citem0CGParted0Ereceives0Ea0Espeed0Eboost0Ewith0Eversion0E0A0E150E0A0E18280A580Bhtml0Cfrom0Crss/story01.htm
p237
sg25
g26
sg27
g28
stRp238
asg13
g14
((I2013
I3
I22
I10
I29
I0
I4
I81
I0
t(dtRp239
sg16
VGParted receives a speed boost with version 0.15.0
p240
sg67
VWith the release of GParted 0.15.0, the developers of the open source partitioning tool have refactored its code so that it is now twice as fast and allows users to get status information on running processes<img border="0" height="1" src="http://rss.feedsportal.com/c/32569/f/491735/s/29dd9441/mf.gif" width="1" /><div class="mf-viral"><table border="0"><tr><td valign="middle"><a href="http://share.feedsportal.com/viral/sendEmail.cfm?lang=en&amp;title=GParted+receives+a+speed+boost+with+version+0.15.0&amp;link=http\u005c%3A\u005c%2F\u005c%2Fwww.h-online.com\u005c%2Fopen\u005c%2Fnews\u005c%2Fitem\u005c%2FGParted-receives-a-speed-boost-with-version-0-15-0-1828058.html\u005c%2Ffrom\u005c%2Frss" target="_blank"><img border="0" src="http://res3.feedsportal.com/images/emailthis2.gif" /></a></td><td valign="middle"><a href="http://res.feedsportal.com/viral/bookmark.cfm?title=GParted+receives+a+speed+boost+with+version+0.15.0&amp;link=http\u005c%3A\u005c%2F\u005c%2Fwww.h-online.com\u005c%2Fopen\u005c%2Fnews\u005c%2Fitem\u005c%2FGParted-receives-a-speed-boost-with-version-0-15-0-1828058.html\u005c%2Ffrom\u005c%2Frss" target="_blank"><img border="0" src="http://res3.feedsportal.com/images/bookmark.gif" /></a></td></tr></table></div><br /><br /><a href="http://da.feedsportal.com/r/161393693433/u/0/f/491735/c/32569/s/29dd9441/a2.htm"><img border="0" src="http://da.feedsportal.com/r/161393693433/u/0/f/491735/c/32569/s/29dd9441/a2.img" /></a><img border="0" height="1" src="http://pi.feedsportal.com/r/161393693433/u/0/f/491735/c/32569/s/29dd9441/a2t.img" width="1" />
p241
sg69
I00
sS'title_detail'
p242
g1
(g2
g3
(dp243
g32
Vhttp://rss.feedsportal.com/c/32569/f/491735/index.rss
p244
sg25
g40
sg11
Nsg35
g240
stRp245
sg42
g237
sg18
VFri, 22 Mar 2013 10:29:00 GMT
p246
sg75
(lp247
g77
aV*
ag78
asg79
Vhttp://www.h-online.com/open/news/item/GParted-receives-a-speed-boost-with-version-0-15-0-1828058.html/from/rss
p248
stRp249
ag1
(g2
g3
(dp250
S'summary_detail'
p251
g1
(g2
g3
(dp252
g32
Vhttp://rss.feedsportal.com/c/32569/f/491735/index.rss
p253
sg25
g34
sg11
Nsg35
VThe Debian developers are preparing for the release of Debian 7.0 "Wheezy" and have shortened the list of Release Critical Bugs to less than one hundred, of which the majority will most likely be ignored or corresponding packages will be dropped<img border="0" height="1" src="http://rss.feedsportal.com/c/32569/f/491735/s/29d66d41/mf.gif" width="1" /><div class="mf-viral"><table border="0"><tr><td valign="middle"><a href="http://share.feedsportal.com/viral/sendEmail.cfm?lang=en&amp;title=Debian+7.0+for+Easter%3F&amp;link=http%3A%2F%2Fwww.h-online.com%2Fopen%2Fnews%2Fitem%2FDebian-7-0-for-Easter-1827628.html%2Ffrom%2Frss" target="_blank"><img border="0" src="http://res3.feedsportal.com/images/emailthis2.gif" /></a></td><td valign="middle"><a href="http://res.feedsportal.com/viral/bookmark.cfm?title=Debian+7.0+for+Easter%3F&amp;link=http%3A%2F%2Fwww.h-online.com%2Fopen%2Fnews%2Fitem%2FDebian-7-0-for-Easter-1827628.html%2Ffrom%2Frss" target="_blank"><img border="0" src="http://res3.feedsportal.com/images/bookmark.gif" /></a></td></tr></table></div><br /><br /><a href="http://da.feedsportal.com/r/161393859667/u/0/f/491735/c/32569/s/29d66d41/a2.htm"><img border="0" src="http://da.feedsportal.com/r/161393859667/u/0/f/491735/c/32569/s/29d66d41/a2.img" /></a><img border="0" height="1" src="http://pi.feedsportal.com/r/161393859667/u/0/f/491735/c/32569/s/29d66d41/a2t.img" width="1" />
p254
stRp255
sg20
(lp256
g1
(g2
g3
(dp257
g23
Vhttp://rss.feedsportal.com/c/32569/f/491735/s/29d66d41/l/0L0Sh0Eonline0N0Copen0Cnews0Citem0CDebian0E70E0A0Efor0EEaster0E18276280Bhtml0Cfrom0Crss/story01.htm
p258
sg25
g26
sg27
g28
stRp259
asg13
g14
((I2013
I3
I21
I17
I0
I0
I3
I80
I0
t(dtRp260
sg16
VDebian 7.0 for Easter?
p261
sg67
VThe Debian developers are preparing for the release of Debian 7.0 "Wheezy" and have shortened the list of Release Critical Bugs to less than one hundred, of which the majority will most likely be ignored or corresponding packages will be dropped<img border="0" height="1" src="http://rss.feedsportal.com/c/32569/f/491735/s/29d66d41/mf.gif" width="1" /><div class="mf-viral"><table border="0"><tr><td valign="middle"><a href="http://share.feedsportal.com/viral/sendEmail.cfm?lang=en&amp;title=Debian+7.0+for+Easter\u005c%3F&amp;link=http\u005c%3A\u005c%2F\u005c%2Fwww.h-online.com\u005c%2Fopen\u005c%2Fnews\u005c%2Fitem\u005c%2FDebian-7-0-for-Easter-1827628.html\u005c%2Ffrom\u005c%2Frss" target="_blank"><img border="0" src="http://res3.feedsportal.com/images/emailthis2.gif" /></a></td><td valign="middle"><a href="http://res.feedsportal.com/viral/bookmark.cfm?title=Debian+7.0+for+Easter\u005c%3F&amp;link=http\u005c%3A\u005c%2F\u005c%2Fwww.h-online.com\u005c%2Fopen\u005c%2Fnews\u005c%2Fitem\u005c%2FDebian-7-0-for-Easter-1827628.html\u005c%2Ffrom\u005c%2Frss" target="_blank"><img border="0" src="http://res3.feedsportal.com/images/bookmark.gif" /></a></td></tr></table></div><br /><br /><a href="http://da.feedsportal.com/r/161393859667/u/0/f/491735/c/32569/s/29d66d41/a2.htm"><img border="0" src="http://da.feedsportal.com/r/161393859667/u/0/f/491735/c/32569/s/29d66d41/a2.img" /></a><img border="0" height="1" src="http://pi.feedsportal.com/r/161393859667/u/0/f/491735/c/32569/s/29d66d41/a2t.img" width="1" />
p262
sg69
I00
sS'title_detail'
p263
g1
(g2
g3
(dp264
g32
Vhttp://rss.feedsportal.com/c/32569/f/491735/index.rss
p265
sg25
g40
sg11
Nsg35
g261
stRp266
sg42
g258
sg18
VThu, 21 Mar 2013 17:00:00 GMT
p267
sg75
(lp268
g77
aV*
ag78
asg79
Vhttp://www.h-online.com/open/news/item/Debian-7-0-for-Easter-1827628.html/from/rss
p269
stRp270
ag1
(g2
g3
(dp271
S'summary_detail'
p272
g1
(g2
g3
(dp273
g32
Vhttp://rss.feedsportal.com/c/32569/f/491735/index.rss
p274
sg25
g34
sg11
Nsg35
VEclipse's Xtend language and IDE have been updated; now coders can control how Xtend code becomes Java with Active Annotations and Android developers will be able to debug Xtend compiled code on the Dalvik VM<img border="0" height="1" src="http://rss.feedsportal.com/c/32569/f/491735/s/29d655a7/mf.gif" width="1" /><div class="mf-viral"><table border="0"><tr><td valign="middle"><a href="http://share.feedsportal.com/viral/sendEmail.cfm?lang=en&amp;title=Xtend+2.4+introduces+Active+Annotations+and+Android+support&amp;link=http%3A%2F%2Fwww.h-online.com%2Fopen%2Fnews%2Fitem%2FXtend-2-4-introduces-Active-Annotations-and-Android-support-1827559.html%2Ffrom%2Frss" target="_blank"><img border="0" src="http://res3.feedsportal.com/images/emailthis2.gif" /></a></td><td valign="middle"><a href="http://res.feedsportal.com/viral/bookmark.cfm?title=Xtend+2.4+introduces+Active+Annotations+and+Android+support&amp;link=http%3A%2F%2Fwww.h-online.com%2Fopen%2Fnews%2Fitem%2FXtend-2-4-introduces-Active-Annotations-and-Android-support-1827559.html%2Ffrom%2Frss" target="_blank"><img border="0" src="http://res3.feedsportal.com/images/bookmark.gif" /></a></td></tr></table></div><br /><br /><a href="http://da.feedsportal.com/r/161393902432/u/0/f/491735/c/32569/s/29d655a7/a2.htm"><img border="0" src="http://da.feedsportal.com/r/161393902432/u/0/f/491735/c/32569/s/29d655a7/a2.img" /></a><img border="0" height="1" src="http://pi.feedsportal.com/r/161393902432/u/0/f/491735/c/32569/s/29d655a7/a2t.img" width="1" />
p275
stRp276
sg20
(lp277
g1
(g2
g3
(dp278
g23
Vhttp://rss.feedsportal.com/c/32569/f/491735/s/29d655a7/l/0L0Sh0Eonline0N0Copen0Cnews0Citem0CXtend0E20E40Eintroduces0EActive0EAnnotations0Eand0EAndroid0Esupport0E18275590Bhtml0Cfrom0Crss/story01.htm
p279
sg25
g26
sg27
g28
stRp280
asg13
g14
((I2013
I3
I21
I16
I34
I0
I3
I80
I0
t(dtRp281
sg16
VXtend 2.4 introduces Active Annotations and Android support
p282
sg67
VEclipse's Xtend language and IDE have been updated; now coders can control how Xtend code becomes Java with Active Annotations and Android developers will be able to debug Xtend compiled code on the Dalvik VM<img border="0" height="1" src="http://rss.feedsportal.com/c/32569/f/491735/s/29d655a7/mf.gif" width="1" /><div class="mf-viral"><table border="0"><tr><td valign="middle"><a href="http://share.feedsportal.com/viral/sendEmail.cfm?lang=en&amp;title=Xtend+2.4+introduces+Active+Annotations+and+Android+support&amp;link=http\u005c%3A\u005c%2F\u005c%2Fwww.h-online.com\u005c%2Fopen\u005c%2Fnews\u005c%2Fitem\u005c%2FXtend-2-4-introduces-Active-Annotations-and-Android-support-1827559.html\u005c%2Ffrom\u005c%2Frss" target="_blank"><img border="0" src="http://res3.feedsportal.com/images/emailthis2.gif" /></a></td><td valign="middle"><a href="http://res.feedsportal.com/viral/bookmark.cfm?title=Xtend+2.4+introduces+Active+Annotations+and+Android+support&amp;link=http\u005c%3A\u005c%2F\u005c%2Fwww.h-online.com\u005c%2Fopen\u005c%2Fnews\u005c%2Fitem\u005c%2FXtend-2-4-introduces-Active-Annotations-and-Android-support-1827559.html\u005c%2Ffrom\u005c%2Frss" target="_blank"><img border="0" src="http://res3.feedsportal.com/images/bookmark.gif" /></a></td></tr></table></div><br /><br /><a href="http://da.feedsportal.com/r/161393902432/u/0/f/491735/c/32569/s/29d655a7/a2.htm"><img border="0" src="http://da.feedsportal.com/r/161393902432/u/0/f/491735/c/32569/s/29d655a7/a2.img" /></a><img border="0" height="1" src="http://pi.feedsportal.com/r/161393902432/u/0/f/491735/c/32569/s/29d655a7/a2t.img" width="1" />
p283
sg69
I00
sS'title_detail'
p284
g1
(g2
g3
(dp285
g32
Vhttp://rss.feedsportal.com/c/32569/f/491735/index.rss
p286
sg25
g40
sg11
Nsg35
g282
stRp287
sg42
g279
sg18
VThu, 21 Mar 2013 16:34:00 GMT
p288
sg75
(lp289
g77
aV*
ag78
asg79
Vhttp://www.h-online.com/open/news/item/Xtend-2-4-introduces-Active-Annotations-and-Android-support-1827559.html/from/rss
p290
stRp291
ag1
(g2
g3
(dp292
S'summary_detail'
p293
g1
(g2
g3
(dp294
g32
Vhttp://rss.feedsportal.com/c/32569/f/491735/index.rss
p295
sg25
g34
sg11
Nsg35
VDevelopers are isolating the problem \u2013 filling up the memory for UEFI variables by more than fifty per cent can brick certain Samsung notebooks. The cause appears to be the UEFI firmware's garbage collection<img border="0" height="1" src="http://rss.feedsportal.com/c/32569/f/491735/s/29d57ae8/mf.gif" width="1" /><div class="mf-viral"><table border="0"><tr><td valign="middle"><a href="http://share.feedsportal.com/viral/sendEmail.cfm?lang=en&amp;title=UEFI+on+Samsung+notebooks%3A+Half+full+is+almost+broken&amp;link=http%3A%2F%2Fwww.h-online.com%2Fopen%2Fnews%2Fitem%2FUEFI-on-Samsung-notebooks-Half-full-is-almost-broken-1827493.html%2Ffrom%2Frss" target="_blank"><img border="0" src="http://res3.feedsportal.com/images/emailthis2.gif" /></a></td><td valign="middle"><a href="http://res.feedsportal.com/viral/bookmark.cfm?title=UEFI+on+Samsung+notebooks%3A+Half+full+is+almost+broken&amp;link=http%3A%2F%2Fwww.h-online.com%2Fopen%2Fnews%2Fitem%2FUEFI-on-Samsung-notebooks-Half-full-is-almost-broken-1827493.html%2Ffrom%2Frss" target="_blank"><img border="0" src="http://res3.feedsportal.com/images/bookmark.gif" /></a></td></tr></table></div><br /><br /><a href="http://da.feedsportal.com/r/161393721887/u/0/f/491735/c/32569/s/29d57ae8/a2.htm"><img border="0" src="http://da.feedsportal.com/r/161393721887/u/0/f/491735/c/32569/s/29d57ae8/a2.img" /></a><img border="0" height="1" src="http://pi.feedsportal.com/r/161393721887/u/0/f/491735/c/32569/s/29d57ae8/a2t.img" width="1" />
p296
stRp297
sg20
(lp298
g1
(g2
g3
(dp299
g23
Vhttp://rss.feedsportal.com/c/32569/f/491735/s/29d57ae8/l/0L0Sh0Eonline0N0Copen0Cnews0Citem0CUEFI0Eon0ESamsung0Enotebooks0EHalf0Efull0Eis0Ealmost0Ebroken0E18274930Bhtml0Cfrom0Crss/story01.htm
p300
sg25
g26
sg27
g28
stRp301
asg13
g14
((I2013
I3
I21
I16
I7
I0
I3
I80
I0
t(dtRp302
sg16
VUEFI on Samsung notebooks: Half full is almost broken
p303
sg67
VDevelopers are isolating the problem \u2013 filling up the memory for UEFI variables by more than fifty per cent can brick certain Samsung notebooks. The cause appears to be the UEFI firmware's garbage collection<img border="0" height="1" src="http://rss.feedsportal.com/c/32569/f/491735/s/29d57ae8/mf.gif" width="1" /><div class="mf-viral"><table border="0"><tr><td valign="middle"><a href="http://share.feedsportal.com/viral/sendEmail.cfm?lang=en&amp;title=UEFI+on+Samsung+notebooks\u005c%3A+Half+full+is+almost+broken&amp;link=http\u005c%3A\u005c%2F\u005c%2Fwww.h-online.com\u005c%2Fopen\u005c%2Fnews\u005c%2Fitem\u005c%2FUEFI-on-Samsung-notebooks-Half-full-is-almost-broken-1827493.html\u005c%2Ffrom\u005c%2Frss" target="_blank"><img border="0" src="http://res3.feedsportal.com/images/emailthis2.gif" /></a></td><td valign="middle"><a href="http://res.feedsportal.com/viral/bookmark.cfm?title=UEFI+on+Samsung+notebooks\u005c%3A+Half+full+is+almost+broken&amp;link=http\u005c%3A\u005c%2F\u005c%2Fwww.h-online.com\u005c%2Fopen\u005c%2Fnews\u005c%2Fitem\u005c%2FUEFI-on-Samsung-notebooks-Half-full-is-almost-broken-1827493.html\u005c%2Ffrom\u005c%2Frss" target="_blank"><img border="0" src="http://res3.feedsportal.com/images/bookmark.gif" /></a></td></tr></table></div><br /><br /><a href="http://da.feedsportal.com/r/161393721887/u/0/f/491735/c/32569/s/29d57ae8/a2.htm"><img border="0" src="http://da.feedsportal.com/r/161393721887/u/0/f/491735/c/32569/s/29d57ae8/a2.img" /></a><img border="0" height="1" src="http://pi.feedsportal.com/r/161393721887/u/0/f/491735/c/32569/s/29d57ae8/a2t.img" width="1" />
p304
sg69
I00
sS'title_detail'
p305
g1
(g2
g3
(dp306
g32
Vhttp://rss.feedsportal.com/c/32569/f/491735/index.rss
p307
sg25
g40
sg11
Nsg35
g303
stRp308
sg42
g300
sg18
VThu, 21 Mar 2013 16:07:00 GMT
p309
sg75
(lp310
g77
aV*
ag78
asg79
Vhttp://www.h-online.com/open/news/item/UEFI-on-Samsung-notebooks-Half-full-is-almost-broken-1827493.html/from/rss
p311
stRp312
ag1
(g2
g3
(dp313
S'summary_detail'
p314
g1
(g2
g3
(dp315
g32
Vhttp://rss.feedsportal.com/c/32569/f/491735/index.rss
p316
sg25
g34
sg11
Nsg35
VThe latest update to the FreeBSD-based distribution for Network Attached Storage (NAS) devices introduces the ability to set up full disk encryption on ZFS volumes and several other smaller improvements<img border="0" height="1" src="http://rss.feedsportal.com/c/32569/f/491735/s/29d3c73b/mf.gif" width="1" /><div class="mf-viral"><table border="0"><tr><td valign="middle"><a href="http://share.feedsportal.com/viral/sendEmail.cfm?lang=en&amp;title=FreeNAS+8.3.1+introduces+full+disk+ZFS+encryption&amp;link=http%3A%2F%2Fwww.h-online.com%2Fopen%2Fnews%2Fitem%2FFreeNAS-8-3-1-introduces-full-disk-ZFS-encryption-1827206.html%2Ffrom%2Frss" target="_blank"><img border="0" src="http://res3.feedsportal.com/images/emailthis2.gif" /></a></td><td valign="middle"><a href="http://res.feedsportal.com/viral/bookmark.cfm?title=FreeNAS+8.3.1+introduces+full+disk+ZFS+encryption&amp;link=http%3A%2F%2Fwww.h-online.com%2Fopen%2Fnews%2Fitem%2FFreeNAS-8-3-1-introduces-full-disk-ZFS-encryption-1827206.html%2Ffrom%2Frss" target="_blank"><img border="0" src="http://res3.feedsportal.com/images/bookmark.gif" /></a></td></tr></table></div><br /><br /><a href="http://da.feedsportal.com/r/161393894424/u/0/f/491735/c/32569/s/29d3c73b/a2.htm"><img border="0" src="http://da.feedsportal.com/r/161393894424/u/0/f/491735/c/32569/s/29d3c73b/a2.img" /></a><img border="0" height="1" src="http://pi.feedsportal.com/r/161393894424/u/0/f/491735/c/32569/s/29d3c73b/a2t.img" width="1" />
p317
stRp318
sg20
(lp319
g1
(g2
g3
(dp320
g23
Vhttp://rss.feedsportal.com/c/32569/f/491735/s/29d3c73b/l/0L0Sh0Eonline0N0Copen0Cnews0Citem0CFreeNAS0E80E30E10Eintroduces0Efull0Edisk0EZFS0Eencryption0E182720A60Bhtml0Cfrom0Crss/story01.htm
p321
sg25
g26
sg27
g28
stRp322
asg13
g14
((I2013
I3
I21
I12
I54
I0
I3
I80
I0
t(dtRp323
sg16
VFreeNAS 8.3.1 introduces full disk ZFS encryption
p324
sg67
VThe latest update to the FreeBSD-based distribution for Network Attached Storage (NAS) devices introduces the ability to set up full disk encryption on ZFS volumes and several other smaller improvements<img border="0" height="1" src="http://rss.feedsportal.com/c/32569/f/491735/s/29d3c73b/mf.gif" width="1" /><div class="mf-viral"><table border="0"><tr><td valign="middle"><a href="http://share.feedsportal.com/viral/sendEmail.cfm?lang=en&amp;title=FreeNAS+8.3.1+introduces+full+disk+ZFS+encryption&amp;link=http\u005c%3A\u005c%2F\u005c%2Fwww.h-online.com\u005c%2Fopen\u005c%2Fnews\u005c%2Fitem\u005c%2FFreeNAS-8-3-1-introduces-full-disk-ZFS-encryption-1827206.html\u005c%2Ffrom\u005c%2Frss" target="_blank"><img border="0" src="http://res3.feedsportal.com/images/emailthis2.gif" /></a></td><td valign="middle"><a href="http://res.feedsportal.com/viral/bookmark.cfm?title=FreeNAS+8.3.1+introduces+full+disk+ZFS+encryption&amp;link=http\u005c%3A\u005c%2F\u005c%2Fwww.h-online.com\u005c%2Fopen\u005c%2Fnews\u005c%2Fitem\u005c%2FFreeNAS-8-3-1-introduces-full-disk-ZFS-encryption-1827206.html\u005c%2Ffrom\u005c%2Frss" target="_blank"><img border="0" src="http://res3.feedsportal.com/images/bookmark.gif" /></a></td></tr></table></div><br /><br /><a href="http://da.feedsportal.com/r/161393894424/u/0/f/491735/c/32569/s/29d3c73b/a2.htm"><img border="0" src="http://da.feedsportal.com/r/161393894424/u/0/f/491735/c/32569/s/29d3c73b/a2.img" /></a><img border="0" height="1" src="http://pi.feedsportal.com/r/161393894424/u/0/f/491735/c/32569/s/29d3c73b/a2t.img" width="1" />
p325
sg69
I00
sS'title_detail'
p326
g1
(g2
g3
(dp327
g32
Vhttp://rss.feedsportal.com/c/32569/f/491735/index.rss
p328
sg25
g40
sg11
Nsg35
g324
stRp329
sg42
g321
sg18
VThu, 21 Mar 2013 12:54:00 GMT
p330
sg75
(lp331
g77
aV*
ag78
asg79
Vhttp://www.h-online.com/open/news/item/FreeNAS-8-3-1-introduces-full-disk-ZFS-encryption-1827206.html/from/rss
p332
stRp333
ag1
(g2
g3
(dp334
S'summary_detail'
p335
g1
(g2
g3
(dp336
g32
Vhttp://rss.feedsportal.com/c/32569/f/491735/index.rss
p337
sg25
g34
sg11
Nsg35
VBasho's S3-compatible storage system, Riak CS, is now open source, matching the underlying Riak distributed database<img border="0" height="1" src="http://rss.feedsportal.com/c/32569/f/491735/s/29d2cc2d/mf.gif" width="1" /><div class="mf-viral"><table border="0"><tr><td valign="middle"><a href="http://share.feedsportal.com/viral/sendEmail.cfm?lang=en&amp;title=Basho+open+sources+Riak+CS&amp;link=http%3A%2F%2Fwww.h-online.com%2Fopen%2Fnews%2Fitem%2FBasho-open-sources-Riak-CS-1827130.html%2Ffrom%2Frss" target="_blank"><img border="0" src="http://res3.feedsportal.com/images/emailthis2.gif" /></a></td><td valign="middle"><a href="http://res.feedsportal.com/viral/bookmark.cfm?title=Basho+open+sources+Riak+CS&amp;link=http%3A%2F%2Fwww.h-online.com%2Fopen%2Fnews%2Fitem%2FBasho-open-sources-Riak-CS-1827130.html%2Ffrom%2Frss" target="_blank"><img border="0" src="http://res3.feedsportal.com/images/bookmark.gif" /></a></td></tr></table></div><br /><br /><a href="http://da.feedsportal.com/r/161393712484/u/0/f/491735/c/32569/s/29d2cc2d/kg/355/a2.htm"><img border="0" src="http://da.feedsportal.com/r/161393712484/u/0/f/491735/c/32569/s/29d2cc2d/kg/355/a2.img" /></a><img border="0" height="1" src="http://pi.feedsportal.com/r/161393712484/u/0/f/491735/c/32569/s/29d2cc2d/kg/355/a2t.img" width="1" />
p338
stRp339
sg20
(lp340
g1
(g2
g3
(dp341
g23
Vhttp://rss.feedsportal.com/c/32569/f/491735/s/29d2cc2d/l/0L0Sh0Eonline0N0Copen0Cnews0Citem0CBasho0Eopen0Esources0ERiak0ECS0E1827130A0Bhtml0Cfrom0Crss/story01.htm
p342
sg25
g26
sg27
g28
stRp343
asg13
g14
((I2013
I3
I21
I11
I28
I0
I3
I80
I0
t(dtRp344
sg16
VBasho open sources Riak CS
p345
sg67
VBasho's S3-compatible storage system, Riak CS, is now open source, matching the underlying Riak distributed database<img border="0" height="1" src="http://rss.feedsportal.com/c/32569/f/491735/s/29d2cc2d/mf.gif" width="1" /><div class="mf-viral"><table border="0"><tr><td valign="middle"><a href="http://share.feedsportal.com/viral/sendEmail.cfm?lang=en&amp;title=Basho+open+sources+Riak+CS&amp;link=http\u005c%3A\u005c%2F\u005c%2Fwww.h-online.com\u005c%2Fopen\u005c%2Fnews\u005c%2Fitem\u005c%2FBasho-open-sources-Riak-CS-1827130.html\u005c%2Ffrom\u005c%2Frss" target="_blank"><img border="0" src="http://res3.feedsportal.com/images/emailthis2.gif" /></a></td><td valign="middle"><a href="http://res.feedsportal.com/viral/bookmark.cfm?title=Basho+open+sources+Riak+CS&amp;link=http\u005c%3A\u005c%2F\u005c%2Fwww.h-online.com\u005c%2Fopen\u005c%2Fnews\u005c%2Fitem\u005c%2FBasho-open-sources-Riak-CS-1827130.html\u005c%2Ffrom\u005c%2Frss" target="_blank"><img border="0" src="http://res3.feedsportal.com/images/bookmark.gif" /></a></td></tr></table></div><br /><br /><a href="http://da.feedsportal.com/r/161393712484/u/0/f/491735/c/32569/s/29d2cc2d/kg/355/a2.htm"><img border="0" src="http://da.feedsportal.com/r/161393712484/u/0/f/491735/c/32569/s/29d2cc2d/kg/355/a2.img" /></a><img border="0" height="1" src="http://pi.feedsportal.com/r/161393712484/u/0/f/491735/c/32569/s/29d2cc2d/kg/355/a2t.img" width="1" />
p346
sg69
I00
sS'title_detail'
p347
g1
(g2
g3
(dp348
g32
Vhttp://rss.feedsportal.com/c/32569/f/491735/index.rss
p349
sg25
g40
sg11
Nsg35
g345
stRp350
sg42
g342
sg18
VThu, 21 Mar 2013 11:28:00 GMT
p351
sg75
(lp352
g77
aV*
ag78
asg79
Vhttp://www.h-online.com/open/news/item/Basho-open-sources-Riak-CS-1827130.html/from/rss
p353
stRp354
ag1
(g2
g3
(dp355
S'summary_detail'
p356
g1
(g2
g3
(dp357
g32
Vhttp://rss.feedsportal.com/c/32569/f/491735/index.rss
p358
sg25
g34
sg11
Nsg35
VThe KDE developers have released the first version of the Plasma Media Center (PMC), designed to be used on any "device that is capable of running KDE"<img border="0" height="1" src="http://rss.feedsportal.com/c/32569/f/491735/s/29d247be/mf.gif" width="1" /><div class="mf-viral"><table border="0"><tr><td valign="middle"><a href="http://share.feedsportal.com/viral/sendEmail.cfm?lang=en&amp;title=KDE+debuts+Plasma+Media+Center&amp;link=http%3A%2F%2Fwww.h-online.com%2Fopen%2Fnews%2Fitem%2FKDE-debuts-Plasma-Media-Center-1827074.html%2Ffrom%2Frss" target="_blank"><img border="0" src="http://res3.feedsportal.com/images/emailthis2.gif" /></a></td><td valign="middle"><a href="http://res.feedsportal.com/viral/bookmark.cfm?title=KDE+debuts+Plasma+Media+Center&amp;link=http%3A%2F%2Fwww.h-online.com%2Fopen%2Fnews%2Fitem%2FKDE-debuts-Plasma-Media-Center-1827074.html%2Ffrom%2Frss" target="_blank"><img border="0" src="http://res3.feedsportal.com/images/bookmark.gif" /></a></td></tr></table></div><br /><br /><a href="http://da.feedsportal.com/r/161393848213/u/0/f/491735/c/32569/s/29d247be/a2.htm"><img border="0" src="http://da.feedsportal.com/r/161393848213/u/0/f/491735/c/32569/s/29d247be/a2.img" /></a><img border="0" height="1" src="http://pi.feedsportal.com/r/161393848213/u/0/f/491735/c/32569/s/29d247be/a2t.img" width="1" />
p359
stRp360
sg20
(lp361
g1
(g2
g3
(dp362
g23
Vhttp://rss.feedsportal.com/c/32569/f/491735/s/29d247be/l/0L0Sh0Eonline0N0Copen0Cnews0Citem0CKDE0Edebuts0EPlasma0EMedia0ECenter0E18270A740Bhtml0Cfrom0Crss/story01.htm
p363
sg25
g26
sg27
g28
stRp364
asg13
g14
((I2013
I3
I21
I11
I3
I0
I3
I80
I0
t(dtRp365
sg16
VKDE debuts Plasma Media Center
p366
sg67
VThe KDE developers have released the first version of the Plasma Media Center (PMC), designed to be used on any "device that is capable of running KDE"<img border="0" height="1" src="http://rss.feedsportal.com/c/32569/f/491735/s/29d247be/mf.gif" width="1" /><div class="mf-viral"><table border="0"><tr><td valign="middle"><a href="http://share.feedsportal.com/viral/sendEmail.cfm?lang=en&amp;title=KDE+debuts+Plasma+Media+Center&amp;link=http\u005c%3A\u005c%2F\u005c%2Fwww.h-online.com\u005c%2Fopen\u005c%2Fnews\u005c%2Fitem\u005c%2FKDE-debuts-Plasma-Media-Center-1827074.html\u005c%2Ffrom\u005c%2Frss" target="_blank"><img border="0" src="http://res3.feedsportal.com/images/emailthis2.gif" /></a></td><td valign="middle"><a href="http://res.feedsportal.com/viral/bookmark.cfm?title=KDE+debuts+Plasma+Media+Center&amp;link=http\u005c%3A\u005c%2F\u005c%2Fwww.h-online.com\u005c%2Fopen\u005c%2Fnews\u005c%2Fitem\u005c%2FKDE-debuts-Plasma-Media-Center-1827074.html\u005c%2Ffrom\u005c%2Frss" target="_blank"><img border="0" src="http://res3.feedsportal.com/images/bookmark.gif" /></a></td></tr></table></div><br /><br /><a href="http://da.feedsportal.com/r/161393848213/u/0/f/491735/c/32569/s/29d247be/a2.htm"><img border="0" src="http://da.feedsportal.com/r/161393848213/u/0/f/491735/c/32569/s/29d247be/a2.img" /></a><img border="0" height="1" src="http://pi.feedsportal.com/r/161393848213/u/0/f/491735/c/32569/s/29d247be/a2t.img" width="1" />
p367
sg69
I00
sS'title_detail'
p368
g1
(g2
g3
(dp369
g32
Vhttp://rss.feedsportal.com/c/32569/f/491735/index.rss
p370
sg25
g40
sg11
Nsg35
g366
stRp371
sg42
g363
sg18
VThu, 21 Mar 2013 11:03:00 GMT
p372
sg75
(lp373
g77
aV*
ag78
asg79
Vhttp://www.h-online.com/open/news/item/KDE-debuts-Plasma-Media-Center-1827074.html/from/rss
p374
stRp375
ag1
(g2
g3
(dp376
S'summary_detail'
p377
g1
(g2
g3
(dp378
g32
Vhttp://rss.feedsportal.com/c/32569/f/491735/index.rss
p379
sg25
g34
sg11
Nsg35
V888 days in the making \u2013 Backbone.js 1.0 has arrived and the minimalist yet powerful JavaScript framework, already in wide use, continues to be refined by the developers<img border="0" height="1" src="http://rss.feedsportal.com/c/32569/f/491735/s/29cb15e2/mf.gif" width="1" /><div class="mf-viral"><table border="0"><tr><td valign="middle"><a href="http://share.feedsportal.com/viral/sendEmail.cfm?lang=en&amp;title=Backbone.js+takes+on+a+1.0+milestone&amp;link=http%3A%2F%2Fwww.h-online.com%2Fopen%2Fnews%2Fitem%2FBackbone-js-takes-on-a-1-0-milestone-1826816.html%2Ffrom%2Frss" target="_blank"><img border="0" src="http://res3.feedsportal.com/images/emailthis2.gif" /></a></td><td valign="middle"><a href="http://res.feedsportal.com/viral/bookmark.cfm?title=Backbone.js+takes+on+a+1.0+milestone&amp;link=http%3A%2F%2Fwww.h-online.com%2Fopen%2Fnews%2Fitem%2FBackbone-js-takes-on-a-1-0-milestone-1826816.html%2Ffrom%2Frss" target="_blank"><img border="0" src="http://res3.feedsportal.com/images/bookmark.gif" /></a></td></tr></table></div><br /><br /><a href="http://da.feedsportal.com/r/161393627620/u/0/f/491735/c/32569/s/29cb15e2/a2.htm"><img border="0" src="http://da.feedsportal.com/r/161393627620/u/0/f/491735/c/32569/s/29cb15e2/a2.img" /></a><img border="0" height="1" src="http://pi.feedsportal.com/r/161393627620/u/0/f/491735/c/32569/s/29cb15e2/a2t.img" width="1" />
p380
stRp381
sg20
(lp382
g1
(g2
g3
(dp383
g23
Vhttp://rss.feedsportal.com/c/32569/f/491735/s/29cb15e2/l/0L0Sh0Eonline0N0Copen0Cnews0Citem0CBackbone0Ejs0Etakes0Eon0Ea0E10E0A0Emilestone0E18268160Bhtml0Cfrom0Crss/story01.htm
p384
sg25
g26
sg27
g28
stRp385
asg13
g14
((I2013
I3
I20
I17
I21
I0
I2
I79
I0
t(dtRp386
sg16
VBackbone.js takes on a 1.0 milestone
p387
sg67
V888 days in the making \u2013 Backbone.js 1.0 has arrived and the minimalist yet powerful JavaScript framework, already in wide use, continues to be refined by the developers<img border="0" height="1" src="http://rss.feedsportal.com/c/32569/f/491735/s/29cb15e2/mf.gif" width="1" /><div class="mf-viral"><table border="0"><tr><td valign="middle"><a href="http://share.feedsportal.com/viral/sendEmail.cfm?lang=en&amp;title=Backbone.js+takes+on+a+1.0+milestone&amp;link=http\u005c%3A\u005c%2F\u005c%2Fwww.h-online.com\u005c%2Fopen\u005c%2Fnews\u005c%2Fitem\u005c%2FBackbone-js-takes-on-a-1-0-milestone-1826816.html\u005c%2Ffrom\u005c%2Frss" target="_blank"><img border="0" src="http://res3.feedsportal.com/images/emailthis2.gif" /></a></td><td valign="middle"><a href="http://res.feedsportal.com/viral/bookmark.cfm?title=Backbone.js+takes+on+a+1.0+milestone&amp;link=http\u005c%3A\u005c%2F\u005c%2Fwww.h-online.com\u005c%2Fopen\u005c%2Fnews\u005c%2Fitem\u005c%2FBackbone-js-takes-on-a-1-0-milestone-1826816.html\u005c%2Ffrom\u005c%2Frss" target="_blank"><img border="0" src="http://res3.feedsportal.com/images/bookmark.gif" /></a></td></tr></table></div><br /><br /><a href="http://da.feedsportal.com/r/161393627620/u/0/f/491735/c/32569/s/29cb15e2/a2.htm"><img border="0" src="http://da.feedsportal.com/r/161393627620/u/0/f/491735/c/32569/s/29cb15e2/a2.img" /></a><img border="0" height="1" src="http://pi.feedsportal.com/r/161393627620/u/0/f/491735/c/32569/s/29cb15e2/a2t.img" width="1" />
p388
sg69
I00
sS'title_detail'
p389
g1
(g2
g3
(dp390
g32
Vhttp://rss.feedsportal.com/c/32569/f/491735/index.rss
p391
sg25
g40
sg11
Nsg35
g387
stRp392
sg42
g384
sg18
VWed, 20 Mar 2013 17:21:00 GMT
p393
sg75
(lp394
g77
aV*
ag78
asg79
Vhttp://www.h-online.com/open/news/item/Backbone-js-takes-on-a-1-0-milestone-1826816.html/from/rss
p395
stRp396
ag1
(g2
g3
(dp397
S'summary_detail'
p398
g1
(g2
g3
(dp399
g32
Vhttp://rss.feedsportal.com/c/32569/f/491735/index.rss
p400
sg25
g34
sg11
Nsg35
VAn iOS version of the open source JACK Audio Connection Kit is now available for developers wanting to connect the audio inputs and outputs of their applications. The Amazing Audio Engine is another open source solution that serves a similar purpose<img border="0" height="1" src="http://rss.feedsportal.com/c/32569/f/491735/s/29cb6bbe/mf.gif" width="1" /><div class="mf-viral"><table border="0"><tr><td valign="middle"><a href="http://share.feedsportal.com/viral/sendEmail.cfm?lang=en&amp;title=Open+source+audio+frameworks+for+iOS&amp;link=http%3A%2F%2Fwww.h-online.com%2Fopen%2Fnews%2Fitem%2FOpen-source-audio-frameworks-for-iOS-1826785.html%2Ffrom%2Frss" target="_blank"><img border="0" src="http://res3.feedsportal.com/images/emailthis2.gif" /></a></td><td valign="middle"><a href="http://res.feedsportal.com/viral/bookmark.cfm?title=Open+source+audio+frameworks+for+iOS&amp;link=http%3A%2F%2Fwww.h-online.com%2Fopen%2Fnews%2Fitem%2FOpen-source-audio-frameworks-for-iOS-1826785.html%2Ffrom%2Frss" target="_blank"><img border="0" src="http://res3.feedsportal.com/images/bookmark.gif" /></a></td></tr></table></div><br /><br /><a href="http://da.feedsportal.com/r/161393820830/u/0/f/491735/c/32569/s/29cb6bbe/a2.htm"><img border="0" src="http://da.feedsportal.com/r/161393820830/u/0/f/491735/c/32569/s/29cb6bbe/a2.img" /></a><img border="0" height="1" src="http://pi.feedsportal.com/r/161393820830/u/0/f/491735/c/32569/s/29cb6bbe/a2t.img" width="1" />
p401
stRp402
sg20
(lp403
g1
(g2
g3
(dp404
g23
Vhttp://rss.feedsportal.com/c/32569/f/491735/s/29cb6bbe/l/0L0Sh0Eonline0N0Copen0Cnews0Citem0COpen0Esource0Eaudio0Eframeworks0Efor0EiOS0E18267850Bhtml0Cfrom0Crss/story01.htm
p405
sg25
g26
sg27
g28
stRp406
asg13
g14
((I2013
I3
I20
I16
I58
I0
I2
I79
I0
t(dtRp407
sg16
VOpen source audio frameworks for iOS
p408
sg67
VAn iOS version of the open source JACK Audio Connection Kit is now available for developers wanting to connect the audio inputs and outputs of their applications. The Amazing Audio Engine is another open source solution that serves a similar purpose<img border="0" height="1" src="http://rss.feedsportal.com/c/32569/f/491735/s/29cb6bbe/mf.gif" width="1" /><div class="mf-viral"><table border="0"><tr><td valign="middle"><a href="http://share.feedsportal.com/viral/sendEmail.cfm?lang=en&amp;title=Open+source+audio+frameworks+for+iOS&amp;link=http\u005c%3A\u005c%2F\u005c%2Fwww.h-online.com\u005c%2Fopen\u005c%2Fnews\u005c%2Fitem\u005c%2FOpen-source-audio-frameworks-for-iOS-1826785.html\u005c%2Ffrom\u005c%2Frss" target="_blank"><img border="0" src="http://res3.feedsportal.com/images/emailthis2.gif" /></a></td><td valign="middle"><a href="http://res.feedsportal.com/viral/bookmark.cfm?title=Open+source+audio+frameworks+for+iOS&amp;link=http\u005c%3A\u005c%2F\u005c%2Fwww.h-online.com\u005c%2Fopen\u005c%2Fnews\u005c%2Fitem\u005c%2FOpen-source-audio-frameworks-for-iOS-1826785.html\u005c%2Ffrom\u005c%2Frss" target="_blank"><img border="0" src="http://res3.feedsportal.com/images/bookmark.gif" /></a></td></tr></table></div><br /><br /><a href="http://da.feedsportal.com/r/161393820830/u/0/f/491735/c/32569/s/29cb6bbe/a2.htm"><img border="0" src="http://da.feedsportal.com/r/161393820830/u/0/f/491735/c/32569/s/29cb6bbe/a2.img" /></a><img border="0" height="1" src="http://pi.feedsportal.com/r/161393820830/u/0/f/491735/c/32569/s/29cb6bbe/a2t.img" width="1" />
p409
sg69
I00
sS'title_detail'
p410
g1
(g2
g3
(dp411
g32
Vhttp://rss.feedsportal.com/c/32569/f/491735/index.rss
p412
sg25
g40
sg11
Nsg35
g408
stRp413
sg42
g405
sg18
VWed, 20 Mar 2013 16:58:00 GMT
p414
sg75
(lp415
g77
aV*
ag78
asg79
Vhttp://www.h-online.com/open/news/item/Open-source-audio-frameworks-for-iOS-1826785.html/from/rss
p416
stRp417
ag1
(g2
g3
(dp418
S'summary_detail'
p419
g1
(g2
g3
(dp420
g32
Vhttp://rss.feedsportal.com/c/32569/f/491735/index.rss
p421
sg25
g34
sg11
Nsg35
VYorba has released new versions of its Shotwell photo manager application and the Geary email client. Shotwell 0.14 includes improvements to its RAW processing workflow and Geary 0.3 adds several usability features<img border="0" height="1" src="http://rss.feedsportal.com/c/32569/f/491735/s/29ca2c76/mf.gif" width="1" /><div class="mf-viral"><table border="0"><tr><td valign="middle"><a href="http://share.feedsportal.com/viral/sendEmail.cfm?lang=en&amp;title=Yorba+releases+Shotwell+0.14+and+Geary+0.3&amp;link=http%3A%2F%2Fwww.h-online.com%2Fopen%2Fnews%2Fitem%2FYorba-releases-Shotwell-0-14-and-Geary-0-3-1826681.html%2Ffrom%2Frss" target="_blank"><img border="0" src="http://res3.feedsportal.com/images/emailthis2.gif" /></a></td><td valign="middle"><a href="http://res.feedsportal.com/viral/bookmark.cfm?title=Yorba+releases+Shotwell+0.14+and+Geary+0.3&amp;link=http%3A%2F%2Fwww.h-online.com%2Fopen%2Fnews%2Fitem%2FYorba-releases-Shotwell-0-14-and-Geary-0-3-1826681.html%2Ffrom%2Frss" target="_blank"><img border="0" src="http://res3.feedsportal.com/images/bookmark.gif" /></a></td></tr></table></div><br /><br /><a href="http://da.feedsportal.com/r/161393817973/u/0/f/491735/c/32569/s/29ca2c76/a2.htm"><img border="0" src="http://da.feedsportal.com/r/161393817973/u/0/f/491735/c/32569/s/29ca2c76/a2.img" /></a><img border="0" height="1" src="http://pi.feedsportal.com/r/161393817973/u/0/f/491735/c/32569/s/29ca2c76/a2t.img" width="1" />
p422
stRp423
sg20
(lp424
g1
(g2
g3
(dp425
g23
Vhttp://rss.feedsportal.com/c/32569/f/491735/s/29ca2c76/l/0L0Sh0Eonline0N0Copen0Cnews0Citem0CYorba0Ereleases0EShotwell0E0A0E140Eand0EGeary0E0A0E30E18266810Bhtml0Cfrom0Crss/story01.htm
p426
sg25
g26
sg27
g28
stRp427
asg13
g14
((I2013
I3
I20
I15
I30
I0
I2
I79
I0
t(dtRp428
sg16
VYorba releases Shotwell 0.14 and Geary 0.3
p429
sg67
VYorba has released new versions of its Shotwell photo manager application and the Geary email client. Shotwell 0.14 includes improvements to its RAW processing workflow and Geary 0.3 adds several usability features<img border="0" height="1" src="http://rss.feedsportal.com/c/32569/f/491735/s/29ca2c76/mf.gif" width="1" /><div class="mf-viral"><table border="0"><tr><td valign="middle"><a href="http://share.feedsportal.com/viral/sendEmail.cfm?lang=en&amp;title=Yorba+releases+Shotwell+0.14+and+Geary+0.3&amp;link=http\u005c%3A\u005c%2F\u005c%2Fwww.h-online.com\u005c%2Fopen\u005c%2Fnews\u005c%2Fitem\u005c%2FYorba-releases-Shotwell-0-14-and-Geary-0-3-1826681.html\u005c%2Ffrom\u005c%2Frss" target="_blank"><img border="0" src="http://res3.feedsportal.com/images/emailthis2.gif" /></a></td><td valign="middle"><a href="http://res.feedsportal.com/viral/bookmark.cfm?title=Yorba+releases+Shotwell+0.14+and+Geary+0.3&amp;link=http\u005c%3A\u005c%2F\u005c%2Fwww.h-online.com\u005c%2Fopen\u005c%2Fnews\u005c%2Fitem\u005c%2FYorba-releases-Shotwell-0-14-and-Geary-0-3-1826681.html\u005c%2Ffrom\u005c%2Frss" target="_blank"><img border="0" src="http://res3.feedsportal.com/images/bookmark.gif" /></a></td></tr></table></div><br /><br /><a href="http://da.feedsportal.com/r/161393817973/u/0/f/491735/c/32569/s/29ca2c76/a2.htm"><img border="0" src="http://da.feedsportal.com/r/161393817973/u/0/f/491735/c/32569/s/29ca2c76/a2.img" /></a><img border="0" height="1" src="http://pi.feedsportal.com/r/161393817973/u/0/f/491735/c/32569/s/29ca2c76/a2t.img" width="1" />
p430
sg69
I00
sS'title_detail'
p431
g1
(g2
g3
(dp432
g32
Vhttp://rss.feedsportal.com/c/32569/f/491735/index.rss
p433
sg25
g40
sg11
Nsg35
g429
stRp434
sg42
g426
sg18
VWed, 20 Mar 2013 15:30:00 GMT
p435
sg75
(lp436
g77
aV*
ag78
asg79
Vhttp://www.h-online.com/open/news/item/Yorba-releases-Shotwell-0-14-and-Geary-0-3-1826681.html/from/rss
p437
stRp438
ag1
(g2
g3
(dp439
S'summary_detail'
p440
g1
(g2
g3
(dp441
g32
Vhttp://rss.feedsportal.com/c/32569/f/491735/index.rss
p442
sg25
g34
sg11
Nsg35
VSome confusion over intellectual property requirements made the initial launch of Nick Downie's Chart.js a bit of a false start. The HTML5/JavaScript chart creation library is now back on the web<img border="0" height="1" src="http://rss.feedsportal.com/c/32569/f/491735/s/29c9f050/mf.gif" width="1" /><div class="mf-viral"><table border="0"><tr><td valign="middle"><a href="http://share.feedsportal.com/viral/sendEmail.cfm?lang=en&amp;title=Chart.js+available%2C+after+a+false+start&amp;link=http%3A%2F%2Fwww.h-online.com%2Fopen%2Fnews%2Fitem%2FChart-js-available-after-a-false-start-1826669.html%2Ffrom%2Frss" target="_blank"><img border="0" src="http://res3.feedsportal.com/images/emailthis2.gif" /></a></td><td valign="middle"><a href="http://res.feedsportal.com/viral/bookmark.cfm?title=Chart.js+available%2C+after+a+false+start&amp;link=http%3A%2F%2Fwww.h-online.com%2Fopen%2Fnews%2Fitem%2FChart-js-available-after-a-false-start-1826669.html%2Ffrom%2Frss" target="_blank"><img border="0" src="http://res3.feedsportal.com/images/bookmark.gif" /></a></td></tr></table></div><br /><br /><a href="http://da.feedsportal.com/r/161393859273/u/0/f/491735/c/32569/s/29c9f050/a2.htm"><img border="0" src="http://da.feedsportal.com/r/161393859273/u/0/f/491735/c/32569/s/29c9f050/a2.img" /></a><img border="0" height="1" src="http://pi.feedsportal.com/r/161393859273/u/0/f/491735/c/32569/s/29c9f050/a2t.img" width="1" />
p443
stRp444
sg20
(lp445
g1
(g2
g3
(dp446
g23
Vhttp://rss.feedsportal.com/c/32569/f/491735/s/29c9f050/l/0L0Sh0Eonline0N0Copen0Cnews0Citem0CChart0Ejs0Eavailable0Eafter0Ea0Efalse0Estart0E18266690Bhtml0Cfrom0Crss/story01.htm
p447
sg25
g26
sg27
g28
stRp448
asg13
g14
((I2013
I3
I20
I15
I11
I0
I2
I79
I0
t(dtRp449
sg16
VChart.js available, after a false start
p450
sg67
VSome confusion over intellectual property requirements made the initial launch of Nick Downie's Chart.js a bit of a false start. The HTML5/JavaScript chart creation library is now back on the web<img border="0" height="1" src="http://rss.feedsportal.com/c/32569/f/491735/s/29c9f050/mf.gif" width="1" /><div class="mf-viral"><table border="0"><tr><td valign="middle"><a href="http://share.feedsportal.com/viral/sendEmail.cfm?lang=en&amp;title=Chart.js+available\u005c%2C+after+a+false+start&amp;link=http\u005c%3A\u005c%2F\u005c%2Fwww.h-online.com\u005c%2Fopen\u005c%2Fnews\u005c%2Fitem\u005c%2FChart-js-available-after-a-false-start-1826669.html\u005c%2Ffrom\u005c%2Frss" target="_blank"><img border="0" src="http://res3.feedsportal.com/images/emailthis2.gif" /></a></td><td valign="middle"><a href="http://res.feedsportal.com/viral/bookmark.cfm?title=Chart.js+available\u005c%2C+after+a+false+start&amp;link=http\u005c%3A\u005c%2F\u005c%2Fwww.h-online.com\u005c%2Fopen\u005c%2Fnews\u005c%2Fitem\u005c%2FChart-js-available-after-a-false-start-1826669.html\u005c%2Ffrom\u005c%2Frss" target="_blank"><img border="0" src="http://res3.feedsportal.com/images/bookmark.gif" /></a></td></tr></table></div><br /><br /><a href="http://da.feedsportal.com/r/161393859273/u/0/f/491735/c/32569/s/29c9f050/a2.htm"><img border="0" src="http://da.feedsportal.com/r/161393859273/u/0/f/491735/c/32569/s/29c9f050/a2.img" /></a><img border="0" height="1" src="http://pi.feedsportal.com/r/161393859273/u/0/f/491735/c/32569/s/29c9f050/a2t.img" width="1" />
p451
sg69
I00
sS'title_detail'
p452
g1
(g2
g3
(dp453
g32
Vhttp://rss.feedsportal.com/c/32569/f/491735/index.rss
p454
sg25
g40
sg11
Nsg35
g450
stRp455
sg42
g447
sg18
VWed, 20 Mar 2013 15:11:00 GMT
p456
sg75
(lp457
g77
aV*
ag78
asg79
Vhttp://www.h-online.com/open/news/item/Chart-js-available-after-a-false-start-1826669.html/from/rss
p458
stRp459
ag1
(g2
g3
(dp460
S'summary_detail'
p461
g1
(g2
g3
(dp462
g32
Vhttp://rss.feedsportal.com/c/32569/f/491735/index.rss
p463
sg25
g34
sg11
Nsg35
VOX App Suite is to expand with OX Text, a collaborative document editor which works with DOCX and ODT documents natively on the web and intelligently avoids damaging complex document content it isn't able to edit<img border="0" height="1" src="http://rss.feedsportal.com/c/32569/f/491735/s/29c88945/mf.gif" width="1" /><div class="mf-viral"><table border="0"><tr><td valign="middle"><a href="http://share.feedsportal.com/viral/sendEmail.cfm?lang=en&amp;title=OX+Text+offers+open+source+collaborative+DOCX%2FODT+editing&amp;link=http%3A%2F%2Fwww.h-online.com%2Fopen%2Fnews%2Fitem%2FOX-Text-offers-open-source-collaborative-DOCX-ODT-editing-1826451.html%2Ffrom%2Frss" target="_blank"><img border="0" src="http://res3.feedsportal.com/images/emailthis2.gif" /></a></td><td valign="middle"><a href="http://res.feedsportal.com/viral/bookmark.cfm?title=OX+Text+offers+open+source+collaborative+DOCX%2FODT+editing&amp;link=http%3A%2F%2Fwww.h-online.com%2Fopen%2Fnews%2Fitem%2FOX-Text-offers-open-source-collaborative-DOCX-ODT-editing-1826451.html%2Ffrom%2Frss" target="_blank"><img border="0" src="http://res3.feedsportal.com/images/bookmark.gif" /></a></td></tr></table></div><br /><br /><a href="http://da.feedsportal.com/r/161393854032/u/0/f/491735/c/32569/s/29c88945/a2.htm"><img border="0" src="http://da.feedsportal.com/r/161393854032/u/0/f/491735/c/32569/s/29c88945/a2.img" /></a><img border="0" height="1" src="http://pi.feedsportal.com/r/161393854032/u/0/f/491735/c/32569/s/29c88945/a2t.img" width="1" />
p464
stRp465
sg20
(lp466
g1
(g2
g3
(dp467
g23
Vhttp://rss.feedsportal.com/c/32569/f/491735/s/29c88945/l/0L0Sh0Eonline0N0Copen0Cnews0Citem0COX0EText0Eoffers0Eopen0Esource0Ecollaborative0EDOCX0EODT0Eediting0E18264510Bhtml0Cfrom0Crss/story01.htm
p468
sg25
g26
sg27
g28
stRp469
asg13
g14
((I2013
I3
I20
I12
I45
I0
I2
I79
I0
t(dtRp470
sg16
VOX Text offers open source collaborative DOCX/ODT editing
p471
sg67
VOX App Suite is to expand with OX Text, a collaborative document editor which works with DOCX and ODT documents natively on the web and intelligently avoids damaging complex document content it isn't able to edit<img border="0" height="1" src="http://rss.feedsportal.com/c/32569/f/491735/s/29c88945/mf.gif" width="1" /><div class="mf-viral"><table border="0"><tr><td valign="middle"><a href="http://share.feedsportal.com/viral/sendEmail.cfm?lang=en&amp;title=OX+Text+offers+open+source+collaborative+DOCX\u005c%2FODT+editing&amp;link=http\u005c%3A\u005c%2F\u005c%2Fwww.h-online.com\u005c%2Fopen\u005c%2Fnews\u005c%2Fitem\u005c%2FOX-Text-offers-open-source-collaborative-DOCX-ODT-editing-1826451.html\u005c%2Ffrom\u005c%2Frss" target="_blank"><img border="0" src="http://res3.feedsportal.com/images/emailthis2.gif" /></a></td><td valign="middle"><a href="http://res.feedsportal.com/viral/bookmark.cfm?title=OX+Text+offers+open+source+collaborative+DOCX\u005c%2FODT+editing&amp;link=http\u005c%3A\u005c%2F\u005c%2Fwww.h-online.com\u005c%2Fopen\u005c%2Fnews\u005c%2Fitem\u005c%2FOX-Text-offers-open-source-collaborative-DOCX-ODT-editing-1826451.html\u005c%2Ffrom\u005c%2Frss" target="_blank"><img border="0" src="http://res3.feedsportal.com/images/bookmark.gif" /></a></td></tr></table></div><br /><br /><a href="http://da.feedsportal.com/r/161393854032/u/0/f/491735/c/32569/s/29c88945/a2.htm"><img border="0" src="http://da.feedsportal.com/r/161393854032/u/0/f/491735/c/32569/s/29c88945/a2.img" /></a><img border="0" height="1" src="http://pi.feedsportal.com/r/161393854032/u/0/f/491735/c/32569/s/29c88945/a2t.img" width="1" />
p472
sg69
I00
sS'title_detail'
p473
g1
(g2
g3
(dp474
g32
Vhttp://rss.feedsportal.com/c/32569/f/491735/index.rss
p475
sg25
g40
sg11
Nsg35
g471
stRp476
sg42
g468
sg18
VWed, 20 Mar 2013 12:45:00 GMT
p477
sg75
(lp478
g77
aV*
ag78
asg79
Vhttp://www.h-online.com/open/news/item/OX-Text-offers-open-source-collaborative-DOCX-ODT-editing-1826451.html/from/rss
p479
stRp480
ag1
(g2
g3
(dp481
S'summary_detail'
p482
g1
(g2
g3
(dp483
g32
Vhttp://rss.feedsportal.com/c/32569/f/491735/index.rss
p484
sg25
g34
sg11
Nsg35
VIn this edition: SQLite 3.7.16, Fluendo Codec Pack for GStreamer 1.0, RethinkDB 1.4, the Netflix Cloud Prize and IPFire 2.13 Core Update 67<img border="0" height="1" src="http://rss.feedsportal.com/c/32569/f/491735/s/29c85da1/mf.gif" width="1" /><div class="mf-viral"><table border="0"><tr><td valign="middle"><a href="http://share.feedsportal.com/viral/sendEmail.cfm?lang=en&amp;title=Open+Recall%3A+SQLite%2C+Fluendo+codecs+and+the+Netflix+Cloud+Prize&amp;link=http%3A%2F%2Fwww.h-online.com%2Fopen%2Fnews%2Fitem%2FOpen-Recall-SQLite-Fluendo-codecs-and-the-Netflix-Cloud-Prize-1826010.html%2Ffrom%2Frss" target="_blank"><img border="0" src="http://res3.feedsportal.com/images/emailthis2.gif" /></a></td><td valign="middle"><a href="http://res.feedsportal.com/viral/bookmark.cfm?title=Open+Recall%3A+SQLite%2C+Fluendo+codecs+and+the+Netflix+Cloud+Prize&amp;link=http%3A%2F%2Fwww.h-online.com%2Fopen%2Fnews%2Fitem%2FOpen-Recall-SQLite-Fluendo-codecs-and-the-Netflix-Cloud-Prize-1826010.html%2Ffrom%2Frss" target="_blank"><img border="0" src="http://res3.feedsportal.com/images/bookmark.gif" /></a></td></tr></table></div><br /><br /><a href="http://da.feedsportal.com/r/161393674327/u/0/f/491735/c/32569/s/29c85da1/a2.htm"><img border="0" src="http://da.feedsportal.com/r/161393674327/u/0/f/491735/c/32569/s/29c85da1/a2.img" /></a><img border="0" height="1" src="http://pi.feedsportal.com/r/161393674327/u/0/f/491735/c/32569/s/29c85da1/a2t.img" width="1" />
p485
stRp486
sg20
(lp487
g1
(g2
g3
(dp488
g23
Vhttp://rss.feedsportal.com/c/32569/f/491735/s/29c85da1/l/0L0Sh0Eonline0N0Copen0Cnews0Citem0COpen0ERecall0ESQLite0EFluendo0Ecodecs0Eand0Ethe0ENetflix0ECloud0EPrize0E18260A10A0Bhtml0Cfrom0Crss/story01.htm
p489
sg25
g26
sg27
g28
stRp490
asg13
g14
((I2013
I3
I20
I12
I25
I0
I2
I79
I0
t(dtRp491
sg16
VOpen Recall: SQLite, Fluendo codecs and the Netflix Cloud Prize
p492
sg67
VIn this edition: SQLite 3.7.16, Fluendo Codec Pack for GStreamer 1.0, RethinkDB 1.4, the Netflix Cloud Prize and IPFire 2.13 Core Update 67<img border="0" height="1" src="http://rss.feedsportal.com/c/32569/f/491735/s/29c85da1/mf.gif" width="1" /><div class="mf-viral"><table border="0"><tr><td valign="middle"><a href="http://share.feedsportal.com/viral/sendEmail.cfm?lang=en&amp;title=Open+Recall\u005c%3A+SQLite\u005c%2C+Fluendo+codecs+and+the+Netflix+Cloud+Prize&amp;link=http\u005c%3A\u005c%2F\u005c%2Fwww.h-online.com\u005c%2Fopen\u005c%2Fnews\u005c%2Fitem\u005c%2FOpen-Recall-SQLite-Fluendo-codecs-and-the-Netflix-Cloud-Prize-1826010.html\u005c%2Ffrom\u005c%2Frss" target="_blank"><img border="0" src="http://res3.feedsportal.com/images/emailthis2.gif" /></a></td><td valign="middle"><a href="http://res.feedsportal.com/viral/bookmark.cfm?title=Open+Recall\u005c%3A+SQLite\u005c%2C+Fluendo+codecs+and+the+Netflix+Cloud+Prize&amp;link=http\u005c%3A\u005c%2F\u005c%2Fwww.h-online.com\u005c%2Fopen\u005c%2Fnews\u005c%2Fitem\u005c%2FOpen-Recall-SQLite-Fluendo-codecs-and-the-Netflix-Cloud-Prize-1826010.html\u005c%2Ffrom\u005c%2Frss" target="_blank"><img border="0" src="http://res3.feedsportal.com/images/bookmark.gif" /></a></td></tr></table></div><br /><br /><a href="http://da.feedsportal.com/r/161393674327/u/0/f/491735/c/32569/s/29c85da1/a2.htm"><img border="0" src="http://da.feedsportal.com/r/161393674327/u/0/f/491735/c/32569/s/29c85da1/a2.img" /></a><img border="0" height="1" src="http://pi.feedsportal.com/r/161393674327/u/0/f/491735/c/32569/s/29c85da1/a2t.img" width="1" />
p493
sg69
I00
sS'title_detail'
p494
g1
(g2
g3
(dp495
g32
Vhttp://rss.feedsportal.com/c/32569/f/491735/index.rss
p496
sg25
g40
sg11
Nsg35
g492
stRp497
sg42
g489
sg18
VWed, 20 Mar 2013 12:25:00 GMT
p498
sg75
(lp499
g77
aV*
ag78
asg79
Vhttp://www.h-online.com/open/news/item/Open-Recall-SQLite-Fluendo-codecs-and-the-Netflix-Cloud-Prize-1826010.html/from/rss
p500
stRp501
ag1
(g2
g3
(dp502
S'summary_detail'
p503
g1
(g2
g3
(dp504
g32
Vhttp://rss.feedsportal.com/c/32569/f/491735/index.rss
p505
sg25
g34
sg11
Nsg35
VVersion 2.0 of Pharo brings improvements including the integration of the new Spotlight search system, a new user interface framework and the Nautilus method browser<img border="0" height="1" src="http://rss.feedsportal.com/c/32569/f/491735/s/29c6ce22/mf.gif" width="1" /><div class="mf-viral"><table border="0"><tr><td valign="middle"><a href="http://share.feedsportal.com/viral/sendEmail.cfm?lang=en&amp;title=Pharo+2.0+shines+light+on+hundreds+of+improvements&amp;link=http%3A%2F%2Fwww.h-online.com%2Fopen%2Fnews%2Fitem%2FPharo-2-0-shines-light-on-hundreds-of-improvements-1826288.html%2Ffrom%2Frss" target="_blank"><img border="0" src="http://res3.feedsportal.com/images/emailthis2.gif" /></a></td><td valign="middle"><a href="http://res.feedsportal.com/viral/bookmark.cfm?title=Pharo+2.0+shines+light+on+hundreds+of+improvements&amp;link=http%3A%2F%2Fwww.h-online.com%2Fopen%2Fnews%2Fitem%2FPharo-2-0-shines-light-on-hundreds-of-improvements-1826288.html%2Ffrom%2Frss" target="_blank"><img border="0" src="http://res3.feedsportal.com/images/bookmark.gif" /></a></td></tr></table></div><br /><br /><a href="http://da.feedsportal.com/r/159490829996/u/0/f/491735/c/32569/s/29c6ce22/kg/355/a2.htm"><img border="0" src="http://da.feedsportal.com/r/159490829996/u/0/f/491735/c/32569/s/29c6ce22/kg/355/a2.img" /></a><img border="0" height="1" src="http://pi.feedsportal.com/r/159490829996/u/0/f/491735/c/32569/s/29c6ce22/kg/355/a2t.img" width="1" />
p506
stRp507
sg20
(lp508
g1
(g2
g3
(dp509
g23
Vhttp://rss.feedsportal.com/c/32569/f/491735/s/29c6ce22/l/0L0Sh0Eonline0N0Copen0Cnews0Citem0CPharo0E20E0A0Eshines0Elight0Eon0Ehundreds0Eof0Eimprovements0E18262880Bhtml0Cfrom0Crss/story01.htm
p510
sg25
g26
sg27
g28
stRp511
asg13
g14
((I2013
I3
I20
I10
I54
I0
I2
I79
I0
t(dtRp512
sg16
VPharo 2.0 shines light on hundreds of improvements
p513
sg67
VVersion 2.0 of Pharo brings improvements including the integration of the new Spotlight search system, a new user interface framework and the Nautilus method browser<img border="0" height="1" src="http://rss.feedsportal.com/c/32569/f/491735/s/29c6ce22/mf.gif" width="1" /><div class="mf-viral"><table border="0"><tr><td valign="middle"><a href="http://share.feedsportal.com/viral/sendEmail.cfm?lang=en&amp;title=Pharo+2.0+shines+light+on+hundreds+of+improvements&amp;link=http\u005c%3A\u005c%2F\u005c%2Fwww.h-online.com\u005c%2Fopen\u005c%2Fnews\u005c%2Fitem\u005c%2FPharo-2-0-shines-light-on-hundreds-of-improvements-1826288.html\u005c%2Ffrom\u005c%2Frss" target="_blank"><img border="0" src="http://res3.feedsportal.com/images/emailthis2.gif" /></a></td><td valign="middle"><a href="http://res.feedsportal.com/viral/bookmark.cfm?title=Pharo+2.0+shines+light+on+hundreds+of+improvements&amp;link=http\u005c%3A\u005c%2F\u005c%2Fwww.h-online.com\u005c%2Fopen\u005c%2Fnews\u005c%2Fitem\u005c%2FPharo-2-0-shines-light-on-hundreds-of-improvements-1826288.html\u005c%2Ffrom\u005c%2Frss" target="_blank"><img border="0" src="http://res3.feedsportal.com/images/bookmark.gif" /></a></td></tr></table></div><br /><br /><a href="http://da.feedsportal.com/r/159490829996/u/0/f/491735/c/32569/s/29c6ce22/kg/355/a2.htm"><img border="0" src="http://da.feedsportal.com/r/159490829996/u/0/f/491735/c/32569/s/29c6ce22/kg/355/a2.img" /></a><img border="0" height="1" src="http://pi.feedsportal.com/r/159490829996/u/0/f/491735/c/32569/s/29c6ce22/kg/355/a2t.img" width="1" />
p514
sg69
I00
sS'title_detail'
p515
g1
(g2
g3
(dp516
g32
Vhttp://rss.feedsportal.com/c/32569/f/491735/index.rss
p517
sg25
g40
sg11
Nsg35
g513
stRp518
sg42
g510
sg18
VWed, 20 Mar 2013 10:54:00 GMT
p519
sg75
(lp520
g77
aV*
ag78
asg79
Vhttp://www.h-online.com/open/news/item/Pharo-2-0-shines-light-on-hundreds-of-improvements-1826288.html/from/rss
p521
stRp522
ag1
(g2
g3
(dp523
S'summary_detail'
p524
g1
(g2
g3
(dp525
g32
Vhttp://rss.feedsportal.com/c/32569/f/491735/index.rss
p526
sg25
g34
sg11
Nsg35
VText indexing and searching, hash-based sharding, GeoJSON, modular authentication, a V8 JavaScript engine and performance optimisations are all part of the latest update to the popular NoSQL database<img border="0" height="1" src="http://rss.feedsportal.com/c/32569/f/491735/s/29bf67f9/mf.gif" width="1" /><div class="mf-viral"><table border="0"><tr><td valign="middle"><a href="http://share.feedsportal.com/viral/sendEmail.cfm?lang=en&amp;title=MongoDB+2.4+can+now+search+text&amp;link=http%3A%2F%2Fwww.h-online.com%2Fopen%2Fnews%2Fitem%2FMongoDB-2-4-can-now-search-text-1826030.html%2Ffrom%2Frss" target="_blank"><img border="0" src="http://res3.feedsportal.com/images/emailthis2.gif" /></a></td><td valign="middle"><a href="http://res.feedsportal.com/viral/bookmark.cfm?title=MongoDB+2.4+can+now+search+text&amp;link=http%3A%2F%2Fwww.h-online.com%2Fopen%2Fnews%2Fitem%2FMongoDB-2-4-can-now-search-text-1826030.html%2Ffrom%2Frss" target="_blank"><img border="0" src="http://res3.feedsportal.com/images/bookmark.gif" /></a></td></tr></table></div><br /><br /><a href="http://da.feedsportal.com/r/159490399476/u/0/f/491735/c/32569/s/29bf67f9/a2.htm"><img border="0" src="http://da.feedsportal.com/r/159490399476/u/0/f/491735/c/32569/s/29bf67f9/a2.img" /></a><img border="0" height="1" src="http://pi.feedsportal.com/r/159490399476/u/0/f/491735/c/32569/s/29bf67f9/a2t.img" width="1" />
p527
stRp528
sg20
(lp529
g1
(g2
g3
(dp530
g23
Vhttp://rss.feedsportal.com/c/32569/f/491735/s/29bf67f9/l/0L0Sh0Eonline0N0Copen0Cnews0Citem0CMongoDB0E20E40Ecan0Enow0Esearch0Etext0E18260A30A0Bhtml0Cfrom0Crss/story01.htm
p531
sg25
g26
sg27
g28
stRp532
asg13
g14
((I2013
I3
I19
I17
I22
I0
I1
I78
I0
t(dtRp533
sg16
VMongoDB 2.4 can now search text
p534
sg67
VText indexing and searching, hash-based sharding, GeoJSON, modular authentication, a V8 JavaScript engine and performance optimisations are all part of the latest update to the popular NoSQL database<img border="0" height="1" src="http://rss.feedsportal.com/c/32569/f/491735/s/29bf67f9/mf.gif" width="1" /><div class="mf-viral"><table border="0"><tr><td valign="middle"><a href="http://share.feedsportal.com/viral/sendEmail.cfm?lang=en&amp;title=MongoDB+2.4+can+now+search+text&amp;link=http\u005c%3A\u005c%2F\u005c%2Fwww.h-online.com\u005c%2Fopen\u005c%2Fnews\u005c%2Fitem\u005c%2FMongoDB-2-4-can-now-search-text-1826030.html\u005c%2Ffrom\u005c%2Frss" target="_blank"><img border="0" src="http://res3.feedsportal.com/images/emailthis2.gif" /></a></td><td valign="middle"><a href="http://res.feedsportal.com/viral/bookmark.cfm?title=MongoDB+2.4+can+now+search+text&amp;link=http\u005c%3A\u005c%2F\u005c%2Fwww.h-online.com\u005c%2Fopen\u005c%2Fnews\u005c%2Fitem\u005c%2FMongoDB-2-4-can-now-search-text-1826030.html\u005c%2Ffrom\u005c%2Frss" target="_blank"><img border="0" src="http://res3.feedsportal.com/images/bookmark.gif" /></a></td></tr></table></div><br /><br /><a href="http://da.feedsportal.com/r/159490399476/u/0/f/491735/c/32569/s/29bf67f9/a2.htm"><img border="0" src="http://da.feedsportal.com/r/159490399476/u/0/f/491735/c/32569/s/29bf67f9/a2.img" /></a><img border="0" height="1" src="http://pi.feedsportal.com/r/159490399476/u/0/f/491735/c/32569/s/29bf67f9/a2t.img" width="1" />
p535
sg69
I00
sS'title_detail'
p536
g1
(g2
g3
(dp537
g32
Vhttp://rss.feedsportal.com/c/32569/f/491735/index.rss
p538
sg25
g40
sg11
Nsg35
g534
stRp539
sg42
g531
sg18
VTue, 19 Mar 2013 17:22:00 GMT
p540
sg75
(lp541
g77
aV*
ag78
asg79
Vhttp://www.h-online.com/open/news/item/MongoDB-2-4-can-now-search-text-1826030.html/from/rss
p542
stRp543
ag1
(g2
g3
(dp544
S'summary_detail'
p545
g1
(g2
g3
(dp546
g32
Vhttp://rss.feedsportal.com/c/32569/f/491735/index.rss
p547
sg25
g34
sg11
Nsg35
VAlthough no exploit won by reliably felling the defences of the browser and OS, the winner from last year returned with a chain of bugs and a style of attack that Google called plausible. One was a Linux kernel bug<img border="0" height="1" src="http://rss.feedsportal.com/c/32569/f/491735/s/29bf0e96/mf.gif" width="1" /><div class="mf-viral"><table border="0"><tr><td valign="middle"><a href="http://share.feedsportal.com/viral/sendEmail.cfm?lang=en&amp;title=ChromeOS+was+unreliably+exploited+at+Pwnium+2013&amp;link=http%3A%2F%2Fwww.h-online.com%2Fopen%2Fnews%2Fitem%2FChromeOS-was-unreliably-exploited-at-Pwnium-2013-1825969.html%2Ffrom%2Frss" target="_blank"><img border="0" src="http://res3.feedsportal.com/images/emailthis2.gif" /></a></td><td valign="middle"><a href="http://res.feedsportal.com/viral/bookmark.cfm?title=ChromeOS+was+unreliably+exploited+at+Pwnium+2013&amp;link=http%3A%2F%2Fwww.h-online.com%2Fopen%2Fnews%2Fitem%2FChromeOS-was-unreliably-exploited-at-Pwnium-2013-1825969.html%2Ffrom%2Frss" target="_blank"><img border="0" src="http://res3.feedsportal.com/images/bookmark.gif" /></a></td></tr></table></div><br /><br /><a href="http://da.feedsportal.com/r/159490801752/u/0/f/491735/c/32569/s/29bf0e96/a2.htm"><img border="0" src="http://da.feedsportal.com/r/159490801752/u/0/f/491735/c/32569/s/29bf0e96/a2.img" /></a><img border="0" height="1" src="http://pi.feedsportal.com/r/159490801752/u/0/f/491735/c/32569/s/29bf0e96/a2t.img" width="1" />
p548
stRp549
sg20
(lp550
g1
(g2
g3
(dp551
g23
Vhttp://rss.feedsportal.com/c/32569/f/491735/s/29bf0e96/l/0L0Sh0Eonline0N0Copen0Cnews0Citem0CChromeOS0Ewas0Eunreliably0Eexploited0Eat0EPwnium0E20A130E18259690Bhtml0Cfrom0Crss/story01.htm
p552
sg25
g26
sg27
g28
stRp553
asg13
g14
((I2013
I3
I19
I16
I2
I0
I1
I78
I0
t(dtRp554
sg16
VChromeOS was unreliably exploited at Pwnium 2013
p555
sg67
VAlthough no exploit won by reliably felling the defences of the browser and OS, the winner from last year returned with a chain of bugs and a style of attack that Google called plausible. One was a Linux kernel bug<img border="0" height="1" src="http://rss.feedsportal.com/c/32569/f/491735/s/29bf0e96/mf.gif" width="1" /><div class="mf-viral"><table border="0"><tr><td valign="middle"><a href="http://share.feedsportal.com/viral/sendEmail.cfm?lang=en&amp;title=ChromeOS+was+unreliably+exploited+at+Pwnium+2013&amp;link=http\u005c%3A\u005c%2F\u005c%2Fwww.h-online.com\u005c%2Fopen\u005c%2Fnews\u005c%2Fitem\u005c%2FChromeOS-was-unreliably-exploited-at-Pwnium-2013-1825969.html\u005c%2Ffrom\u005c%2Frss" target="_blank"><img border="0" src="http://res3.feedsportal.com/images/emailthis2.gif" /></a></td><td valign="middle"><a href="http://res.feedsportal.com/viral/bookmark.cfm?title=ChromeOS+was+unreliably+exploited+at+Pwnium+2013&amp;link=http\u005c%3A\u005c%2F\u005c%2Fwww.h-online.com\u005c%2Fopen\u005c%2Fnews\u005c%2Fitem\u005c%2FChromeOS-was-unreliably-exploited-at-Pwnium-2013-1825969.html\u005c%2Ffrom\u005c%2Frss" target="_blank"><img border="0" src="http://res3.feedsportal.com/images/bookmark.gif" /></a></td></tr></table></div><br /><br /><a href="http://da.feedsportal.com/r/159490801752/u/0/f/491735/c/32569/s/29bf0e96/a2.htm"><img border="0" src="http://da.feedsportal.com/r/159490801752/u/0/f/491735/c/32569/s/29bf0e96/a2.img" /></a><img border="0" height="1" src="http://pi.feedsportal.com/r/159490801752/u/0/f/491735/c/32569/s/29bf0e96/a2t.img" width="1" />
p556
sg69
I00
sS'title_detail'
p557
g1
(g2
g3
(dp558
g32
Vhttp://rss.feedsportal.com/c/32569/f/491735/index.rss
p559
sg25
g40
sg11
Nsg35
g555
stRp560
sg42
g552
sg18
VTue, 19 Mar 2013 16:02:00 GMT
p561
sg75
(lp562
g77
aV*
ag78
asg79
Vhttp://www.h-online.com/open/news/item/ChromeOS-was-unreliably-exploited-at-Pwnium-2013-1825969.html/from/rss
p563
stRp564
ag1
(g2
g3
(dp565
S'summary_detail'
p566
g1
(g2
g3
(dp567
g32
Vhttp://rss.feedsportal.com/c/32569/f/491735/index.rss
p568
sg25
g34
sg11
Nsg35
VOpen source projects and organisations wanting to mentor students working on their code while Google pays them need to get their applications in before the end of this month, as the Google Summer of Code process begins<img border="0" height="1" src="http://rss.feedsportal.com/c/32569/f/491735/s/29bd53b7/mf.gif" width="1" /><div class="mf-viral"><table border="0"><tr><td valign="middle"><a href="http://share.feedsportal.com/viral/sendEmail.cfm?lang=en&amp;title=Mentor+organisations+sought+for+Google+Summer+of+Code+2013&amp;link=http%3A%2F%2Fwww.h-online.com%2Fopen%2Fnews%2Fitem%2FMentor-organisations-sought-for-Google-Summer-of-Code-2013-1825747.html%2Ffrom%2Frss" target="_blank"><img border="0" src="http://res3.feedsportal.com/images/emailthis2.gif" /></a></td><td valign="middle"><a href="http://res.feedsportal.com/viral/bookmark.cfm?title=Mentor+organisations+sought+for+Google+Summer+of+Code+2013&amp;link=http%3A%2F%2Fwww.h-online.com%2Fopen%2Fnews%2Fitem%2FMentor-organisations-sought-for-Google-Summer-of-Code-2013-1825747.html%2Ffrom%2Frss" target="_blank"><img border="0" src="http://res3.feedsportal.com/images/bookmark.gif" /></a></td></tr></table></div><br /><br /><a href="http://da.feedsportal.com/r/159490997368/u/0/f/491735/c/32569/s/29bd53b7/a2.htm"><img border="0" src="http://da.feedsportal.com/r/159490997368/u/0/f/491735/c/32569/s/29bd53b7/a2.img" /></a><img border="0" height="1" src="http://pi.feedsportal.com/r/159490997368/u/0/f/491735/c/32569/s/29bd53b7/a2t.img" width="1" />
p569
stRp570
sg20
(lp571
g1
(g2
g3
(dp572
g23
Vhttp://rss.feedsportal.com/c/32569/f/491735/s/29bd53b7/l/0L0Sh0Eonline0N0Copen0Cnews0Citem0CMentor0Eorganisations0Esought0Efor0EGoogle0ESummer0Eof0ECode0E20A130E18257470Bhtml0Cfrom0Crss/story01.htm
p573
sg25
g26
sg27
g28
stRp574
asg13
g14
((I2013
I3
I19
I13
I24
I0
I1
I78
I0
t(dtRp575
sg16
VMentor organisations sought for Google Summer of Code 2013
p576
sg67
VOpen source projects and organisations wanting to mentor students working on their code while Google pays them need to get their applications in before the end of this month, as the Google Summer of Code process begins<img border="0" height="1" src="http://rss.feedsportal.com/c/32569/f/491735/s/29bd53b7/mf.gif" width="1" /><div class="mf-viral"><table border="0"><tr><td valign="middle"><a href="http://share.feedsportal.com/viral/sendEmail.cfm?lang=en&amp;title=Mentor+organisations+sought+for+Google+Summer+of+Code+2013&amp;link=http\u005c%3A\u005c%2F\u005c%2Fwww.h-online.com\u005c%2Fopen\u005c%2Fnews\u005c%2Fitem\u005c%2FMentor-organisations-sought-for-Google-Summer-of-Code-2013-1825747.html\u005c%2Ffrom\u005c%2Frss" target="_blank"><img border="0" src="http://res3.feedsportal.com/images/emailthis2.gif" /></a></td><td valign="middle"><a href="http://res.feedsportal.com/viral/bookmark.cfm?title=Mentor+organisations+sought+for+Google+Summer+of+Code+2013&amp;link=http\u005c%3A\u005c%2F\u005c%2Fwww.h-online.com\u005c%2Fopen\u005c%2Fnews\u005c%2Fitem\u005c%2FMentor-organisations-sought-for-Google-Summer-of-Code-2013-1825747.html\u005c%2Ffrom\u005c%2Frss" target="_blank"><img border="0" src="http://res3.feedsportal.com/images/bookmark.gif" /></a></td></tr></table></div><br /><br /><a href="http://da.feedsportal.com/r/159490997368/u/0/f/491735/c/32569/s/29bd53b7/a2.htm"><img border="0" src="http://da.feedsportal.com/r/159490997368/u/0/f/491735/c/32569/s/29bd53b7/a2.img" /></a><img border="0" height="1" src="http://pi.feedsportal.com/r/159490997368/u/0/f/491735/c/32569/s/29bd53b7/a2t.img" width="1" />
p577
sg69
I00
sS'title_detail'
p578
g1
(g2
g3
(dp579
g32
Vhttp://rss.feedsportal.com/c/32569/f/491735/index.rss
p580
sg25
g40
sg11
Nsg35
g576
stRp581
sg42
g573
sg18
VTue, 19 Mar 2013 13:24:00 GMT
p582
sg75
(lp583
g77
aV*
ag78
asg79
Vhttp://www.h-online.com/open/news/item/Mentor-organisations-sought-for-Google-Summer-of-Code-2013-1825747.html/from/rss
p584
stRp585
asS'canto_update'
p586
F1364190531.0095811
sS'headers'
p587
(dp588
S'content-length'
p589
S'51853'
p590
sS'set-cookie'
p591
S'MF2=e1ip7275gup0; domain=.feedsportal.com; expires=Wed, 25-Mar-15 05:47:51 GMT; path=/'
p592
sS'server'
p593
S'FeedsPortal'
p594
sS'last-modified'
p595
g48
sS'connection'
p596
S'close'
p597
sS'etag'
p598
S'1364039940000'
p599
sS'date'
p600
S'Mon, 25 Mar 2013 05:47:50 GMT'
p601
sS'content-type'
p602
S'text/xml;charset=UTF-8'
p603
ssS'etag'
p604
V1364039940000
p605
sg75
(lp606
sg23
Vhttp://rss.feedsportal.com/c/32569/f/491735/index.rss
p607
sS'version'
p608
Vrss20
p609
sS'canto_version'
p610
(I0
I7
I10
tp611
sS'namespaces'
p612
(dp613
S'itunes'
p614
Vhttp://www.itunes.com/dtds/podcast-1.0.dtd
p615
sS'rdf'
p616
Vhttp://www.w3.org/1999/02/22-rdf-syntax-ns#
p617
sS'dc'
p618
Vhttp://purl.org/dc/elements/1.1/
p619
sS'taxo'
p620
Vhttp://purl.org/rss/1.0/modules/taxonomy/
p621
sstRp622
.