ccopy_reg
_reconstructor
p1
(cfeedparser
FeedParserDict
p2
c__builtin__
dict
p3
(dp4
S'feed'
p5
g1
(g2
g3
(dp6
S'updated'
p7
V2013-03-25T05:53:40Z
p8
sS'updated_parsed'
p9
ctime
struct_time
p10
((I2013
I3
I25
I5
I53
I40
I0
I84
I0
t(dtRp11
sS'links'
p12
(lp13
g1
(g2
g3
(dp14
S'href'
p15
Vhttp://code.google.com/feeds/p/gogglesmm/updates/basic
p16
sS'type'
p17
Vapplication/atom+xml;type=feed
p18
sS'rel'
p19
Vself
p20
stRp21
ag1
(g2
g3
(dp22
S'href'
p23
Vhttp://code.google.com/p/gogglesmm/updates/list
p24
sS'type'
p25
Vtext/html
p26
sS'rel'
p27
Valternate
p28
stRp29
asS'title'
p30
Vgogglesmm project updates - Google Code
p31
sS'guidislink'
p32
I01
sS'title_detail'
p33
g1
(g2
g3
(dp34
S'base'
p35
Vhttp://code.google.com/feeds/p/gogglesmm/updates/basic
p36
sS'type'
p37
Vtext/plain
p38
sS'language'
p39
NsS'value'
p40
g31
stRp41
sS'link'
p42
g24
sS'id'
p43
Vhttp://code.google.com/feeds/p/gogglesmm/updates/basic
p44
stRp45
sS'status'
p46
I200
sS'encoding'
p47
VUTF-8
p48
sS'bozo'
p49
I0
sS'entries'
p50
(lp51
sS'canto_update'
p52
F1364190820.9358311
sS'headers'
p53
(dp54
S'x-xss-protection'
p55
S'1; mode=block'
p56
sS'x-content-type-options'
p57
S'nosniff'
p58
sS'set-cookie'
p59
S'PREF=ID=3bf5419e5e8de949:TM=1364190820:LM=1364190820:S=WwhHk8cextIcMYtB; expires=Wed, 25-Mar-2015 05:53:40 GMT; path=/; domain=.google.com'
p60
sS'expires'
p61
S'Fri, 01 Jan 1990 00:00:00 GMT'
p62
sS'server'
p63
S'codesite_feedserver'
p64
sS'connection'
p65
S'close'
p66
sS'pragma'
p67
S'no-cache'
p68
sS'cache-control'
p69
S'no-cache, must-revalidate'
p70
sS'date'
p71
S'Mon, 25 Mar 2013 05:53:40 GMT'
p72
sS'x-frame-options'
p73
S'SAMEORIGIN'
p74
sS'content-type'
p75
S'application/atom+xml; charset=UTF-8'
p76
ssS'version'
p77
Vatom10
p78
sS'canto_state'
p79
(lp80
sS'href'
p81
Vhttp://code.google.com/feeds/p/gogglesmm/updates/basic
p82
sS'namespaces'
p83
(dp84
S''
Vhttp://www.w3.org/2005/Atom
p85
ssS'canto_version'
p86
(I0
I7
I10
tp87
stRp88
.