ccopy_reg
_reconstructor
p1
(cfeedparser
FeedParserDict
p2
c__builtin__
dict
p3
(dp4
S'feed'
p5
g1
(g2
g3
(dp6
S'title_detail'
p7
g1
(g2
g3
(dp8
S'base'
p9
Vhttp://git.mplayer2.org/mplayer2/atom/?h=master
p10
sS'type'
p11
Vtext/plain
p12
sS'language'
p13
NsS'value'
p14
Vmplayer2, branch master
p15
stRp16
sS'subtitle'
p17
Vmaster mplayer2 repository
p18
sS'links'
p19
(lp20
g1
(g2
g3
(dp21
S'href'
p22
Vhttp://git.mplayer2.org/mplayer2/
p23
sS'type'
p24
Vtext/html
p25
sS'rel'
p26
Valternate
p27
stRp28
asS'title'
p29
g15
sS'link'
p30
g23
sS'subtitle_detail'
p31
g1
(g2
g3
(dp32
g9
Vhttp://git.mplayer2.org/mplayer2/atom/?h=master
p33
sg11
Vtext/plain
p34
sg13
Nsg14
g18
stRp35
stRp36
sS'status'
p37
I200
sS'updated'
p38
S'Mon, 25 Mar 2013 05:47:40 GMT'
p39
sS'updated_parsed'
p40
ctime
struct_time
p41
((I2013
I3
I25
I5
I47
I40
I0
I84
I0
t(dtRp42
sS'encoding'
p43
Vutf-8
p44
sS'bozo'
p45
I0
sS'entries'
p46
(lp47
g1
(g2
g3
(dp48
g38
V2013-03-09T12:35:10Z
p49
sg40
g41
((I2013
I3
I9
I12
I35
I10
I5
I68
I0
t(dtRp50
sg19
(lp51
g1
(g2
g3
(dp52
S'href'
p53
Vhttp://git.mplayer2.org/mplayer2/commit/?id=9d6b188fca185968af5c62438b44dcbd2eefc47a
p54
sS'type'
p55
Vtext/html
p56
sS'rel'
p57
Valternate
p58
stRp59
asg30
g54
sS'authors'
p60
(lp61
g1
(g2
g3
(dp62
S'name'
p63
VUoti Urpala
p64
sS'email'
p65
Vuau@mplayer2.org
p66
stRp67
asS'author_detail'
p68
g1
(g2
g3
(dp69
g63
g64
sg65
g66
stRp70
sS'id'
p71
Vhttp://git.mplayer2.org/mplayer2/atom/9d6b188fca185968af5c62438b44dcbd2eefc47a
p72
sS'published_parsed'
p73
g41
((I2013
I3
I9
I11
I22
I53
I5
I68
I0
t(dtRp74
sg29
Vlibav: switch from CODEC_ID to AV_CODEC_ID
p75
sS'author'
p76
VUoti Urpala (uau@mplayer2.org)
p77
sS'summary'
p78
VLibav has dropped support for old CODEC_ID_* definitions. Switch to\u000athe new AV_CODEC_ID_* variants. Increase minimum required libavcodec\u000aversion to the one adding the AV_ variants.
p79
sS'content'
p80
(lp81
g1
(g2
g3
(dp82
g9
Vhttp://git.mplayer2.org/mplayer2/atom/?h=master
p83
sg11
Vtext/plain
p84
sg13
Nsg14
g79
stRp85
ag1
(g2
g3
(dp86
g9
Vhttp://git.mplayer2.org/mplayer2/atom/?h=master
p87
sg11
Vapplication/xhtml+xml
p88
sg13
Nsg14
V<pre>\u000aLibav has dropped support for old CODEC_ID_* definitions. Switch to\u000athe new AV_CODEC_ID_* variants. Increase minimum required libavcodec\u000aversion to the one adding the AV_ variants.\u000a</pre>
p89
stRp90
asS'guidislink'
p91
I00
sS'title_detail'
p92
g1
(g2
g3
(dp93
g9
Vhttp://git.mplayer2.org/mplayer2/atom/?h=master
p94
sg11
g12
sg13
Nsg14
g75
stRp95
sS'published'
p96
V2013-03-09T11:22:53Z
p97
sS'canto_state'
p98
(lp99
Vmplayer2, branch master
p100
aV*
aS'read'
p101
astRp102
ag1
(g2
g3
(dp103
g38
V2013-03-09T11:01:18Z
p104
sg40
g41
((I2013
I3
I9
I11
I1
I18
I5
I68
I0
t(dtRp105
sg19
(lp106
g1
(g2
g3
(dp107
S'href'
p108
Vhttp://git.mplayer2.org/mplayer2/commit/?id=38e7d68461b5345e485ce8df4d48138a545e4e2b
p109
sS'type'
p110
Vtext/html
p111
sS'rel'
p112
Valternate
p113
stRp114
asg30
g109
sg60
(lp115
g1
(g2
g3
(dp116
g63
VUoti Urpala
p117
sg65
Vuau@mplayer2.org
p118
stRp119
asS'author_detail'
p120
g1
(g2
g3
(dp121
g63
g117
sg65
g118
stRp122
sg71
Vhttp://git.mplayer2.org/mplayer2/atom/38e7d68461b5345e485ce8df4d48138a545e4e2b
p123
sg73
g41
((I2013
I3
I9
I10
I57
I30
I5
I68
I0
t(dtRp124
sg29
Vvf_uspp: drop this filter
p125
sg76
VUoti Urpala (uau@mplayer2.org)
p126
sg78
Vvf_uspp uses the Snow codec from libavcodec. Libav has dropped support\u000afor this codec. Delete the filter.
p127
sg80
(lp128
g1
(g2
g3
(dp129
g9
Vhttp://git.mplayer2.org/mplayer2/atom/?h=master
p130
sg11
g84
sg13
Nsg14
g127
stRp131
ag1
(g2
g3
(dp132
g9
Vhttp://git.mplayer2.org/mplayer2/atom/?h=master
p133
sg11
g88
sg13
Nsg14
V<pre>\u000avf_uspp uses the Snow codec from libavcodec. Libav has dropped support\u000afor this codec. Delete the filter.\u000a</pre>
p134
stRp135
asg91
I00
sS'title_detail'
p136
g1
(g2
g3
(dp137
g9
Vhttp://git.mplayer2.org/mplayer2/atom/?h=master
p138
sg11
g12
sg13
Nsg14
g125
stRp139
sg96
V2013-03-09T10:57:30Z
p140
sg98
(lp141
g100
aV*
ag101
astRp142
ag1
(g2
g3
(dp143
g38
V2013-03-04T23:37:07Z
p144
sg40
g41
((I2013
I3
I4
I23
I37
I7
I0
I63
I0
t(dtRp145
sg19
(lp146
g1
(g2
g3
(dp147
S'href'
p148
Vhttp://git.mplayer2.org/mplayer2/commit/?id=2caa171dc3d7415be4b33304779d00556aaea96d
p149
sS'type'
p150
Vtext/html
p151
sS'rel'
p152
Valternate
p153
stRp154
asg30
g149
sg60
(lp155
g1
(g2
g3
(dp156
g63
VUoti Urpala
p157
sg65
Vuau@mplayer2.org
p158
stRp159
asS'author_detail'
p160
g1
(g2
g3
(dp161
g63
g157
sg65
g158
stRp162
sg71
Vhttp://git.mplayer2.org/mplayer2/atom/2caa171dc3d7415be4b33304779d00556aaea96d
p163
sg73
g41
((I2013
I3
I4
I23
I37
I7
I0
I63
I0
t(dtRp164
sg29
Vsub: #include required ctype.h directly
p165
sg76
VUoti Urpala (uau@mplayer2.org)
p166
sg78
VInclude required ctype.h directly instead of relying on\u000alibavutil/common.h to provide it. FFmpeg removed that include; Libav\u000ahasn't so far, but relying on it was not intentional.
p167
sg80
(lp168
g1
(g2
g3
(dp169
g9
Vhttp://git.mplayer2.org/mplayer2/atom/?h=master
p170
sg11
g84
sg13
Nsg14
g167
stRp171
ag1
(g2
g3
(dp172
g9
Vhttp://git.mplayer2.org/mplayer2/atom/?h=master
p173
sg11
g88
sg13
Nsg14
V<pre>\u000aInclude required ctype.h directly instead of relying on\u000alibavutil/common.h to provide it. FFmpeg removed that include; Libav\u000ahasn't so far, but relying on it was not intentional.\u000a</pre>
p174
stRp175
asg91
I00
sS'title_detail'
p176
g1
(g2
g3
(dp177
g9
Vhttp://git.mplayer2.org/mplayer2/atom/?h=master
p178
sg11
g12
sg13
Nsg14
g165
stRp179
sg96
V2013-03-04T23:37:07Z
p180
sg98
(lp181
g100
aV*
ag101
astRp182
ag1
(g2
g3
(dp183
g38
V2013-02-21T17:50:03Z
p184
sg40
g41
((I2013
I2
I21
I17
I50
I3
I3
I52
I0
t(dtRp185
sg19
(lp186
g1
(g2
g3
(dp187
S'href'
p188
Vhttp://git.mplayer2.org/mplayer2/commit/?id=6a747169896e6d2133b0760f53ef2b9a2e6181c8
p189
sS'type'
p190
Vtext/html
p191
sS'rel'
p192
Valternate
p193
stRp194
asg30
g189
sg60
(lp195
g1
(g2
g3
(dp196
g63
VUoti Urpala
p197
sg65
Vuau@mplayer2.org
p198
stRp199
asS'author_detail'
p200
g1
(g2
g3
(dp201
g63
g197
sg65
g198
stRp202
sg71
Vhttp://git.mplayer2.org/mplayer2/atom/6a747169896e6d2133b0760f53ef2b9a2e6181c8
p203
sg73
g41
((I2013
I2
I21
I17
I50
I3
I3
I52
I0
t(dtRp204
sg29
Vsd_ass: initialize structs for external tracks properly
p205
sg76
VUoti Urpala (uau@mplayer2.org)
p206
sg78
Vsd_ass_create_from_track() did not zero-initialize the created struct\u000ash_sub, which could cause at least an assertion failure at exit. Fix.
p207
sg80
(lp208
g1
(g2
g3
(dp209
g9
Vhttp://git.mplayer2.org/mplayer2/atom/?h=master
p210
sg11
g84
sg13
Nsg14
g207
stRp211
ag1
(g2
g3
(dp212
g9
Vhttp://git.mplayer2.org/mplayer2/atom/?h=master
p213
sg11
g88
sg13
Nsg14
V<pre>\u000asd_ass_create_from_track() did not zero-initialize the created struct\u000ash_sub, which could cause at least an assertion failure at exit. Fix.\u000a</pre>
p214
stRp215
asg91
I00
sS'title_detail'
p216
g1
(g2
g3
(dp217
g9
Vhttp://git.mplayer2.org/mplayer2/atom/?h=master
p218
sg11
g12
sg13
Nsg14
g205
stRp219
sg96
V2013-02-21T17:50:03Z
p220
sg98
(lp221
g100
aV*
ag101
astRp222
ag1
(g2
g3
(dp223
g38
V2013-02-19T16:57:32Z
p224
sg40
g41
((I2013
I2
I19
I16
I57
I32
I1
I50
I0
t(dtRp225
sg19
(lp226
g1
(g2
g3
(dp227
S'href'
p228
Vhttp://git.mplayer2.org/mplayer2/commit/?id=3873a149f01e3bbd7ad5dde56c720ba3a45c3b18
p229
sS'type'
p230
Vtext/html
p231
sS'rel'
p232
Valternate
p233
stRp234
asg30
g229
sg60
(lp235
g1
(g2
g3
(dp236
g63
VUoti Urpala
p237
sg65
Vuau@mplayer2.org
p238
stRp239
asS'author_detail'
p240
g1
(g2
g3
(dp241
g63
g237
sg65
g238
stRp242
sg71
Vhttp://git.mplayer2.org/mplayer2/atom/3873a149f01e3bbd7ad5dde56c720ba3a45c3b18
p243
sg73
g41
((I2013
I2
I19
I16
I57
I32
I1
I50
I0
t(dtRp244
sg29
Vinput: avoid printing --input=cmdlist/keylist output twice
p245
sg76
VUoti Urpala (uau@mplayer2.org)
p246
sg78
VUse mp_msg() instead of printf() to print the output from\u000a--input=cmdlist and --input=keylist, which as a somewhat hacky side\u000aeffect avoids printing the output twice.
p247
sg80
(lp248
g1
(g2
g3
(dp249
g9
Vhttp://git.mplayer2.org/mplayer2/atom/?h=master
p250
sg11
g84
sg13
Nsg14
g247
stRp251
ag1
(g2
g3
(dp252
g9
Vhttp://git.mplayer2.org/mplayer2/atom/?h=master
p253
sg11
g88
sg13
Nsg14
V<pre>\u000aUse mp_msg() instead of printf() to print the output from\u000a--input=cmdlist and --input=keylist, which as a somewhat hacky side\u000aeffect avoids printing the output twice.\u000a</pre>
p254
stRp255
asg91
I00
sS'title_detail'
p256
g1
(g2
g3
(dp257
g9
Vhttp://git.mplayer2.org/mplayer2/atom/?h=master
p258
sg11
g12
sg13
Nsg14
g245
stRp259
sg96
V2013-02-19T16:57:32Z
p260
sg98
(lp261
g100
aV*
ag101
astRp262
ag1
(g2
g3
(dp263
g38
V2013-02-19T13:27:21Z
p264
sg40
g41
((I2013
I2
I19
I13
I27
I21
I1
I50
I0
t(dtRp265
sg19
(lp266
g1
(g2
g3
(dp267
S'href'
p268
Vhttp://git.mplayer2.org/mplayer2/commit/?id=dd066519f6266d562e8575bdc0a411590b573aef
p269
sS'type'
p270
Vtext/html
p271
sS'rel'
p272
Valternate
p273
stRp274
asg30
g269
sg60
(lp275
g1
(g2
g3
(dp276
g63
VUoti Urpala
p277
sg65
Vuau@mplayer2.org
p278
stRp279
asS'author_detail'
p280
g1
(g2
g3
(dp281
g63
g277
sg65
g278
stRp282
sg71
Vhttp://git.mplayer2.org/mplayer2/atom/dd066519f6266d562e8575bdc0a411590b573aef
p283
sg73
g41
((I2013
I2
I19
I13
I5
I14
I1
I50
I0
t(dtRp284
sg29
Vmp_msg: print messages to stdout, statusline to stderr
p285
sg76
VUoti Urpala (uau@mplayer2.org)
p286
sg78
VPreviously, mp_msg() printed text to either stderr or stdout depending\u000aon verbosity level (errors/warnings to stderr, rest to stdout). This\u000asplit had no significant benefits that I know of, and made capturing\u000alog output harder as you needed to capture both stdout and stderr.\u000aPrint all log output to stdout, statusline to stderr. Treat other\u000aupdated terminal output the same as statusline.
p287
sg80
(lp288
g1
(g2
g3
(dp289
g9
Vhttp://git.mplayer2.org/mplayer2/atom/?h=master
p290
sg11
g84
sg13
Nsg14
g287
stRp291
ag1
(g2
g3
(dp292
g9
Vhttp://git.mplayer2.org/mplayer2/atom/?h=master
p293
sg11
g88
sg13
Nsg14
V<pre>\u000aPreviously, mp_msg() printed text to either stderr or stdout depending\u000aon verbosity level (errors/warnings to stderr, rest to stdout). This\u000asplit had no significant benefits that I know of, and made capturing\u000alog output harder as you needed to capture both stdout and stderr.\u000aPrint all log output to stdout, statusline to stderr. Treat other\u000aupdated terminal output the same as statusline.\u000a</pre>
p294
stRp295
asg91
I00
sS'title_detail'
p296
g1
(g2
g3
(dp297
g9
Vhttp://git.mplayer2.org/mplayer2/atom/?h=master
p298
sg11
g12
sg13
Nsg14
g285
stRp299
sg96
V2013-02-19T13:05:14Z
p300
sg98
(lp301
g100
aV*
ag101
astRp302
ag1
(g2
g3
(dp303
g38
V2013-02-04T16:29:17Z
p304
sg40
g41
((I2013
I2
I4
I16
I29
I17
I0
I35
I0
t(dtRp305
sg19
(lp306
g1
(g2
g3
(dp307
S'href'
p308
Vhttp://git.mplayer2.org/mplayer2/commit/?id=7c46aeb298decd2a14dac5d35575fd679f4c6001
p309
sS'type'
p310
Vtext/html
p311
sS'rel'
p312
Valternate
p313
stRp314
asg30
g309
sg60
(lp315
g1
(g2
g3
(dp316
g63
VUoti Urpala
p317
sg65
Vuau@mplayer2.org
p318
stRp319
asS'author_detail'
p320
g1
(g2
g3
(dp321
g63
g317
sg65
g318
stRp322
sg71
Vhttp://git.mplayer2.org/mplayer2/atom/7c46aeb298decd2a14dac5d35575fd679f4c6001
p323
sg73
g41
((I2013
I2
I4
I16
I29
I17
I0
I35
I0
t(dtRp324
sg29
Vdemux_lavf: don't autoselect attached pictures as video
p325
sg76
VUoti Urpala (uau@mplayer2.org)
p326
sg78
VLibavformat exports attached cover pictures from audio files as\u000a"video" tracks. Prevent choosing such tracks as automatically shown\u000avideo tracks. Opening a video window to show these for some audio\u000afiles while other audio files play in terminal only is questionable,\u000aand these also cause technical problems with some files because they\u000ado not behave like real video tracks.
p327
sg80
(lp328
g1
(g2
g3
(dp329
g9
Vhttp://git.mplayer2.org/mplayer2/atom/?h=master
p330
sg11
g84
sg13
Nsg14
g327
stRp331
ag1
(g2
g3
(dp332
g9
Vhttp://git.mplayer2.org/mplayer2/atom/?h=master
p333
sg11
g88
sg13
Nsg14
V<pre>\u000aLibavformat exports attached cover pictures from audio files as\u000a"video" tracks. Prevent choosing such tracks as automatically shown\u000avideo tracks. Opening a video window to show these for some audio\u000afiles while other audio files play in terminal only is questionable,\u000aand these also cause technical problems with some files because they\u000ado not behave like real video tracks.\u000a</pre>
p334
stRp335
asg91
I00
sS'title_detail'
p336
g1
(g2
g3
(dp337
g9
Vhttp://git.mplayer2.org/mplayer2/atom/?h=master
p338
sg11
g12
sg13
Nsg14
g325
stRp339
sg96
V2013-02-04T16:29:17Z
p340
sg98
(lp341
g100
aV*
ag101
astRp342
ag1
(g2
g3
(dp343
g38
V2013-02-04T16:06:04Z
p344
sg40
g41
((I2013
I2
I4
I16
I6
I4
I0
I35
I0
t(dtRp345
sg19
(lp346
g1
(g2
g3
(dp347
S'href'
p348
Vhttp://git.mplayer2.org/mplayer2/commit/?id=671c39555607989ea57f85bdf5a81e5c44236767
p349
sS'type'
p350
Vtext/html
p351
sS'rel'
p352
Valternate
p353
stRp354
asg30
g349
sg60
(lp355
g1
(g2
g3
(dp356
g63
VUoti Urpala
p357
sg65
Vuau@mplayer2.org
p358
stRp359
asS'author_detail'
p360
g1
(g2
g3
(dp361
g63
g357
sg65
g358
stRp362
sg71
Vhttp://git.mplayer2.org/mplayer2/atom/671c39555607989ea57f85bdf5a81e5c44236767
p363
sg73
g41
((I2013
I2
I4
I16
I6
I4
I0
I35
I0
t(dtRp364
sg29
Vvideo: remove lowres support, cut "too slow" message
p365
sg76
VUoti Urpala (uau@mplayer2.org)
p366
sg78
VRemove support for libavcodec lowres feature. This has been removed in\u000aLibav (the field still exists but has no effect).\u000a\u000aRemove the "Possible reasons, problems, workarounds:" portion of "Your\u000asystem is too SLOW to play this" message which mentioned lowres. Most\u000aof the other contents were also wrong, obsolete, or otherwise\u000amisleading.
p367
sg80
(lp368
g1
(g2
g3
(dp369
g9
Vhttp://git.mplayer2.org/mplayer2/atom/?h=master
p370
sg11
g84
sg13
Nsg14
g367
stRp371
ag1
(g2
g3
(dp372
g9
Vhttp://git.mplayer2.org/mplayer2/atom/?h=master
p373
sg11
g88
sg13
Nsg14
V<pre>\u000aRemove support for libavcodec lowres feature. This has been removed in\u000aLibav (the field still exists but has no effect).\u000a\u000aRemove the "Possible reasons, problems, workarounds:" portion of "Your\u000asystem is too SLOW to play this" message which mentioned lowres. Most\u000aof the other contents were also wrong, obsolete, or otherwise\u000amisleading.\u000a</pre>
p374
stRp375
asg91
I00
sS'title_detail'
p376
g1
(g2
g3
(dp377
g9
Vhttp://git.mplayer2.org/mplayer2/atom/?h=master
p378
sg11
g12
sg13
Nsg14
g365
stRp379
sg96
V2013-02-04T16:06:04Z
p380
sg98
(lp381
g100
aV*
ag101
astRp382
ag1
(g2
g3
(dp383
g38
V2013-01-26T13:23:54Z
p384
sg40
g41
((I2013
I1
I26
I13
I23
I54
I5
I26
I0
t(dtRp385
sg19
(lp386
g1
(g2
g3
(dp387
S'href'
p388
Vhttp://git.mplayer2.org/mplayer2/commit/?id=d3c580156c0b8777ff082426ebd61bb7ffe0c225
p389
sS'type'
p390
Vtext/html
p391
sS'rel'
p392
Valternate
p393
stRp394
asg30
g389
sg60
(lp395
g1
(g2
g3
(dp396
g63
VUoti Urpala
p397
sg65
Vuau@mplayer2.org
p398
stRp399
asS'author_detail'
p400
g1
(g2
g3
(dp401
g63
g397
sg65
g398
stRp402
sg71
Vhttp://git.mplayer2.org/mplayer2/atom/d3c580156c0b8777ff082426ebd61bb7ffe0c225
p403
sg73
g41
((I2013
I1
I26
I13
I23
I54
I5
I26
I0
t(dtRp404
sg29
Vbuild: support 64-bit MSWindows in EXTERN_PREFIX definition
p405
sg76
VUoti Urpala (uau@mplayer2.org)
p406
sg78
VThe EXTERN_PREFIX definition added back in 7d3ccb47f9 ("configure: go\u000aback to platform-based EXTERN_PREFIX test") needs a separate case for\u000a_WIN64, as MinGW defines both that and _WIN32 but there is no prefix\u000aunlike 32-bit case.
p407
sg80
(lp408
g1
(g2
g3
(dp409
g9
Vhttp://git.mplayer2.org/mplayer2/atom/?h=master
p410
sg11
g84
sg13
Nsg14
g407
stRp411
ag1
(g2
g3
(dp412
g9
Vhttp://git.mplayer2.org/mplayer2/atom/?h=master
p413
sg11
g88
sg13
Nsg14
V<pre>\u000aThe EXTERN_PREFIX definition added back in 7d3ccb47f9 ("configure: go\u000aback to platform-based EXTERN_PREFIX test") needs a separate case for\u000a_WIN64, as MinGW defines both that and _WIN32 but there is no prefix\u000aunlike 32-bit case.\u000a</pre>
p414
stRp415
asg91
I00
sS'title_detail'
p416
g1
(g2
g3
(dp417
g9
Vhttp://git.mplayer2.org/mplayer2/atom/?h=master
p418
sg11
g12
sg13
Nsg14
g405
stRp419
sg96
V2013-01-26T13:23:54Z
p420
sg98
(lp421
g100
aV*
ag101
astRp422
ag1
(g2
g3
(dp423
g38
V2013-01-26T13:17:02Z
p424
sg40
g41
((I2013
I1
I26
I13
I17
I2
I5
I26
I0
t(dtRp425
sg19
(lp426
g1
(g2
g3
(dp427
S'href'
p428
Vhttp://git.mplayer2.org/mplayer2/commit/?id=bbadbda21be7049e06c746e0894713c04331e767
p429
sS'type'
p430
Vtext/html
p431
sS'rel'
p432
Valternate
p433
stRp434
asg30
g429
sg60
(lp435
g1
(g2
g3
(dp436
g63
VUoti Urpala
p437
sg65
Vuau@mplayer2.org
p438
stRp439
asS'author_detail'
p440
g1
(g2
g3
(dp441
g63
g437
sg65
g438
stRp442
sg71
Vhttp://git.mplayer2.org/mplayer2/atom/bbadbda21be7049e06c746e0894713c04331e767
p443
sg73
g41
((I2013
I1
I26
I13
I17
I2
I5
I26
I0
t(dtRp444
sg29
Vosd: add changes missing from recent 393988c274 (exit crash)
p445
sg76
VUoti Urpala (uau@mplayer2.org)
p446
sg78
VCommit 393988c274 ("build: clean up remnants from internal FFmpeg\u000abuild") was somehow missing free()->av_free() changes in one place.\u000aThis could cause a crash when exiting the player if av_free()\u000adiffered from free() (mainly on MSWindows).
p447
sg80
(lp448
g1
(g2
g3
(dp449
g9
Vhttp://git.mplayer2.org/mplayer2/atom/?h=master
p450
sg11
g84
sg13
Nsg14
g447
stRp451
ag1
(g2
g3
(dp452
g9
Vhttp://git.mplayer2.org/mplayer2/atom/?h=master
p453
sg11
g88
sg13
Nsg14
V<pre>\u000aCommit 393988c274 ("build: clean up remnants from internal FFmpeg\u000abuild") was somehow missing free()-&gt;av_free() changes in one place.\u000aThis could cause a crash when exiting the player if av_free()\u000adiffered from free() (mainly on MSWindows).\u000a</pre>
p454
stRp455
asg91
I00
sS'title_detail'
p456
g1
(g2
g3
(dp457
g9
Vhttp://git.mplayer2.org/mplayer2/atom/?h=master
p458
sg11
g12
sg13
Nsg14
g445
stRp459
sg96
V2013-01-26T13:17:02Z
p460
sg98
(lp461
g100
aV*
ag101
astRp462
asS'canto_update'
p463
F1364190760.2955439
sS'headers'
p464
(dp465
S'transfer-encoding'
p466
S'chunked'
p467
sS'expires'
p468
S'Mon, 25 Mar 2013 05:52:40 GMT'
p469
sS'server'
p470
S'Apache'
p471
sS'last-modified'
p472
g39
sS'connection'
p473
S'close'
p474
sS'date'
p475
S'Mon, 25 Mar 2013 05:52:36 GMT'
p476
sS'content-type'
p477
S'text/xml; charset=utf-8'
p478
ssS'href'
p479
Vhttp://git.mplayer2.org/mplayer2/atom/?h=master
p480
sg98
(lp481
sS'version'
p482
Vatom10
p483
sS'canto_version'
p484
(I0
I7
I10
tp485
sS'namespaces'
p486
(dp487
S''
Vhttp://www.w3.org/2005/Atom
p488
sS'xhtml'
p489
Vhttp://www.w3.org/1999/xhtml
p490
sstRp491
.