ccopy_reg
_reconstructor
p1
(cfeedparser
FeedParserDict
p2
c__builtin__
dict
p3
(dp4
S'feed'
p5
g1
(g2
g3
(dp6
S'updated'
p7
V2013-03-25T04:07:22Z
p8
sS'subtitle'
p9
VNews for nerds, stuff that matters
p10
sS'updated_parsed'
p11
ctime
struct_time
p12
((I2013
I3
I25
I4
I7
I22
I0
I84
I0
t(dtRp13
sS'links'
p14
(lp15
g1
(g2
g3
(dp16
S'href'
p17
Vhttp://slashdot.org/
p18
sS'type'
p19
Vtext/html
p20
sS'rel'
p21
Valternate
p22
stRp23
ag1
(g2
g3
(dp24
S'href'
p25
Vhttp://rss.slashdot.org/Slashdot/slashdot
p26
sS'type'
p27
Vapplication/rss+xml
p28
sS'rel'
p29
Vself
p30
stRp31
ag1
(g2
g3
(dp32
S'href'
p33
Vhttp://pubsubhubbub.appspot.com/
p34
sg19
g20
sS'rel'
p35
Vhub
p36
stRp37
asS'tags'
p38
(lp39
g1
(g2
g3
(dp40
S'term'
p41
VTechnology
p42
sS'scheme'
p43
NsS'label'
p44
NstRp45
asS'image'
p46
g1
(g2
g3
(dp47
S'title_detail'
p48
g1
(g2
g3
(dp49
S'base'
p50
Vhttp://rss.slashdot.org/Slashdot/slashdot
p51
sg19
Vtext/plain
p52
sS'language'
p53
NsS'value'
p54
VSlashdot
p55
stRp56
sg17
Vhttp://a.fsdn.com/sd/topics/topicslashdot.gif
p57
sS'link'
p58
Vhttp://slashdot.org/
p59
sg14
(lp60
g1
(g2
g3
(dp61
g17
g59
sg19
g20
sg21
g22
stRp62
asS'title'
p63
g55
stRp64
sS'ttl'
p65
V2
sS'feedburner_info'
p66
(dp67
S'uri'
p68
Vslashdot/slashdot
p69
ssg58
g18
sS'authors'
p70
(lp71
g1
(g2
g3
(dtRp72
asS'rights_detail'
p73
g1
(g2
g3
(dp74
g50
Vhttp://rss.slashdot.org/Slashdot/slashdot
p75
sg19
Vtext/plain
p76
sg53
Nsg54
VCopyright 1997-2013, Slashdot. All Rights Reserved. Slashdot is a Dice Holdings, Inc. company
p77
stRp78
sS'publisher_detail'
p79
g1
(g2
g3
(dp80
S'name'
p81
VGeeknet, Inc.
p82
stRp83
sS'author_detail'
p84
g1
(g2
g3
(dp85
S'email'
p86
Vhelp@slashdot.org
p87
stRp88
sS'sy_updatebase'
p89
V1970-01-01T00:00:00Z
p90
sS'publisher'
p91
g82
sS'published_parsed'
p92
g12
((I2013
I3
I25
I4
I7
I22
I0
I84
I0
t(dtRp93
sg53
Ven-us
p94
sS'author'
p95
g87
sS'rights'
p96
g77
sS'subtitle_detail'
p97
g1
(g2
g3
(dp98
g50
Vhttp://rss.slashdot.org/Slashdot/slashdot
p99
sg19
Vtext/html
p100
sg53
Nsg54
g10
stRp101
sS'title_detail'
p102
g1
(g2
g3
(dp103
g50
Vhttp://rss.slashdot.org/Slashdot/slashdot
p104
sg19
g52
sg53
Nsg54
VSlashdot
p105
stRp106
sS'published'
p107
VMon, 25 Mar 2013 04:07:22 GMT
p108
sS'sy_updateperiod'
p109
Vhourly
p110
sg63
g105
sS'sy_updatefrequency'
p111
V1
stRp112
sS'status'
p113
I200
sg7
S'Mon, 25 Mar 2013 05:41:05 GMT'
p114
sg11
g12
((I2013
I3
I25
I5
I41
I5
I0
I84
I0
t(dtRp115
sS'encoding'
p116
VUTF-8
p117
sS'bozo'
p118
I0
sS'entries'
p119
(lp120
g1
(g2
g3
(dp121
g7
V2013-03-25T04:01:00Z
p122
sg11
g12
((I2013
I3
I25
I4
I1
I0
I0
I84
I0
t(dtRp123
sg14
(lp124
g1
(g2
g3
(dp125
g17
Vhttp://rss.slashdot.org/~r/Slashdot/slashdot/~3/DZDZaBtLASw/story01.htm
p126
sg19
g20
sg21
g22
stRp127
asg38
(lp128
g1
(g2
g3
(dp129
g41
Veducation
p130
sg43
Nsg44
NstRp131
asS'slash_department'
p132
Vpho-great-justice
p133
sS'feedburner_origlink'
p134
Vhttp://slashdot.feedsportal.com/c/35028/f/647410/s/29f24af6/l/0Ldevelopers0Bslashdot0Borg0Cstory0C130C0A30C250C0A2112270Cgoogle0Eblogger0Evietnamese0Ehs0Estudents0Eexcelling0Eat0Ecs0Dutm0Isource0Frss10B0Amainlinkanon0Gutm0Imedium0Ffeed/story01.htm
p135
sS'summary_detail'
p136
g1
(g2
g3
(dp137
g50
Vhttp://rss.slashdot.org/Slashdot/slashdot
p138
sg19
g100
sg53
Nsg54
VAn anonymous reader writes "A Google engineer visiting Vietnam discovered a large portion of Vietnamese high school students might be able to pass a Google interview. According to TFA (and his blog), students start learning computing as early as grade 2. According to the blogger and another senior engineer, about half of the students in an 11th grade class he visited would be able to make through their interview process. The blogger also mentioned U.S. school boards blocking computer science education. The link he posted backing up his claim goes to a Maryland Public Schools website describing No Child Left Behind technicalities. According to the link, computer science is not considered a core subject. While the blogger provided no substantial evidence of U.S. school boards blocking computer science education, he claimed that students at Galileo Academy had difficulty with the HTML image tag. According to the school's Wikipedia page, by California standards, Galileo seems to be one of the state's better secondary schools."<p><div class="share_submission"> <a class="slashpop" href="http://twitter.com/home?status=Google+Blogger%3A+Vietnamese+HS+Students+Excelling+At+CS%3A+http%3A%2F%2Fbit.ly%2F14okaI8"><img src="http://a.fsdn.com/sd/twitter_icon_large.png" /></a> <a class="slashpop" href="http://www.facebook.com/sharer.php?u=http%3A%2F%2Fdevelopers.slashdot.org%2Fstory%2F13%2F03%2F25%2F0211227%2Fgoogle-blogger-vietnamese-hs-students-excelling-at-cs%3Futm_source%3Dslashdot%26utm_medium%3Dfacebook"><img src="http://a.fsdn.com/sd/facebook_icon_large.png" /></a> <a class="nobg" href="http://plus.google.com/share?url=http://developers.slashdot.org/story/13/03/25/0211227/google-blogger-vietnamese-hs-students-excelling-at-cs?utm_source=slashdot&amp;utm_medium=googleplus"><img alt="Share on Google+" src="http://www.gstatic.com/images/icons/gplus-16.png" /></a> </div></p><p><a href="http://developers.slashdot.org/story/13/03/25/0211227/google-blogger-vietnamese-hs-students-excelling-at-cs?utm_source=rss1.0moreanon&amp;utm_medium=feed">Read more of this story</a> at Slashdot.</p><img border="0" height="1" src="http://slashdot.feedsportal.com/c/35028/f/647410/s/29f24af6/mf.gif" width="1" /><br /><br /><a href="http://da.feedsportal.com/r/161770776798/u/49/f/647410/c/35028/s/29f24af6/a2.htm"><img border="0" src="http://da.feedsportal.com/r/161770776798/u/49/f/647410/c/35028/s/29f24af6/a2.img" /></a><img border="0" height="1" src="http://pi.feedsportal.com/r/161770776798/u/49/f/647410/c/35028/s/29f24af6/a2t.img" width="1" /><img height="1" src="http://feeds.feedburner.com/~r/Slashdot/slashdot/~4/DZDZaBtLASw" width="1" />
p139
stRp140
sS'slash_section'
p141
Vdevelopers
p142
sS'canto_state'
p143
(lp144
VSlashdot
p145
aV*
aS'read'
p146
asg70
(lp147
g1
(g2
g3
(dtRp148
asS'author_detail'
p149
g1
(g2
g3
(dp150
g81
Vtimothy
p151
stRp152
sS'slash_hit_parade'
p153
V2,2,1,1,0,0,0
p154
sS'id'
p155
Vhttp://slashdot.feedsportal.com/c/35028/f/647410/s/29f24af6/l/0Ldevelopers0Bslashdot0Borg0Cstory0C130C0A30C250C0A2112270Cgoogle0Eblogger0Evietnamese0Ehs0Estudents0Eexcelling0Eat0Ecs0Dutm0Isource0Frss10B0Amainlinkanon0Gutm0Imedium0Ffeed/story01.htm
p156
sS'slash_comments'
p157
V2
sg92
g12
((I2013
I3
I25
I4
I1
I0
I0
I84
I0
t(dtRp158
sg63
VGoogle Blogger: Vietnamese HS Students Excelling At CS
p159
sg95
g151
sS'summary'
p160
VAn anonymous reader writes "A Google engineer visiting Vietnam discovered a large portion of Vietnamese high school students might be able to pass a Google interview. According to TFA (and his blog), students start learning computing as early as grade 2. According to the blogger and another senior engineer, about half of the students in an 11th grade class he visited would be able to make through their interview process. The blogger also mentioned U.S. school boards blocking computer science education. The link he posted backing up his claim goes to a Maryland Public Schools website describing No Child Left Behind technicalities. According to the link, computer science is not considered a core subject. While the blogger provided no substantial evidence of U.S. school boards blocking computer science education, he claimed that students at Galileo Academy had difficulty with the HTML image tag. According to the school's Wikipedia page, by California standards, Galileo seems to be one of the state's better secondary schools."<p><div class="share_submission"> <a class="slashpop" href="http://twitter.com/home?status=Google+Blogger\u005c%3A+Vietnamese+HS+Students+Excelling+At+CS\u005c%3A+http\u005c%3A\u005c%2F\u005c%2Fbit.ly\u005c%2F14okaI8"><img src="http://a.fsdn.com/sd/twitter_icon_large.png" /></a> <a class="slashpop" href="http://www.facebook.com/sharer.php?u=http\u005c%3A\u005c%2F\u005c%2Fdevelopers.slashdot.org\u005c%2Fstory\u005c%2F13\u005c%2F03\u005c%2F25\u005c%2F0211227\u005c%2Fgoogle-blogger-vietnamese-hs-students-excelling-at-cs\u005c%3Futm_source\u005c%3Dslashdot\u005c%26utm_medium\u005c%3Dfacebook"><img src="http://a.fsdn.com/sd/facebook_icon_large.png" /></a> <a class="nobg" href="http://plus.google.com/share?url=http://developers.slashdot.org/story/13/03/25/0211227/google-blogger-vietnamese-hs-students-excelling-at-cs?utm_source=slashdot&amp;utm_medium=googleplus"><img alt="Share on Google+" src="http://www.gstatic.com/images/icons/gplus-16.png" /></a> </div></p><p><a href="http://developers.slashdot.org/story/13/03/25/0211227/google-blogger-vietnamese-hs-students-excelling-at-cs?utm_source=rss1.0moreanon&amp;utm_medium=feed">Read more of this story</a> at Slashdot.</p><img border="0" height="1" src="http://slashdot.feedsportal.com/c/35028/f/647410/s/29f24af6/mf.gif" width="1" /><br /><br /><a href="http://da.feedsportal.com/r/161770776798/u/49/f/647410/c/35028/s/29f24af6/a2.htm"><img border="0" src="http://da.feedsportal.com/r/161770776798/u/49/f/647410/c/35028/s/29f24af6/a2.img" /></a><img border="0" height="1" src="http://pi.feedsportal.com/r/161770776798/u/49/f/647410/c/35028/s/29f24af6/a2t.img" width="1" /><img height="1" src="http://feeds.feedburner.com/~r/Slashdot/slashdot/~4/DZDZaBtLASw" width="1" />
p161
sS'guidislink'
p162
I00
sS'title_detail'
p163
g1
(g2
g3
(dp164
g50
Vhttp://rss.slashdot.org/Slashdot/slashdot
p165
sg19
g52
sg53
Nsg54
g159
stRp166
sg107
VMon, 25 Mar 2013 04:01:00 GMT
p167
sg58
g126
stRp168
ag1
(g2
g3
(dp169
S'summary_detail'
p170
g1
(g2
g3
(dp171
g50
Vhttp://rss.slashdot.org/Slashdot/slashdot
p172
sg19
g100
sg53
Nsg54
Vhackingbear writes "The suspected cyberattack that struck South Korean banks and media companies this week didn't originate from a Chinese IP address, South Korean officials said Friday, contradicting their previous claim. The Korea Communications Commission said that after 'detailed analysis,' the IP address used in the attack is the bank's internal IP address &mdash; which is, coincidentally identical to a Chinese ISP's address, among the 2^32 address space available."<p><div class="share_submission"> <a class="slashpop" href="http://twitter.com/home?status=South+Korea+Backtracks+On+China+As+Source+of+Cyberattack%3A+http%3A%2F%2Fbit.ly%2F10CF9U3"><img src="http://a.fsdn.com/sd/twitter_icon_large.png" /></a> <a class="slashpop" href="http://www.facebook.com/sharer.php?u=http%3A%2F%2Fslashdot.org%2Fstory%2F13%2F03%2F25%2F0059210%2Fsouth-korea-backtracks-on-china-as-source-of-cyberattack%3Futm_source%3Dslashdot%26utm_medium%3Dfacebook"><img src="http://a.fsdn.com/sd/facebook_icon_large.png" /></a> <a class="nobg" href="http://plus.google.com/share?url=http://slashdot.org/story/13/03/25/0059210/south-korea-backtracks-on-china-as-source-of-cyberattack?utm_source=slashdot&amp;utm_medium=googleplus"><img alt="Share on Google+" src="http://www.gstatic.com/images/icons/gplus-16.png" /></a> </div></p><p><a href="http://slashdot.org/story/13/03/25/0059210/south-korea-backtracks-on-china-as-source-of-cyberattack?utm_source=rss1.0moreanon&amp;utm_medium=feed">Read more of this story</a> at Slashdot.</p><img border="0" height="1" src="http://slashdot.feedsportal.com/c/35028/f/647410/s/29f1caa6/mf.gif" width="1" /><br /><br /><a href="http://da.feedsportal.com/r/161770435364/u/49/f/647410/c/35028/s/29f1caa6/a2.htm"><img border="0" src="http://da.feedsportal.com/r/161770435364/u/49/f/647410/c/35028/s/29f1caa6/a2.img" /></a><img border="0" height="1" src="http://pi.feedsportal.com/r/161770435364/u/49/f/647410/c/35028/s/29f1caa6/a2t.img" width="1" /><img height="1" src="http://feeds.feedburner.com/~r/Slashdot/slashdot/~4/x-oOEjZnm-4" width="1" />
p173
stRp174
sg11
g12
((I2013
I3
I25
I0
I58
I0
I0
I84
I0
t(dtRp175
sg14
(lp176
g1
(g2
g3
(dp177
g17
Vhttp://rss.slashdot.org/~r/Slashdot/slashdot/~3/x-oOEjZnm-4/story01.htm
p178
sg19
g20
sg21
g22
stRp179
asg38
(lp180
g1
(g2
g3
(dp181
g41
Vchina
p182
sg43
Nsg44
NstRp183
asS'slash_department'
p184
Vcould-have-been-anyone-really
p185
sS'feedburner_origlink'
p186
Vhttp://slashdot.feedsportal.com/c/35028/f/647410/s/29f1caa6/l/0Lslashdot0Borg0Cstory0C130C0A30C250C0A0A59210A0Csouth0Ekorea0Ebacktracks0Eon0Echina0Eas0Esource0Eof0Ecyberattack0Dutm0Isource0Frss10B0Amainlinkanon0Gutm0Imedium0Ffeed/story01.htm
p187
sg7
V2013-03-25T00:58:00Z
p188
sS'slash_section'
p189
Vslashdot
p190
sg58
g178
sg70
(lp191
g1
(g2
g3
(dtRp192
asS'author_detail'
p193
g1
(g2
g3
(dp194
g81
Vtimothy
p195
stRp196
sS'slash_hit_parade'
p197
V0,0,0,0,0,0,0
p198
sg155
Vhttp://slashdot.feedsportal.com/c/35028/f/647410/s/29f1caa6/l/0Lslashdot0Borg0Cstory0C130C0A30C250C0A0A59210A0Csouth0Ekorea0Ebacktracks0Eon0Echina0Eas0Esource0Eof0Ecyberattack0Dutm0Isource0Frss10B0Amainlinkanon0Gutm0Imedium0Ffeed/story01.htm
p199
sg92
g12
((I2013
I3
I25
I0
I58
I0
I0
I84
I0
t(dtRp200
sg63
VSouth Korea Backtracks On China As Source of Cyberattack
p201
sg95
g195
sg160
Vhackingbear writes "The suspected cyberattack that struck South Korean banks and media companies this week didn't originate from a Chinese IP address, South Korean officials said Friday, contradicting their previous claim. The Korea Communications Commission said that after 'detailed analysis,' the IP address used in the attack is the bank's internal IP address &mdash; which is, coincidentally identical to a Chinese ISP's address, among the 2^32 address space available."<p><div class="share_submission"> <a class="slashpop" href="http://twitter.com/home?status=South+Korea+Backtracks+On+China+As+Source+of+Cyberattack\u005c%3A+http\u005c%3A\u005c%2F\u005c%2Fbit.ly\u005c%2F10CF9U3"><img src="http://a.fsdn.com/sd/twitter_icon_large.png" /></a> <a class="slashpop" href="http://www.facebook.com/sharer.php?u=http\u005c%3A\u005c%2F\u005c%2Fslashdot.org\u005c%2Fstory\u005c%2F13\u005c%2F03\u005c%2F25\u005c%2F0059210\u005c%2Fsouth-korea-backtracks-on-china-as-source-of-cyberattack\u005c%3Futm_source\u005c%3Dslashdot\u005c%26utm_medium\u005c%3Dfacebook"><img src="http://a.fsdn.com/sd/facebook_icon_large.png" /></a> <a class="nobg" href="http://plus.google.com/share?url=http://slashdot.org/story/13/03/25/0059210/south-korea-backtracks-on-china-as-source-of-cyberattack?utm_source=slashdot&amp;utm_medium=googleplus"><img alt="Share on Google+" src="http://www.gstatic.com/images/icons/gplus-16.png" /></a> </div></p><p><a href="http://slashdot.org/story/13/03/25/0059210/south-korea-backtracks-on-china-as-source-of-cyberattack?utm_source=rss1.0moreanon&amp;utm_medium=feed">Read more of this story</a> at Slashdot.</p><img border="0" height="1" src="http://slashdot.feedsportal.com/c/35028/f/647410/s/29f1caa6/mf.gif" width="1" /><br /><br /><a href="http://da.feedsportal.com/r/161770435364/u/49/f/647410/c/35028/s/29f1caa6/a2.htm"><img border="0" src="http://da.feedsportal.com/r/161770435364/u/49/f/647410/c/35028/s/29f1caa6/a2.img" /></a><img border="0" height="1" src="http://pi.feedsportal.com/r/161770435364/u/49/f/647410/c/35028/s/29f1caa6/a2t.img" width="1" /><img height="1" src="http://feeds.feedburner.com/~r/Slashdot/slashdot/~4/x-oOEjZnm-4" width="1" />
p202
sg162
I00
sS'title_detail'
p203
g1
(g2
g3
(dp204
g50
Vhttp://rss.slashdot.org/Slashdot/slashdot
p205
sg19
g52
sg53
Nsg54
g201
stRp206
sg107
VMon, 25 Mar 2013 00:58:00 GMT
p207
sg143
(lp208
g145
aV*
ag146
astRp209
ag1
(g2
g3
(dp210
g7
V2013-03-24T23:35:00Z
p211
sg11
g12
((I2013
I3
I24
I23
I35
I0
I6
I83
I0
t(dtRp212
sg14
(lp213
g1
(g2
g3
(dp214
g17
Vhttp://rss.slashdot.org/~r/Slashdot/slashdot/~3/LT2DRoW-qPk/story01.htm
p215
sg19
g20
sg21
g22
stRp216
asg38
(lp217
g1
(g2
g3
(dp218
g41
Vmicrosoft
p219
sg43
Nsg44
NstRp220
asS'slash_department'
p221
Vsuspect-most-leaks-are-by-design
p222
sS'feedburner_origlink'
p223
Vhttp://slashdot.feedsportal.com/c/35028/f/647410/s/29f11039/l/0Ltech0Bslashdot0Borg0Cstory0C130C0A30C240C2330A210A0Cwindows0Eblue0E93640Escreenshots0Eshow0Efeature0Eenhancements0Dutm0Isource0Frss10B0Amainlinkanon0Gutm0Imedium0Ffeed/story01.htm
p224
sS'summary_detail'
p225
g1
(g2
g3
(dp226
g50
Vhttp://rss.slashdot.org/Slashdot/slashdot
p227
sg19
g100
sg53
Nsg54
VAn anonymous reader writes "As expected, a new pre-public version of Windows Blue (build 9364) has leaked online and it reveals a handful of features that are coming in the next big Microsoft Windows 8 update." Several sites have screenshots from the build; Hot Hardware says "Assuming this is all completely legitimate, the most obvious change pertains to the Metro UI, including greater flexibility in sizing Live Tiles and customizing the Start screen, particularly as the Personalize setting (among others, including Devices and Share) is now under the Settings charm. The Name Group feature for the Start menu looks a little more polished, too."<p><div class="share_submission"> <a class="slashpop" href="http://twitter.com/home?status=Windows+Blue+9364+Screenshots+Show+Feature+Enhancements%3A+http%3A%2F%2Fbit.ly%2FZNkoDE"><img src="http://a.fsdn.com/sd/twitter_icon_large.png" /></a> <a class="slashpop" href="http://www.facebook.com/sharer.php?u=http%3A%2F%2Ftech.slashdot.org%2Fstory%2F13%2F03%2F24%2F2330210%2Fwindows-blue-9364-screenshots-show-feature-enhancements%3Futm_source%3Dslashdot%26utm_medium%3Dfacebook"><img src="http://a.fsdn.com/sd/facebook_icon_large.png" /></a> <a class="nobg" href="http://plus.google.com/share?url=http://tech.slashdot.org/story/13/03/24/2330210/windows-blue-9364-screenshots-show-feature-enhancements?utm_source=slashdot&amp;utm_medium=googleplus"><img alt="Share on Google+" src="http://www.gstatic.com/images/icons/gplus-16.png" /></a> </div></p><p><a href="http://tech.slashdot.org/story/13/03/24/2330210/windows-blue-9364-screenshots-show-feature-enhancements?utm_source=rss1.0moreanon&amp;utm_medium=feed">Read more of this story</a> at Slashdot.</p><img border="0" height="1" src="http://slashdot.feedsportal.com/c/35028/f/647410/s/29f11039/mf.gif" width="1" /><br /><br /><a href="http://da.feedsportal.com/r/161770370333/u/49/f/647410/c/35028/s/29f11039/a2.htm"><img border="0" src="http://da.feedsportal.com/r/161770370333/u/49/f/647410/c/35028/s/29f11039/a2.img" /></a><img border="0" height="1" src="http://pi.feedsportal.com/r/161770370333/u/49/f/647410/c/35028/s/29f11039/a2t.img" width="1" /><img height="1" src="http://feeds.feedburner.com/~r/Slashdot/slashdot/~4/LT2DRoW-qPk" width="1" />
p228
stRp229
sS'slash_section'
p230
Vtechnology
p231
sg143
(lp232
g145
aV*
ag146
asg70
(lp233
g1
(g2
g3
(dtRp234
asS'author_detail'
p235
g1
(g2
g3
(dp236
g81
Vtimothy
p237
stRp238
sS'slash_hit_parade'
p239
V5,5,2,1,0,0,0
p240
sg155
Vhttp://slashdot.feedsportal.com/c/35028/f/647410/s/29f11039/l/0Ltech0Bslashdot0Borg0Cstory0C130C0A30C240C2330A210A0Cwindows0Eblue0E93640Escreenshots0Eshow0Efeature0Eenhancements0Dutm0Isource0Frss10B0Amainlinkanon0Gutm0Imedium0Ffeed/story01.htm
p241
sS'slash_comments'
p242
V5
sg92
g12
((I2013
I3
I24
I23
I35
I0
I6
I83
I0
t(dtRp243
sg63
VWindows Blue 9364 Screenshots Show Feature Enhancements
p244
sg95
g237
sg160
VAn anonymous reader writes "As expected, a new pre-public version of Windows Blue (build 9364) has leaked online and it reveals a handful of features that are coming in the next big Microsoft Windows 8 update." Several sites have screenshots from the build; Hot Hardware says "Assuming this is all completely legitimate, the most obvious change pertains to the Metro UI, including greater flexibility in sizing Live Tiles and customizing the Start screen, particularly as the Personalize setting (among others, including Devices and Share) is now under the Settings charm. The Name Group feature for the Start menu looks a little more polished, too."<p><div class="share_submission"> <a class="slashpop" href="http://twitter.com/home?status=Windows+Blue+9364+Screenshots+Show+Feature+Enhancements\u005c%3A+http\u005c%3A\u005c%2F\u005c%2Fbit.ly\u005c%2FZNkoDE"><img src="http://a.fsdn.com/sd/twitter_icon_large.png" /></a> <a class="slashpop" href="http://www.facebook.com/sharer.php?u=http\u005c%3A\u005c%2F\u005c%2Ftech.slashdot.org\u005c%2Fstory\u005c%2F13\u005c%2F03\u005c%2F24\u005c%2F2330210\u005c%2Fwindows-blue-9364-screenshots-show-feature-enhancements\u005c%3Futm_source\u005c%3Dslashdot\u005c%26utm_medium\u005c%3Dfacebook"><img src="http://a.fsdn.com/sd/facebook_icon_large.png" /></a> <a class="nobg" href="http://plus.google.com/share?url=http://tech.slashdot.org/story/13/03/24/2330210/windows-blue-9364-screenshots-show-feature-enhancements?utm_source=slashdot&amp;utm_medium=googleplus"><img alt="Share on Google+" src="http://www.gstatic.com/images/icons/gplus-16.png" /></a> </div></p><p><a href="http://tech.slashdot.org/story/13/03/24/2330210/windows-blue-9364-screenshots-show-feature-enhancements?utm_source=rss1.0moreanon&amp;utm_medium=feed">Read more of this story</a> at Slashdot.</p><img border="0" height="1" src="http://slashdot.feedsportal.com/c/35028/f/647410/s/29f11039/mf.gif" width="1" /><br /><br /><a href="http://da.feedsportal.com/r/161770370333/u/49/f/647410/c/35028/s/29f11039/a2.htm"><img border="0" src="http://da.feedsportal.com/r/161770370333/u/49/f/647410/c/35028/s/29f11039/a2.img" /></a><img border="0" height="1" src="http://pi.feedsportal.com/r/161770370333/u/49/f/647410/c/35028/s/29f11039/a2t.img" width="1" /><img height="1" src="http://feeds.feedburner.com/~r/Slashdot/slashdot/~4/LT2DRoW-qPk" width="1" />
p245
sg162
I00
sS'title_detail'
p246
g1
(g2
g3
(dp247
g50
Vhttp://rss.slashdot.org/Slashdot/slashdot
p248
sg19
g52
sg53
Nsg54
g244
stRp249
sg107
VSun, 24 Mar 2013 23:35:00 GMT
p250
sg58
g215
stRp251
ag1
(g2
g3
(dp252
g7
V2013-03-24T22:37:00Z
p253
sg11
g12
((I2013
I3
I24
I22
I37
I0
I6
I83
I0
t(dtRp254
sg14
(lp255
g1
(g2
g3
(dp256
g17
Vhttp://rss.slashdot.org/~r/Slashdot/slashdot/~3/3y9aeLCWBSw/story01.htm
p257
sg19
g20
sg21
g22
stRp258
asg38
(lp259
g1
(g2
g3
(dp260
g41
Vbitcoin
p261
sg43
Nsg44
NstRp262
asS'slash_department'
p263
Vbiggest-portion-is-the-lion's-share
p264
sS'feedburner_origlink'
p265
Vhttp://slashdot.feedsportal.com/c/35028/f/647410/s/29f10828/l/0Lpolitics0Bslashdot0Borg0Cstory0C130C0A30C240C2192520Cwill0Elegitimacy0Espoil0Ebitcoin0Dutm0Isource0Frss10B0Amainlinkanon0Gutm0Imedium0Ffeed/story01.htm
p266
sS'summary_detail'
p267
g1
(g2
g3
(dp268
g50
Vhttp://rss.slashdot.org/Slashdot/slashdot
p269
sg19
g100
sg53
Nsg54
VNew submitter F9rDT3ZE writes "Salon writer Andrew Leonard examines the U.S. Treasury's Financial Crimes Enforcement Network's (FinCEN) first 'guidance' regarding 'de-centralized virtual currencies,' noting that Bitcoin's supporters call it a 'currency of resistance,' while others suggest that 'the more popular Bitcoin gets, whether as a symbol of resistance or a perceived safe haven in financially troubled times, the more government attention it will inevitably draw, and the more inexorably it will be sucked into existing regulatory structures.'"<p><div class="share_submission"> <a class="slashpop" href="http://twitter.com/home?status=Will+Legitimacy+Spoil+Bitcoin%3F%3A+http%3A%2F%2Fbit.ly%2FZN65iz"><img src="http://a.fsdn.com/sd/twitter_icon_large.png" /></a> <a class="slashpop" href="http://www.facebook.com/sharer.php?u=http%3A%2F%2Fpolitics.slashdot.org%2Fstory%2F13%2F03%2F24%2F219252%2Fwill-legitimacy-spoil-bitcoin%3Futm_source%3Dslashdot%26utm_medium%3Dfacebook"><img src="http://a.fsdn.com/sd/facebook_icon_large.png" /></a> <a class="nobg" href="http://plus.google.com/share?url=http://politics.slashdot.org/story/13/03/24/219252/will-legitimacy-spoil-bitcoin?utm_source=slashdot&amp;utm_medium=googleplus"><img alt="Share on Google+" src="http://www.gstatic.com/images/icons/gplus-16.png" /></a> </div></p><p><a href="http://politics.slashdot.org/story/13/03/24/219252/will-legitimacy-spoil-bitcoin?utm_source=rss1.0moreanon&amp;utm_medium=feed">Read more of this story</a> at Slashdot.</p><img border="0" height="1" src="http://slashdot.feedsportal.com/c/35028/f/647410/s/29f10828/mf.gif" width="1" /><br /><br /><a href="http://da.feedsportal.com/r/161770369374/u/49/f/647410/c/35028/s/29f10828/a2.htm"><img border="0" src="http://da.feedsportal.com/r/161770369374/u/49/f/647410/c/35028/s/29f10828/a2.img" /></a><img border="0" height="1" src="http://pi.feedsportal.com/r/161770369374/u/49/f/647410/c/35028/s/29f10828/a2t.img" width="1" /><img height="1" src="http://feeds.feedburner.com/~r/Slashdot/slashdot/~4/3y9aeLCWBSw" width="1" />
p270
stRp271
sS'slash_section'
p272
Vpolitics
p273
sg143
(lp274
g145
aV*
ag146
asg70
(lp275
g1
(g2
g3
(dtRp276
asS'author_detail'
p277
g1
(g2
g3
(dp278
g81
Vtimothy
p279
stRp280
sS'slash_hit_parade'
p281
V3,3,1,1,0,0,0
p282
sg155
Vhttp://slashdot.feedsportal.com/c/35028/f/647410/s/29f10828/l/0Lpolitics0Bslashdot0Borg0Cstory0C130C0A30C240C2192520Cwill0Elegitimacy0Espoil0Ebitcoin0Dutm0Isource0Frss10B0Amainlinkanon0Gutm0Imedium0Ffeed/story01.htm
p283
sS'slash_comments'
p284
V3
sg92
g12
((I2013
I3
I24
I22
I37
I0
I6
I83
I0
t(dtRp285
sg63
VWill Legitimacy Spoil Bitcoin?
p286
sg95
g279
sg160
VNew submitter F9rDT3ZE writes "Salon writer Andrew Leonard examines the U.S. Treasury's Financial Crimes Enforcement Network's (FinCEN) first 'guidance' regarding 'de-centralized virtual currencies,' noting that Bitcoin's supporters call it a 'currency of resistance,' while others suggest that 'the more popular Bitcoin gets, whether as a symbol of resistance or a perceived safe haven in financially troubled times, the more government attention it will inevitably draw, and the more inexorably it will be sucked into existing regulatory structures.'"<p><div class="share_submission"> <a class="slashpop" href="http://twitter.com/home?status=Will+Legitimacy+Spoil+Bitcoin\u005c%3F\u005c%3A+http\u005c%3A\u005c%2F\u005c%2Fbit.ly\u005c%2FZN65iz"><img src="http://a.fsdn.com/sd/twitter_icon_large.png" /></a> <a class="slashpop" href="http://www.facebook.com/sharer.php?u=http\u005c%3A\u005c%2F\u005c%2Fpolitics.slashdot.org\u005c%2Fstory\u005c%2F13\u005c%2F03\u005c%2F24\u005c%2F219252\u005c%2Fwill-legitimacy-spoil-bitcoin\u005c%3Futm_source\u005c%3Dslashdot\u005c%26utm_medium\u005c%3Dfacebook"><img src="http://a.fsdn.com/sd/facebook_icon_large.png" /></a> <a class="nobg" href="http://plus.google.com/share?url=http://politics.slashdot.org/story/13/03/24/219252/will-legitimacy-spoil-bitcoin?utm_source=slashdot&amp;utm_medium=googleplus"><img alt="Share on Google+" src="http://www.gstatic.com/images/icons/gplus-16.png" /></a> </div></p><p><a href="http://politics.slashdot.org/story/13/03/24/219252/will-legitimacy-spoil-bitcoin?utm_source=rss1.0moreanon&amp;utm_medium=feed">Read more of this story</a> at Slashdot.</p><img border="0" height="1" src="http://slashdot.feedsportal.com/c/35028/f/647410/s/29f10828/mf.gif" width="1" /><br /><br /><a href="http://da.feedsportal.com/r/161770369374/u/49/f/647410/c/35028/s/29f10828/a2.htm"><img border="0" src="http://da.feedsportal.com/r/161770369374/u/49/f/647410/c/35028/s/29f10828/a2.img" /></a><img border="0" height="1" src="http://pi.feedsportal.com/r/161770369374/u/49/f/647410/c/35028/s/29f10828/a2t.img" width="1" /><img height="1" src="http://feeds.feedburner.com/~r/Slashdot/slashdot/~4/3y9aeLCWBSw" width="1" />
p287
sg162
I00
sS'title_detail'
p288
g1
(g2
g3
(dp289
g50
Vhttp://rss.slashdot.org/Slashdot/slashdot
p290
sg19
g52
sg53
Nsg54
g286
stRp291
sg107
VSun, 24 Mar 2013 22:37:00 GMT
p292
sg58
g257
stRp293
ag1
(g2
g3
(dp294
S'summary_detail'
p295
g1
(g2
g3
(dp296
g50
Vhttp://rss.slashdot.org/Slashdot/slashdot
p297
sg19
g100
sg53
Nsg54
Vjrepin writes "On day two of the 2013 Embedded Linux Conference, Robert Rose of SpaceX spoke about the "Lessons Learned Developing Software for Space Vehicles". In his talk, he discussed how SpaceX develops its Linux-based software for a wide variety of tasks needed to put spacecraft into orbit&mdash;and eventually beyond. Linux runs everywhere at SpaceX, he said, on everything from desktops to spacecraft."<p><div class="share_submission"> <a class="slashpop" href="http://twitter.com/home?status=SpaceX%3A+Lessons+Learned+Developing+Software+For+Space+Vehicles%3A+http%3A%2F%2Fbit.ly%2FZlIyBR"><img src="http://a.fsdn.com/sd/twitter_icon_large.png" /></a> <a class="slashpop" href="http://www.facebook.com/sharer.php?u=http%3A%2F%2Flinux.slashdot.org%2Fstory%2F13%2F03%2F24%2F2050221%2Fspacex-lessons-learned-developing-software-for-space-vehicles%3Futm_source%3Dslashdot%26utm_medium%3Dfacebook"><img src="http://a.fsdn.com/sd/facebook_icon_large.png" /></a> <a class="nobg" href="http://plus.google.com/share?url=http://linux.slashdot.org/story/13/03/24/2050221/spacex-lessons-learned-developing-software-for-space-vehicles?utm_source=slashdot&amp;utm_medium=googleplus"><img alt="Share on Google+" src="http://www.gstatic.com/images/icons/gplus-16.png" /></a> </div></p><p><a href="http://linux.slashdot.org/story/13/03/24/2050221/spacex-lessons-learned-developing-software-for-space-vehicles?utm_source=rss1.0moreanon&amp;utm_medium=feed">Read more of this story</a> at Slashdot.</p><img border="0" height="1" src="http://slashdot.feedsportal.com/c/35028/f/647410/s/29f05097/mf.gif" width="1" /><br /><br /><a href="http://da.feedsportal.com/r/161770368552/u/49/f/647410/c/35028/s/29f05097/a2.htm"><img border="0" src="http://da.feedsportal.com/r/161770368552/u/49/f/647410/c/35028/s/29f05097/a2.img" /></a><img border="0" height="1" src="http://pi.feedsportal.com/r/161770368552/u/49/f/647410/c/35028/s/29f05097/a2t.img" width="1" /><img height="1" src="http://feeds.feedburner.com/~r/Slashdot/slashdot/~4/n1kfUQBeGmU" width="1" />
p298
stRp299
sg11
g12
((I2013
I3
I24
I21
I38
I0
I6
I83
I0
t(dtRp300
sg14
(lp301
g1
(g2
g3
(dp302
g17
Vhttp://rss.slashdot.org/~r/Slashdot/slashdot/~3/n1kfUQBeGmU/story01.htm
p303
sg19
g20
sg21
g22
stRp304
asg38
(lp305
g1
(g2
g3
(dp306
g41
Vprogramming
p307
sg43
Nsg44
NstRp308
asS'slash_department'
p309
Vno-one-can-hear-you-bleep-in-space
p310
sS'feedburner_origlink'
p311
Vhttp://slashdot.feedsportal.com/c/35028/f/647410/s/29f05097/l/0Llinux0Bslashdot0Borg0Cstory0C130C0A30C240C20A50A2210Cspacex0Elessons0Elearned0Edeveloping0Esoftware0Efor0Espace0Evehicles0Dutm0Isource0Frss10B0Amainlinkanon0Gutm0Imedium0Ffeed/story01.htm
p312
sg7
V2013-03-24T21:38:00Z
p313
sS'slash_section'
p314
Vlinux
p315
sg58
g303
sg70
(lp316
g1
(g2
g3
(dtRp317
asS'author_detail'
p318
g1
(g2
g3
(dp319
g81
Vtimothy
p320
stRp321
sS'slash_hit_parade'
p322
V0,0,0,0,0,0,0
p323
sg155
Vhttp://slashdot.feedsportal.com/c/35028/f/647410/s/29f05097/l/0Llinux0Bslashdot0Borg0Cstory0C130C0A30C240C20A50A2210Cspacex0Elessons0Elearned0Edeveloping0Esoftware0Efor0Espace0Evehicles0Dutm0Isource0Frss10B0Amainlinkanon0Gutm0Imedium0Ffeed/story01.htm
p324
sg92
g12
((I2013
I3
I24
I21
I38
I0
I6
I83
I0
t(dtRp325
sg63
VSpaceX: Lessons Learned Developing Software For Space Vehicles
p326
sg95
g320
sg160
Vjrepin writes "On day two of the 2013 Embedded Linux Conference, Robert Rose of SpaceX spoke about the "Lessons Learned Developing Software for Space Vehicles". In his talk, he discussed how SpaceX develops its Linux-based software for a wide variety of tasks needed to put spacecraft into orbit&mdash;and eventually beyond. Linux runs everywhere at SpaceX, he said, on everything from desktops to spacecraft."<p><div class="share_submission"> <a class="slashpop" href="http://twitter.com/home?status=SpaceX\u005c%3A+Lessons+Learned+Developing+Software+For+Space+Vehicles\u005c%3A+http\u005c%3A\u005c%2F\u005c%2Fbit.ly\u005c%2FZlIyBR"><img src="http://a.fsdn.com/sd/twitter_icon_large.png" /></a> <a class="slashpop" href="http://www.facebook.com/sharer.php?u=http\u005c%3A\u005c%2F\u005c%2Flinux.slashdot.org\u005c%2Fstory\u005c%2F13\u005c%2F03\u005c%2F24\u005c%2F2050221\u005c%2Fspacex-lessons-learned-developing-software-for-space-vehicles\u005c%3Futm_source\u005c%3Dslashdot\u005c%26utm_medium\u005c%3Dfacebook"><img src="http://a.fsdn.com/sd/facebook_icon_large.png" /></a> <a class="nobg" href="http://plus.google.com/share?url=http://linux.slashdot.org/story/13/03/24/2050221/spacex-lessons-learned-developing-software-for-space-vehicles?utm_source=slashdot&amp;utm_medium=googleplus"><img alt="Share on Google+" src="http://www.gstatic.com/images/icons/gplus-16.png" /></a> </div></p><p><a href="http://linux.slashdot.org/story/13/03/24/2050221/spacex-lessons-learned-developing-software-for-space-vehicles?utm_source=rss1.0moreanon&amp;utm_medium=feed">Read more of this story</a> at Slashdot.</p><img border="0" height="1" src="http://slashdot.feedsportal.com/c/35028/f/647410/s/29f05097/mf.gif" width="1" /><br /><br /><a href="http://da.feedsportal.com/r/161770368552/u/49/f/647410/c/35028/s/29f05097/a2.htm"><img border="0" src="http://da.feedsportal.com/r/161770368552/u/49/f/647410/c/35028/s/29f05097/a2.img" /></a><img border="0" height="1" src="http://pi.feedsportal.com/r/161770368552/u/49/f/647410/c/35028/s/29f05097/a2t.img" width="1" /><img height="1" src="http://feeds.feedburner.com/~r/Slashdot/slashdot/~4/n1kfUQBeGmU" width="1" />
p327
sg162
I00
sS'title_detail'
p328
g1
(g2
g3
(dp329
g50
Vhttp://rss.slashdot.org/Slashdot/slashdot
p330
sg19
g52
sg53
Nsg54
g326
stRp331
sg107
VSun, 24 Mar 2013 21:38:00 GMT
p332
sg143
(lp333
g145
aV*
ag146
astRp334
ag1
(g2
g3
(dp335
S'summary_detail'
p336
g1
(g2
g3
(dp337
g50
Vhttp://rss.slashdot.org/Slashdot/slashdot
p338
sg19
g100
sg53
Nsg54
VAn anonymous reader writes "Archos have finally released their much anticipated touchscreen gamepad in the USA. The console boasts a Arm Cortex Dual-core A9 1.6GHz cpu, 1024MB Ram, 8GB internal storage and uses the Android 4.1 Jelly Bean OS. The Gamepad has 14 physical buttons and dual analog thumb-sticks as well as a touchscreen which means the latest 3D Android games should work great and for fans of emulation the traditional gamepad design and buttons will make N64/PS1 emulators work great on the gamepad." CNET UK was unimpressed, calling it "a bitter disappointment"; IGN was more optimistic, especially at its sub-$200 price.<p><div class="share_submission"> <a class="slashpop" href="http://twitter.com/home?status=Archos+Gamepad+Released+In+the+USA%3A+http%3A%2F%2Fbit.ly%2F11Afcaq"><img src="http://a.fsdn.com/sd/twitter_icon_large.png" /></a> <a class="slashpop" href="http://www.facebook.com/sharer.php?u=http%3A%2F%2Fhardware.slashdot.org%2Fstory%2F13%2F03%2F24%2F2025228%2Farchos-gamepad-released-in-the-usa%3Futm_source%3Dslashdot%26utm_medium%3Dfacebook"><img src="http://a.fsdn.com/sd/facebook_icon_large.png" /></a> <a class="nobg" href="http://plus.google.com/share?url=http://hardware.slashdot.org/story/13/03/24/2025228/archos-gamepad-released-in-the-usa?utm_source=slashdot&amp;utm_medium=googleplus"><img alt="Share on Google+" src="http://www.gstatic.com/images/icons/gplus-16.png" /></a> </div></p><p><a href="http://hardware.slashdot.org/story/13/03/24/2025228/archos-gamepad-released-in-the-usa?utm_source=rss1.0moreanon&amp;utm_medium=feed">Read more of this story</a> at Slashdot.</p><img border="0" height="1" src="http://slashdot.feedsportal.com/c/35028/f/647410/s/29f05ca6/mf.gif" width="1" /><br /><br /><a href="http://da.feedsportal.com/r/161770431553/u/49/f/647410/c/35028/s/29f05ca6/a2.htm"><img border="0" src="http://da.feedsportal.com/r/161770431553/u/49/f/647410/c/35028/s/29f05ca6/a2.img" /></a><img border="0" height="1" src="http://pi.feedsportal.com/r/161770431553/u/49/f/647410/c/35028/s/29f05ca6/a2t.img" width="1" /><img height="1" src="http://feeds.feedburner.com/~r/Slashdot/slashdot/~4/VwoUjopGBoU" width="1" />
p339
stRp340
sg11
g12
((I2013
I3
I24
I20
I48
I0
I6
I83
I0
t(dtRp341
sg14
(lp342
g1
(g2
g3
(dp343
g17
Vhttp://rss.slashdot.org/~r/Slashdot/slashdot/~3/VwoUjopGBoU/story01.htm
p344
sg19
g20
sg21
g22
stRp345
asg38
(lp346
g1
(g2
g3
(dp347
g41
Vandroid
p348
sg43
Nsg44
NstRp349
asS'slash_department'
p350
Vtake-it-or-leave-it-or-use-it-as-a-shovel
p351
sS'feedburner_origlink'
p352
Vhttp://slashdot.feedsportal.com/c/35028/f/647410/s/29f05ca6/l/0Lhardware0Bslashdot0Borg0Cstory0C130C0A30C240C20A252280Carchos0Egamepad0Ereleased0Ein0Ethe0Eusa0Dutm0Isource0Frss10B0Amainlinkanon0Gutm0Imedium0Ffeed/story01.htm
p353
sg7
V2013-03-24T20:48:00Z
p354
sS'slash_section'
p355
Vhardware
p356
sg58
g344
sg70
(lp357
g1
(g2
g3
(dtRp358
asS'author_detail'
p359
g1
(g2
g3
(dp360
g81
Vtimothy
p361
stRp362
sS'slash_hit_parade'
p363
V0,0,0,0,0,0,0
p364
sg155
Vhttp://slashdot.feedsportal.com/c/35028/f/647410/s/29f05ca6/l/0Lhardware0Bslashdot0Borg0Cstory0C130C0A30C240C20A252280Carchos0Egamepad0Ereleased0Ein0Ethe0Eusa0Dutm0Isource0Frss10B0Amainlinkanon0Gutm0Imedium0Ffeed/story01.htm
p365
sg92
g12
((I2013
I3
I24
I20
I48
I0
I6
I83
I0
t(dtRp366
sg63
VArchos Gamepad Released In the USA
p367
sg95
g361
sg160
VAn anonymous reader writes "Archos have finally released their much anticipated touchscreen gamepad in the USA. The console boasts a Arm Cortex Dual-core A9 1.6GHz cpu, 1024MB Ram, 8GB internal storage and uses the Android 4.1 Jelly Bean OS. The Gamepad has 14 physical buttons and dual analog thumb-sticks as well as a touchscreen which means the latest 3D Android games should work great and for fans of emulation the traditional gamepad design and buttons will make N64/PS1 emulators work great on the gamepad." CNET UK was unimpressed, calling it "a bitter disappointment"; IGN was more optimistic, especially at its sub-$200 price.<p><div class="share_submission"> <a class="slashpop" href="http://twitter.com/home?status=Archos+Gamepad+Released+In+the+USA\u005c%3A+http\u005c%3A\u005c%2F\u005c%2Fbit.ly\u005c%2F11Afcaq"><img src="http://a.fsdn.com/sd/twitter_icon_large.png" /></a> <a class="slashpop" href="http://www.facebook.com/sharer.php?u=http\u005c%3A\u005c%2F\u005c%2Fhardware.slashdot.org\u005c%2Fstory\u005c%2F13\u005c%2F03\u005c%2F24\u005c%2F2025228\u005c%2Farchos-gamepad-released-in-the-usa\u005c%3Futm_source\u005c%3Dslashdot\u005c%26utm_medium\u005c%3Dfacebook"><img src="http://a.fsdn.com/sd/facebook_icon_large.png" /></a> <a class="nobg" href="http://plus.google.com/share?url=http://hardware.slashdot.org/story/13/03/24/2025228/archos-gamepad-released-in-the-usa?utm_source=slashdot&amp;utm_medium=googleplus"><img alt="Share on Google+" src="http://www.gstatic.com/images/icons/gplus-16.png" /></a> </div></p><p><a href="http://hardware.slashdot.org/story/13/03/24/2025228/archos-gamepad-released-in-the-usa?utm_source=rss1.0moreanon&amp;utm_medium=feed">Read more of this story</a> at Slashdot.</p><img border="0" height="1" src="http://slashdot.feedsportal.com/c/35028/f/647410/s/29f05ca6/mf.gif" width="1" /><br /><br /><a href="http://da.feedsportal.com/r/161770431553/u/49/f/647410/c/35028/s/29f05ca6/a2.htm"><img border="0" src="http://da.feedsportal.com/r/161770431553/u/49/f/647410/c/35028/s/29f05ca6/a2.img" /></a><img border="0" height="1" src="http://pi.feedsportal.com/r/161770431553/u/49/f/647410/c/35028/s/29f05ca6/a2t.img" width="1" /><img height="1" src="http://feeds.feedburner.com/~r/Slashdot/slashdot/~4/VwoUjopGBoU" width="1" />
p368
sg162
I00
sS'title_detail'
p369
g1
(g2
g3
(dp370
g50
Vhttp://rss.slashdot.org/Slashdot/slashdot
p371
sg19
g52
sg53
Nsg54
g367
stRp372
sg107
VSun, 24 Mar 2013 20:48:00 GMT
p373
sg143
(lp374
g145
aV*
ag146
astRp375
ag1
(g2
g3
(dp376
g7
V2013-03-24T19:52:00Z
p377
sg11
g12
((I2013
I3
I24
I19
I52
I0
I6
I83
I0
t(dtRp378
sg14
(lp379
g1
(g2
g3
(dp380
g17
Vhttp://rss.slashdot.org/~r/Slashdot/slashdot/~3/R2zAuNQWbnQ/story01.htm
p381
sg19
g20
sg21
g22
stRp382
asg38
(lp383
g1
(g2
g3
(dp384
g41
Vbug
p385
sg43
Nsg44
NstRp386
asS'slash_department'
p387
Vand-it-can-be-yours-for-free
p388
sS'feedburner_origlink'
p389
Vhttp://slashdot.feedsportal.com/c/35028/f/647410/s/29ef6c32/l/0Llinux0Bslashdot0Borg0Cstory0C130C0A30C240C195220A0A0Cmatthew0Egarrett0Ehas0Ea0Efix0Eto0Eprevent0Ebricked0Euefi0Elinux0Elaptops0Dutm0Isource0Frss10B0Amainlinkanon0Gutm0Imedium0Ffeed/story01.htm
p390
sS'summary_detail'
p391
g1
(g2
g3
(dp392
g50
Vhttp://rss.slashdot.org/Slashdot/slashdot
p393
sg19
g100
sg53
Nsg54
Vhypnosec writes "UEFI guru Matthew Garrett, who cleared the Linux kernel in Samsung laptop bricking issues, has come to rescue beleaguered users by offering a survival guide enabling them to avoid similar issues. According to Garrett, storage space constraints in UEFI storage variables is the reason Samsung laptops end up bricking themselves. Garrett said that if the storage space utilized by the UEFI firmware is more than 50 percent full, the laptop will refuse to start and ends up being bricked. To prevent this from happening, he has provided a Kernel patch."<p><div class="share_submission"> <a class="slashpop" href="http://twitter.com/home?status=Matthew+Garrett+Has+a+Fix+To+Prevent+Bricked+UEFI+Linux+Laptops%3A+http%3A%2F%2Fbit.ly%2F11zeYMW"><img src="http://a.fsdn.com/sd/twitter_icon_large.png" /></a> <a class="slashpop" href="http://www.facebook.com/sharer.php?u=http%3A%2F%2Flinux.slashdot.org%2Fstory%2F13%2F03%2F24%2F1952200%2Fmatthew-garrett-has-a-fix-to-prevent-bricked-uefi-linux-laptops%3Futm_source%3Dslashdot%26utm_medium%3Dfacebook"><img src="http://a.fsdn.com/sd/facebook_icon_large.png" /></a> <a class="nobg" href="http://plus.google.com/share?url=http://linux.slashdot.org/story/13/03/24/1952200/matthew-garrett-has-a-fix-to-prevent-bricked-uefi-linux-laptops?utm_source=slashdot&amp;utm_medium=googleplus"><img alt="Share on Google+" src="http://www.gstatic.com/images/icons/gplus-16.png" /></a> </div></p><p><a href="http://linux.slashdot.org/story/13/03/24/1952200/matthew-garrett-has-a-fix-to-prevent-bricked-uefi-linux-laptops?utm_source=rss1.0moreanon&amp;utm_medium=feed">Read more of this story</a> at Slashdot.</p><img border="0" height="1" src="http://slashdot.feedsportal.com/c/35028/f/647410/s/29ef6c32/mf.gif" width="1" /><br /><br /><a href="http://da.feedsportal.com/r/161393758428/u/49/f/647410/c/35028/s/29ef6c32/a2.htm"><img border="0" src="http://da.feedsportal.com/r/161393758428/u/49/f/647410/c/35028/s/29ef6c32/a2.img" /></a><img border="0" height="1" src="http://pi.feedsportal.com/r/161393758428/u/49/f/647410/c/35028/s/29ef6c32/a2t.img" width="1" /><img height="1" src="http://feeds.feedburner.com/~r/Slashdot/slashdot/~4/R2zAuNQWbnQ" width="1" />
p394
stRp395
sS'slash_section'
p396
Vlinux
p397
sg143
(lp398
g145
aV*
ag146
asg70
(lp399
g1
(g2
g3
(dtRp400
asS'author_detail'
p401
g1
(g2
g3
(dp402
g81
Vtimothy
p403
stRp404
sS'slash_hit_parade'
p405
V2,2,1,1,0,0,0
p406
sg155
Vhttp://slashdot.feedsportal.com/c/35028/f/647410/s/29ef6c32/l/0Llinux0Bslashdot0Borg0Cstory0C130C0A30C240C195220A0A0Cmatthew0Egarrett0Ehas0Ea0Efix0Eto0Eprevent0Ebricked0Euefi0Elinux0Elaptops0Dutm0Isource0Frss10B0Amainlinkanon0Gutm0Imedium0Ffeed/story01.htm
p407
sS'slash_comments'
p408
V2
sg92
g12
((I2013
I3
I24
I19
I52
I0
I6
I83
I0
t(dtRp409
sg63
VMatthew Garrett Has a Fix To Prevent Bricked UEFI Linux Laptops
p410
sg95
g403
sg160
Vhypnosec writes "UEFI guru Matthew Garrett, who cleared the Linux kernel in Samsung laptop bricking issues, has come to rescue beleaguered users by offering a survival guide enabling them to avoid similar issues. According to Garrett, storage space constraints in UEFI storage variables is the reason Samsung laptops end up bricking themselves. Garrett said that if the storage space utilized by the UEFI firmware is more than 50 percent full, the laptop will refuse to start and ends up being bricked. To prevent this from happening, he has provided a Kernel patch."<p><div class="share_submission"> <a class="slashpop" href="http://twitter.com/home?status=Matthew+Garrett+Has+a+Fix+To+Prevent+Bricked+UEFI+Linux+Laptops\u005c%3A+http\u005c%3A\u005c%2F\u005c%2Fbit.ly\u005c%2F11zeYMW"><img src="http://a.fsdn.com/sd/twitter_icon_large.png" /></a> <a class="slashpop" href="http://www.facebook.com/sharer.php?u=http\u005c%3A\u005c%2F\u005c%2Flinux.slashdot.org\u005c%2Fstory\u005c%2F13\u005c%2F03\u005c%2F24\u005c%2F1952200\u005c%2Fmatthew-garrett-has-a-fix-to-prevent-bricked-uefi-linux-laptops\u005c%3Futm_source\u005c%3Dslashdot\u005c%26utm_medium\u005c%3Dfacebook"><img src="http://a.fsdn.com/sd/facebook_icon_large.png" /></a> <a class="nobg" href="http://plus.google.com/share?url=http://linux.slashdot.org/story/13/03/24/1952200/matthew-garrett-has-a-fix-to-prevent-bricked-uefi-linux-laptops?utm_source=slashdot&amp;utm_medium=googleplus"><img alt="Share on Google+" src="http://www.gstatic.com/images/icons/gplus-16.png" /></a> </div></p><p><a href="http://linux.slashdot.org/story/13/03/24/1952200/matthew-garrett-has-a-fix-to-prevent-bricked-uefi-linux-laptops?utm_source=rss1.0moreanon&amp;utm_medium=feed">Read more of this story</a> at Slashdot.</p><img border="0" height="1" src="http://slashdot.feedsportal.com/c/35028/f/647410/s/29ef6c32/mf.gif" width="1" /><br /><br /><a href="http://da.feedsportal.com/r/161393758428/u/49/f/647410/c/35028/s/29ef6c32/a2.htm"><img border="0" src="http://da.feedsportal.com/r/161393758428/u/49/f/647410/c/35028/s/29ef6c32/a2.img" /></a><img border="0" height="1" src="http://pi.feedsportal.com/r/161393758428/u/49/f/647410/c/35028/s/29ef6c32/a2t.img" width="1" /><img height="1" src="http://feeds.feedburner.com/~r/Slashdot/slashdot/~4/R2zAuNQWbnQ" width="1" />
p411
sg162
I00
sS'title_detail'
p412
g1
(g2
g3
(dp413
g50
Vhttp://rss.slashdot.org/Slashdot/slashdot
p414
sg19
g52
sg53
Nsg54
g410
stRp415
sg107
VSun, 24 Mar 2013 19:52:00 GMT
p416
sg58
g381
stRp417
ag1
(g2
g3
(dp418
g7
V2013-03-24T18:48:00Z
p419
sg11
g12
((I2013
I3
I24
I18
I48
I0
I6
I83
I0
t(dtRp420
sg14
(lp421
g1
(g2
g3
(dp422
g17
Vhttp://rss.slashdot.org/~r/Slashdot/slashdot/~3/Tc71COWfQVc/story01.htm
p423
sg19
g20
sg21
g22
stRp424
asg38
(lp425
g1
(g2
g3
(dp426
g41
Vgoogle
p427
sg43
Nsg44
NstRp428
asS'slash_department'
p429
Vthat-which-is-not-expressly-allowed
p430
sS'feedburner_origlink'
p431
Vhttp://slashdot.feedsportal.com/c/35028/f/647410/s/29ef4f8f/l/0Lyro0Bslashdot0Borg0Cstory0C130C0A30C240C184620A70Ctechcrunchexpanded0Edmca0Estill0Ehas0Elimits0Dutm0Isource0Frss10B0Amainlinkanon0Gutm0Imedium0Ffeed/story01.htm
p432
sS'summary_detail'
p433
g1
(g2
g3
(dp434
g50
Vhttp://rss.slashdot.org/Slashdot/slashdot
p435
sg19
g100
sg53
Nsg54
VAn anonymous reader writes "Last week, in a blow to the content industry, the Ninth Circuit granted Veoh a pyrrhic victory against Universal Music Group and clarified the scope of the Digital Millennium Copyright Act's safe harbor provisions for online service providers. By adopting a position taken by the Second Circuit in Viacom v. YouTube, the decision harmonized the law in two intellectually influential jurisdictions and set the standard in New York and California, national hubs for content creation and technological innovation. Going forward, tech startups will have more room to innovate while facing decreased risk of crippling financial liability. An article by two IP lawyers published today in TechCrunch simplifies and explains the scope of safe harbor protection in light of these rulings.<p><div class="share_submission"> <a class="slashpop" href="http://twitter.com/home?status=TechCrunch%3AExpanded+DMCA+Still+Has+Limits%3A+http%3A%2F%2Fbit.ly%2FZlxNQ2"><img src="http://a.fsdn.com/sd/twitter_icon_large.png" /></a> <a class="slashpop" href="http://www.facebook.com/sharer.php?u=http%3A%2F%2Fyro.slashdot.org%2Fstory%2F13%2F03%2F24%2F1846207%2Ftechcrunchexpanded-dmca-still-has-limits%3Futm_source%3Dslashdot%26utm_medium%3Dfacebook"><img src="http://a.fsdn.com/sd/facebook_icon_large.png" /></a> <a class="nobg" href="http://plus.google.com/share?url=http://yro.slashdot.org/story/13/03/24/1846207/techcrunchexpanded-dmca-still-has-limits?utm_source=slashdot&amp;utm_medium=googleplus"><img alt="Share on Google+" src="http://www.gstatic.com/images/icons/gplus-16.png" /></a> </div></p><p><a href="http://yro.slashdot.org/story/13/03/24/1846207/techcrunchexpanded-dmca-still-has-limits?utm_source=rss1.0moreanon&amp;utm_medium=feed">Read more of this story</a> at Slashdot.</p><img border="0" height="1" src="http://slashdot.feedsportal.com/c/35028/f/647410/s/29ef4f8f/mf.gif" width="1" /><br /><br /><a href="http://da.feedsportal.com/r/161393945618/u/49/f/647410/c/35028/s/29ef4f8f/a2.htm"><img border="0" src="http://da.feedsportal.com/r/161393945618/u/49/f/647410/c/35028/s/29ef4f8f/a2.img" /></a><img border="0" height="1" src="http://pi.feedsportal.com/r/161393945618/u/49/f/647410/c/35028/s/29ef4f8f/a2t.img" width="1" /><img height="1" src="http://feeds.feedburner.com/~r/Slashdot/slashdot/~4/Tc71COWfQVc" width="1" />
p436
stRp437
sS'slash_section'
p438
Vyro
p439
sg143
(lp440
g145
aV*
ag146
asg70
(lp441
g1
(g2
g3
(dtRp442
asS'author_detail'
p443
g1
(g2
g3
(dp444
g81
Vtimothy
p445
stRp446
sS'slash_hit_parade'
p447
V3,3,2,1,0,0,0
p448
sg155
Vhttp://slashdot.feedsportal.com/c/35028/f/647410/s/29ef4f8f/l/0Lyro0Bslashdot0Borg0Cstory0C130C0A30C240C184620A70Ctechcrunchexpanded0Edmca0Estill0Ehas0Elimits0Dutm0Isource0Frss10B0Amainlinkanon0Gutm0Imedium0Ffeed/story01.htm
p449
sS'slash_comments'
p450
V3
sg92
g12
((I2013
I3
I24
I18
I48
I0
I6
I83
I0
t(dtRp451
sg63
VTechCrunch:Expanded DMCA Still Has Limits
p452
sg95
g445
sg160
VAn anonymous reader writes "Last week, in a blow to the content industry, the Ninth Circuit granted Veoh a pyrrhic victory against Universal Music Group and clarified the scope of the Digital Millennium Copyright Act's safe harbor provisions for online service providers. By adopting a position taken by the Second Circuit in Viacom v. YouTube, the decision harmonized the law in two intellectually influential jurisdictions and set the standard in New York and California, national hubs for content creation and technological innovation. Going forward, tech startups will have more room to innovate while facing decreased risk of crippling financial liability. An article by two IP lawyers published today in TechCrunch simplifies and explains the scope of safe harbor protection in light of these rulings.<p><div class="share_submission"> <a class="slashpop" href="http://twitter.com/home?status=TechCrunch\u005c%3AExpanded+DMCA+Still+Has+Limits\u005c%3A+http\u005c%3A\u005c%2F\u005c%2Fbit.ly\u005c%2FZlxNQ2"><img src="http://a.fsdn.com/sd/twitter_icon_large.png" /></a> <a class="slashpop" href="http://www.facebook.com/sharer.php?u=http\u005c%3A\u005c%2F\u005c%2Fyro.slashdot.org\u005c%2Fstory\u005c%2F13\u005c%2F03\u005c%2F24\u005c%2F1846207\u005c%2Ftechcrunchexpanded-dmca-still-has-limits\u005c%3Futm_source\u005c%3Dslashdot\u005c%26utm_medium\u005c%3Dfacebook"><img src="http://a.fsdn.com/sd/facebook_icon_large.png" /></a> <a class="nobg" href="http://plus.google.com/share?url=http://yro.slashdot.org/story/13/03/24/1846207/techcrunchexpanded-dmca-still-has-limits?utm_source=slashdot&amp;utm_medium=googleplus"><img alt="Share on Google+" src="http://www.gstatic.com/images/icons/gplus-16.png" /></a> </div></p><p><a href="http://yro.slashdot.org/story/13/03/24/1846207/techcrunchexpanded-dmca-still-has-limits?utm_source=rss1.0moreanon&amp;utm_medium=feed">Read more of this story</a> at Slashdot.</p><img border="0" height="1" src="http://slashdot.feedsportal.com/c/35028/f/647410/s/29ef4f8f/mf.gif" width="1" /><br /><br /><a href="http://da.feedsportal.com/r/161393945618/u/49/f/647410/c/35028/s/29ef4f8f/a2.htm"><img border="0" src="http://da.feedsportal.com/r/161393945618/u/49/f/647410/c/35028/s/29ef4f8f/a2.img" /></a><img border="0" height="1" src="http://pi.feedsportal.com/r/161393945618/u/49/f/647410/c/35028/s/29ef4f8f/a2t.img" width="1" /><img height="1" src="http://feeds.feedburner.com/~r/Slashdot/slashdot/~4/Tc71COWfQVc" width="1" />
p453
sg162
I00
sS'title_detail'
p454
g1
(g2
g3
(dp455
g50
Vhttp://rss.slashdot.org/Slashdot/slashdot
p456
sg19
g52
sg53
Nsg54
g452
stRp457
sg107
VSun, 24 Mar 2013 18:48:00 GMT
p458
sg58
g423
stRp459
ag1
(g2
g3
(dp460
g7
V2013-03-24T17:45:00Z
p461
sg11
g12
((I2013
I3
I24
I17
I45
I0
I6
I83
I0
t(dtRp462
sg14
(lp463
g1
(g2
g3
(dp464
g17
Vhttp://rss.slashdot.org/~r/Slashdot/slashdot/~3/FjeArRO_gu4/story01.htm
p465
sg19
g20
sg21
g22
stRp466
asg38
(lp467
g1
(g2
g3
(dp468
g41
Vos
p469
sg43
Nsg44
NstRp470
asS'slash_department'
p471
Vpick-and-choose
p472
sS'feedburner_origlink'
p473
Vhttp://slashdot.feedsportal.com/c/35028/f/647410/s/29eea8c8/l/0Llinux0Bslashdot0Borg0Cstory0C130C0A30C240C17462120Cask0Eslashdot0Enew0Eto0Elinux0Ewhich0Edistro0Dutm0Isource0Frss10B0Amainlinkanon0Gutm0Imedium0Ffeed/story01.htm
p474
sS'summary_detail'
p475
g1
(g2
g3
(dp476
g50
Vhttp://rss.slashdot.org/Slashdot/slashdot
p477
sg19
g100
sg53
Nsg54
VAn anonymous reader writes "I'm a very new user to Linux looking for a distro that allows me to control and customize, but I'm not sure where to start. I had a friend install Ubuntu 12.04 on my computer, with the E17 window manager and somehow I managed to crash it during the copying of some non-important files and now my computer won't boot (the hardware's fine though). I've found descriptions of Arch Linux to be spot on to what I'm looking for and want (Slashdot user serviscope_minor mentioned Arch a couple weeks ago and it caught my attention), but my experience in the terminal is literally about an hour. That said, I really want to learn more, don't mind hard work, enjoy challenges, and am perfectly willing to spend hours and hours for months on end to learn command line. Any suggestions, projects to start with, books to read, or tutorials to do to try would be appreciated."<p><div class="share_submission"> <a class="slashpop" href="http://twitter.com/home?status=Ask+Slashdot%3A+New+To+Linux%3B+Which+Distro%3F%3A+http%3A%2F%2Fbit.ly%2FYpqD41"><img src="http://a.fsdn.com/sd/twitter_icon_large.png" /></a> <a class="slashpop" href="http://www.facebook.com/sharer.php?u=http%3A%2F%2Flinux.slashdot.org%2Fstory%2F13%2F03%2F24%2F1746212%2Fask-slashdot-new-to-linux-which-distro%3Futm_source%3Dslashdot%26utm_medium%3Dfacebook"><img src="http://a.fsdn.com/sd/facebook_icon_large.png" /></a> <a class="nobg" href="http://plus.google.com/share?url=http://linux.slashdot.org/story/13/03/24/1746212/ask-slashdot-new-to-linux-which-distro?utm_source=slashdot&amp;utm_medium=googleplus"><img alt="Share on Google+" src="http://www.gstatic.com/images/icons/gplus-16.png" /></a> </div></p><p><a href="http://linux.slashdot.org/story/13/03/24/1746212/ask-slashdot-new-to-linux-which-distro?utm_source=rss1.0moreanon&amp;utm_medium=feed">Read more of this story</a> at Slashdot.</p><img border="0" height="1" src="http://slashdot.feedsportal.com/c/35028/f/647410/s/29eea8c8/mf.gif" width="1" /><br /><br /><a href="http://da.feedsportal.com/r/161393756265/u/49/f/647410/c/35028/s/29eea8c8/a2.htm"><img border="0" src="http://da.feedsportal.com/r/161393756265/u/49/f/647410/c/35028/s/29eea8c8/a2.img" /></a><img border="0" height="1" src="http://pi.feedsportal.com/r/161393756265/u/49/f/647410/c/35028/s/29eea8c8/a2t.img" width="1" /><img height="1" src="http://feeds.feedburner.com/~r/Slashdot/slashdot/~4/FjeArRO_gu4" width="1" />
p478
stRp479
sS'slash_section'
p480
Vlinux
p481
sg143
(lp482
g145
aV*
ag146
asg70
(lp483
g1
(g2
g3
(dtRp484
asS'author_detail'
p485
g1
(g2
g3
(dp486
g81
Vtimothy
p487
stRp488
sS'slash_hit_parade'
p489
V31,27,9,4,0,0,0
p490
sg155
Vhttp://slashdot.feedsportal.com/c/35028/f/647410/s/29eea8c8/l/0Llinux0Bslashdot0Borg0Cstory0C130C0A30C240C17462120Cask0Eslashdot0Enew0Eto0Elinux0Ewhich0Edistro0Dutm0Isource0Frss10B0Amainlinkanon0Gutm0Imedium0Ffeed/story01.htm
p491
sS'slash_comments'
p492
V31
p493
sg92
g12
((I2013
I3
I24
I17
I45
I0
I6
I83
I0
t(dtRp494
sg63
VAsk Slashdot: New To Linux; Which Distro?
p495
sg95
g487
sg160
VAn anonymous reader writes "I'm a very new user to Linux looking for a distro that allows me to control and customize, but I'm not sure where to start. I had a friend install Ubuntu 12.04 on my computer, with the E17 window manager and somehow I managed to crash it during the copying of some non-important files and now my computer won't boot (the hardware's fine though). I've found descriptions of Arch Linux to be spot on to what I'm looking for and want (Slashdot user serviscope_minor mentioned Arch a couple weeks ago and it caught my attention), but my experience in the terminal is literally about an hour. That said, I really want to learn more, don't mind hard work, enjoy challenges, and am perfectly willing to spend hours and hours for months on end to learn command line. Any suggestions, projects to start with, books to read, or tutorials to do to try would be appreciated."<p><div class="share_submission"> <a class="slashpop" href="http://twitter.com/home?status=Ask+Slashdot\u005c%3A+New+To+Linux\u005c%3B+Which+Distro\u005c%3F\u005c%3A+http\u005c%3A\u005c%2F\u005c%2Fbit.ly\u005c%2FYpqD41"><img src="http://a.fsdn.com/sd/twitter_icon_large.png" /></a> <a class="slashpop" href="http://www.facebook.com/sharer.php?u=http\u005c%3A\u005c%2F\u005c%2Flinux.slashdot.org\u005c%2Fstory\u005c%2F13\u005c%2F03\u005c%2F24\u005c%2F1746212\u005c%2Fask-slashdot-new-to-linux-which-distro\u005c%3Futm_source\u005c%3Dslashdot\u005c%26utm_medium\u005c%3Dfacebook"><img src="http://a.fsdn.com/sd/facebook_icon_large.png" /></a> <a class="nobg" href="http://plus.google.com/share?url=http://linux.slashdot.org/story/13/03/24/1746212/ask-slashdot-new-to-linux-which-distro?utm_source=slashdot&amp;utm_medium=googleplus"><img alt="Share on Google+" src="http://www.gstatic.com/images/icons/gplus-16.png" /></a> </div></p><p><a href="http://linux.slashdot.org/story/13/03/24/1746212/ask-slashdot-new-to-linux-which-distro?utm_source=rss1.0moreanon&amp;utm_medium=feed">Read more of this story</a> at Slashdot.</p><img border="0" height="1" src="http://slashdot.feedsportal.com/c/35028/f/647410/s/29eea8c8/mf.gif" width="1" /><br /><br /><a href="http://da.feedsportal.com/r/161393756265/u/49/f/647410/c/35028/s/29eea8c8/a2.htm"><img border="0" src="http://da.feedsportal.com/r/161393756265/u/49/f/647410/c/35028/s/29eea8c8/a2.img" /></a><img border="0" height="1" src="http://pi.feedsportal.com/r/161393756265/u/49/f/647410/c/35028/s/29eea8c8/a2t.img" width="1" /><img height="1" src="http://feeds.feedburner.com/~r/Slashdot/slashdot/~4/FjeArRO_gu4" width="1" />
p496
sg162
I00
sS'title_detail'
p497
g1
(g2
g3
(dp498
g50
Vhttp://rss.slashdot.org/Slashdot/slashdot
p499
sg19
g52
sg53
Nsg54
g495
stRp500
sg107
VSun, 24 Mar 2013 17:45:00 GMT
p501
sg58
g465
stRp502
ag1
(g2
g3
(dp503
g7
V2013-03-24T16:25:00Z
p504
sg11
g12
((I2013
I3
I24
I16
I25
I0
I6
I83
I0
t(dtRp505
sg14
(lp506
g1
(g2
g3
(dp507
g17
Vhttp://rss.slashdot.org/~r/Slashdot/slashdot/~3/QUmd2yyJKs0/story01.htm
p508
sg19
g20
sg21
g22
stRp509
asg38
(lp510
g1
(g2
g3
(dp511
g41
Vdatabase
p512
sg43
Nsg44
NstRp513
asS'slash_department'
p514
Vonward-and-upward
p515
sS'feedburner_origlink'
p516
Vhttp://slashdot.feedsportal.com/c/35028/f/647410/s/29ee41ce/l/0Llinux0Bslashdot0Borg0Cstory0C130C0A30C240C1625240A0Clongest0Erunning0Elinux0Edistribution0Eslackware0Eadopts0Emariadb0Dutm0Isource0Frss10B0Amainlinkanon0Gutm0Imedium0Ffeed/story01.htm
p517
sS'summary_detail'
p518
g1
(g2
g3
(dp519
g50
Vhttp://rss.slashdot.org/Slashdot/slashdot
p520
sg19
g100
sg53
Nsg54
VFirst time accepted submitter Gerardo Zamudio writes with the news that Ur-distribution Slackware is replacing MySQL with MariaDB. From an update posted to the Slackware news feed yesterday: "This shouldn't really be a surprise on any level. The poll on LQ showed a large majority of our users were in favor of the change. It's my belief that the MariaDB Foundation will do a better job with the code, be more responsive to security concerns, and be more willing to work with the open source community. And while I don't think there is currently any issue with MySQL's licensing of the community edition for commercial uses, several threads on LQ showed that there is confusion about this, whereas with MariaDB the freedom to use the software is quite clear." (Here's a link to the mentioned poll.)<p><div class="share_submission"> <a class="slashpop" href="http://twitter.com/home?status=Longest+Running+Linux+Distribution+Slackware+Adopts+MariaDB%3A+http%3A%2F%2Fbit.ly%2FZgSpfL"><img src="http://a.fsdn.com/sd/twitter_icon_large.png" /></a> <a class="slashpop" href="http://www.facebook.com/sharer.php?u=http%3A%2F%2Flinux.slashdot.org%2Fstory%2F13%2F03%2F24%2F1625240%2Flongest-running-linux-distribution-slackware-adopts-mariadb%3Futm_source%3Dslashdot%26utm_medium%3Dfacebook"><img src="http://a.fsdn.com/sd/facebook_icon_large.png" /></a> <a class="nobg" href="http://plus.google.com/share?url=http://linux.slashdot.org/story/13/03/24/1625240/longest-running-linux-distribution-slackware-adopts-mariadb?utm_source=slashdot&amp;utm_medium=googleplus"><img alt="Share on Google+" src="http://www.gstatic.com/images/icons/gplus-16.png" /></a> </div></p><p><a href="http://linux.slashdot.org/story/13/03/24/1625240/longest-running-linux-distribution-slackware-adopts-mariadb?utm_source=rss1.0moreanon&amp;utm_medium=feed">Read more of this story</a> at Slashdot.</p><img border="0" height="1" src="http://slashdot.feedsportal.com/c/35028/f/647410/s/29ee41ce/mf.gif" width="1" /><br /><br /><a href="http://da.feedsportal.com/r/161393989857/u/49/f/647410/c/35028/s/29ee41ce/a2.htm"><img border="0" src="http://da.feedsportal.com/r/161393989857/u/49/f/647410/c/35028/s/29ee41ce/a2.img" /></a><img border="0" height="1" src="http://pi.feedsportal.com/r/161393989857/u/49/f/647410/c/35028/s/29ee41ce/a2t.img" width="1" /><img height="1" src="http://feeds.feedburner.com/~r/Slashdot/slashdot/~4/QUmd2yyJKs0" width="1" />
p521
stRp522
sS'slash_section'
p523
Vlinux
p524
sg143
(lp525
g145
aV*
ag146
asg70
(lp526
g1
(g2
g3
(dtRp527
asS'author_detail'
p528
g1
(g2
g3
(dp529
g81
Vtimothy
p530
stRp531
sS'slash_hit_parade'
p532
V5,5,0,0,0,0,0
p533
sg155
Vhttp://slashdot.feedsportal.com/c/35028/f/647410/s/29ee41ce/l/0Llinux0Bslashdot0Borg0Cstory0C130C0A30C240C1625240A0Clongest0Erunning0Elinux0Edistribution0Eslackware0Eadopts0Emariadb0Dutm0Isource0Frss10B0Amainlinkanon0Gutm0Imedium0Ffeed/story01.htm
p534
sS'slash_comments'
p535
V5
sg92
g12
((I2013
I3
I24
I16
I25
I0
I6
I83
I0
t(dtRp536
sg63
VLongest Running Linux Distribution Slackware Adopts MariaDB
p537
sg95
g530
sg160
VFirst time accepted submitter Gerardo Zamudio writes with the news that Ur-distribution Slackware is replacing MySQL with MariaDB. From an update posted to the Slackware news feed yesterday: "This shouldn't really be a surprise on any level. The poll on LQ showed a large majority of our users were in favor of the change. It's my belief that the MariaDB Foundation will do a better job with the code, be more responsive to security concerns, and be more willing to work with the open source community. And while I don't think there is currently any issue with MySQL's licensing of the community edition for commercial uses, several threads on LQ showed that there is confusion about this, whereas with MariaDB the freedom to use the software is quite clear." (Here's a link to the mentioned poll.)<p><div class="share_submission"> <a class="slashpop" href="http://twitter.com/home?status=Longest+Running+Linux+Distribution+Slackware+Adopts+MariaDB\u005c%3A+http\u005c%3A\u005c%2F\u005c%2Fbit.ly\u005c%2FZgSpfL"><img src="http://a.fsdn.com/sd/twitter_icon_large.png" /></a> <a class="slashpop" href="http://www.facebook.com/sharer.php?u=http\u005c%3A\u005c%2F\u005c%2Flinux.slashdot.org\u005c%2Fstory\u005c%2F13\u005c%2F03\u005c%2F24\u005c%2F1625240\u005c%2Flongest-running-linux-distribution-slackware-adopts-mariadb\u005c%3Futm_source\u005c%3Dslashdot\u005c%26utm_medium\u005c%3Dfacebook"><img src="http://a.fsdn.com/sd/facebook_icon_large.png" /></a> <a class="nobg" href="http://plus.google.com/share?url=http://linux.slashdot.org/story/13/03/24/1625240/longest-running-linux-distribution-slackware-adopts-mariadb?utm_source=slashdot&amp;utm_medium=googleplus"><img alt="Share on Google+" src="http://www.gstatic.com/images/icons/gplus-16.png" /></a> </div></p><p><a href="http://linux.slashdot.org/story/13/03/24/1625240/longest-running-linux-distribution-slackware-adopts-mariadb?utm_source=rss1.0moreanon&amp;utm_medium=feed">Read more of this story</a> at Slashdot.</p><img border="0" height="1" src="http://slashdot.feedsportal.com/c/35028/f/647410/s/29ee41ce/mf.gif" width="1" /><br /><br /><a href="http://da.feedsportal.com/r/161393989857/u/49/f/647410/c/35028/s/29ee41ce/a2.htm"><img border="0" src="http://da.feedsportal.com/r/161393989857/u/49/f/647410/c/35028/s/29ee41ce/a2.img" /></a><img border="0" height="1" src="http://pi.feedsportal.com/r/161393989857/u/49/f/647410/c/35028/s/29ee41ce/a2t.img" width="1" /><img height="1" src="http://feeds.feedburner.com/~r/Slashdot/slashdot/~4/QUmd2yyJKs0" width="1" />
p538
sg162
I00
sS'title_detail'
p539
g1
(g2
g3
(dp540
g50
Vhttp://rss.slashdot.org/Slashdot/slashdot
p541
sg19
g52
sg53
Nsg54
g537
stRp542
sg107
VSun, 24 Mar 2013 16:25:00 GMT
p543
sg58
g508
stRp544
ag1
(g2
g3
(dp545
S'summary_detail'
p546
g1
(g2
g3
(dp547
g50
Vhttp://rss.slashdot.org/Slashdot/slashdot
p548
sg19
g100
sg53
Nsg54
Vschwit1 writes "Rep. Steve Pearce (R-N.M.) wants to create a 'virtual Congress,' where lawmakers would leverage videoconferencing and other remote work technology to conduct their daily duties in Washington from their home districts. Under a resolution Pearce introduced on Thursday, lawmakers would be able to hold hearings, debate and vote on legislation virtually from their district offices. The big loser would be the DC area and K Street in particular. The change would also be a double-edged sword for security."<p><div class="share_submission"> <a class="slashpop" href="http://twitter.com/home?status=Should+Congress+Telecommute%3F%3A+http%3A%2F%2Fbit.ly%2F11zlIxZ"><img src="http://a.fsdn.com/sd/twitter_icon_large.png" /></a> <a class="slashpop" href="http://www.facebook.com/sharer.php?u=http%3A%2F%2Fyro.slashdot.org%2Fstory%2F13%2F03%2F24%2F1255255%2Fshould-congress-telecommute%3Futm_source%3Dslashdot%26utm_medium%3Dfacebook"><img src="http://a.fsdn.com/sd/facebook_icon_large.png" /></a> <a class="nobg" href="http://plus.google.com/share?url=http://yro.slashdot.org/story/13/03/24/1255255/should-congress-telecommute?utm_source=slashdot&amp;utm_medium=googleplus"><img alt="Share on Google+" src="http://www.gstatic.com/images/icons/gplus-16.png" /></a> </div></p><p><a href="http://yro.slashdot.org/story/13/03/24/1255255/should-congress-telecommute?utm_source=rss1.0moreanon&amp;utm_medium=feed">Read more of this story</a> at Slashdot.</p><img border="0" height="1" src="http://slashdot.feedsportal.com/c/35028/f/647410/s/29edcee3/mf.gif" width="1" /><br /><br /><a href="http://da.feedsportal.com/r/161393941717/u/49/f/647410/c/35028/s/29edcee3/a2.htm"><img border="0" src="http://da.feedsportal.com/r/161393941717/u/49/f/647410/c/35028/s/29edcee3/a2.img" /></a><img border="0" height="1" src="http://pi.feedsportal.com/r/161393941717/u/49/f/647410/c/35028/s/29edcee3/a2t.img" width="1" /><img height="1" src="http://feeds.feedburner.com/~r/Slashdot/slashdot/~4/fl-mz8loJ6Q" width="1" />
p549
stRp550
sg11
g12
((I2013
I3
I24
I15
I15
I0
I6
I83
I0
t(dtRp551
sg14
(lp552
g1
(g2
g3
(dp553
g17
Vhttp://rss.slashdot.org/~r/Slashdot/slashdot/~3/fl-mz8loJ6Q/story01.htm
p554
sg19
g20
sg21
g22
stRp555
asg38
(lp556
g1
(g2
g3
(dp557
g41
Vgovernment
p558
sg43
Nsg44
NstRp559
asS'slash_department'
p560
Vvirtual-personal-assistant-spam-convinced-him
p561
sS'feedburner_origlink'
p562
Vhttp://slashdot.feedsportal.com/c/35028/f/647410/s/29edcee3/l/0Lyro0Bslashdot0Borg0Cstory0C130C0A30C240C12552550Cshould0Econgress0Etelecommute0Dutm0Isource0Frss10B0Amainlinkanon0Gutm0Imedium0Ffeed/story01.htm
p563
sg7
V2013-03-24T15:15:00Z
p564
sS'slash_section'
p565
Vyro
p566
sg58
g554
sg70
(lp567
g1
(g2
g3
(dtRp568
asS'author_detail'
p569
g1
(g2
g3
(dp570
g81
Vtimothy
p571
stRp572
sS'slash_hit_parade'
p573
V0,0,0,0,0,0,0
p574
sg155
Vhttp://slashdot.feedsportal.com/c/35028/f/647410/s/29edcee3/l/0Lyro0Bslashdot0Borg0Cstory0C130C0A30C240C12552550Cshould0Econgress0Etelecommute0Dutm0Isource0Frss10B0Amainlinkanon0Gutm0Imedium0Ffeed/story01.htm
p575
sg92
g12
((I2013
I3
I24
I15
I15
I0
I6
I83
I0
t(dtRp576
sg63
VShould Congress Telecommute?
p577
sg95
g571
sg160
Vschwit1 writes "Rep. Steve Pearce (R-N.M.) wants to create a 'virtual Congress,' where lawmakers would leverage videoconferencing and other remote work technology to conduct their daily duties in Washington from their home districts. Under a resolution Pearce introduced on Thursday, lawmakers would be able to hold hearings, debate and vote on legislation virtually from their district offices. The big loser would be the DC area and K Street in particular. The change would also be a double-edged sword for security."<p><div class="share_submission"> <a class="slashpop" href="http://twitter.com/home?status=Should+Congress+Telecommute\u005c%3F\u005c%3A+http\u005c%3A\u005c%2F\u005c%2Fbit.ly\u005c%2F11zlIxZ"><img src="http://a.fsdn.com/sd/twitter_icon_large.png" /></a> <a class="slashpop" href="http://www.facebook.com/sharer.php?u=http\u005c%3A\u005c%2F\u005c%2Fyro.slashdot.org\u005c%2Fstory\u005c%2F13\u005c%2F03\u005c%2F24\u005c%2F1255255\u005c%2Fshould-congress-telecommute\u005c%3Futm_source\u005c%3Dslashdot\u005c%26utm_medium\u005c%3Dfacebook"><img src="http://a.fsdn.com/sd/facebook_icon_large.png" /></a> <a class="nobg" href="http://plus.google.com/share?url=http://yro.slashdot.org/story/13/03/24/1255255/should-congress-telecommute?utm_source=slashdot&amp;utm_medium=googleplus"><img alt="Share on Google+" src="http://www.gstatic.com/images/icons/gplus-16.png" /></a> </div></p><p><a href="http://yro.slashdot.org/story/13/03/24/1255255/should-congress-telecommute?utm_source=rss1.0moreanon&amp;utm_medium=feed">Read more of this story</a> at Slashdot.</p><img border="0" height="1" src="http://slashdot.feedsportal.com/c/35028/f/647410/s/29edcee3/mf.gif" width="1" /><br /><br /><a href="http://da.feedsportal.com/r/161393941717/u/49/f/647410/c/35028/s/29edcee3/a2.htm"><img border="0" src="http://da.feedsportal.com/r/161393941717/u/49/f/647410/c/35028/s/29edcee3/a2.img" /></a><img border="0" height="1" src="http://pi.feedsportal.com/r/161393941717/u/49/f/647410/c/35028/s/29edcee3/a2t.img" width="1" /><img height="1" src="http://feeds.feedburner.com/~r/Slashdot/slashdot/~4/fl-mz8loJ6Q" width="1" />
p578
sg162
I00
sS'title_detail'
p579
g1
(g2
g3
(dp580
g50
Vhttp://rss.slashdot.org/Slashdot/slashdot
p581
sg19
g52
sg53
Nsg54
g577
stRp582
sg107
VSun, 24 Mar 2013 15:15:00 GMT
p583
sg143
(lp584
g145
aV*
ag146
astRp585
ag1
(g2
g3
(dp586
S'summary_detail'
p587
g1
(g2
g3
(dp588
g50
Vhttp://rss.slashdot.org/Slashdot/slashdot
p589
sg19
g100
sg53
Nsg54
VAn anonymous reader writes with this snippet from CBC News: " It's not often that Canadian real estate listings make international headlines, but a mid-sized Alberta bungalow has people around the world buzzing today after its owner declared that he would like to sell it &mdash; for Bitcoins. If successful, 22-year-old entrepreneur Taylor More would be the first person ever to accept the fast-rising virtual currency in exchange for property. 'My home is being traded for Bitcoins!' reads the listing for More's 'quaint' two bedroom home in Crowsnest Pass, Alberta. ... The property is listed for $405,000 CDN, but More writes that 'the price can be reduced" if a buyer has some Bitcoins to spare.'"<p><div class="share_submission"> <a class="slashpop" href="http://twitter.com/home?status=Canadian+Man+Wants+To+Trade+Home+For+Bitcoins%3A+http%3A%2F%2Fbit.ly%2F104Xe9s"><img src="http://a.fsdn.com/sd/twitter_icon_large.png" /></a> <a class="slashpop" href="http://www.facebook.com/sharer.php?u=http%3A%2F%2Fnews.slashdot.org%2Fstory%2F13%2F03%2F24%2F130215%2Fcanadian-man-wants-to-trade-home-for-bitcoins%3Futm_source%3Dslashdot%26utm_medium%3Dfacebook"><img src="http://a.fsdn.com/sd/facebook_icon_large.png" /></a> <a class="nobg" href="http://plus.google.com/share?url=http://news.slashdot.org/story/13/03/24/130215/canadian-man-wants-to-trade-home-for-bitcoins?utm_source=slashdot&amp;utm_medium=googleplus"><img alt="Share on Google+" src="http://www.gstatic.com/images/icons/gplus-16.png" /></a> </div></p><p><a href="http://news.slashdot.org/story/13/03/24/130215/canadian-man-wants-to-trade-home-for-bitcoins?utm_source=rss1.0moreanon&amp;utm_medium=feed">Read more of this story</a> at Slashdot.</p><img border="0" height="1" src="http://slashdot.feedsportal.com/c/35028/f/647410/s/29edeeac/mf.gif" width="1" /><br /><br /><a href="http://da.feedsportal.com/r/161393752861/u/49/f/647410/c/35028/s/29edeeac/a2.htm"><img border="0" src="http://da.feedsportal.com/r/161393752861/u/49/f/647410/c/35028/s/29edeeac/a2.img" /></a><img border="0" height="1" src="http://pi.feedsportal.com/r/161393752861/u/49/f/647410/c/35028/s/29edeeac/a2t.img" width="1" /><img height="1" src="http://feeds.feedburner.com/~r/Slashdot/slashdot/~4/G9MaRkqAwCU" width="1" />
p590
stRp591
sg11
g12
((I2013
I3
I24
I14
I39
I0
I6
I83
I0
t(dtRp592
sg14
(lp593
g1
(g2
g3
(dp594
g17
Vhttp://rss.slashdot.org/~r/Slashdot/slashdot/~3/G9MaRkqAwCU/story01.htm
p595
sg19
g20
sg21
g22
stRp596
asg38
(lp597
g1
(g2
g3
(dp598
g41
Vbitcoin
p599
sg43
Nsg44
NstRp600
asS'slash_department'
p601
Vliving-in-the-matrix-now
p602
sS'feedburner_origlink'
p603
Vhttp://slashdot.feedsportal.com/c/35028/f/647410/s/29edeeac/l/0Lnews0Bslashdot0Borg0Cstory0C130C0A30C240C130A2150Ccanadian0Eman0Ewants0Eto0Etrade0Ehome0Efor0Ebitcoins0Dutm0Isource0Frss10B0Amainlinkanon0Gutm0Imedium0Ffeed/story01.htm
p604
sg7
V2013-03-24T14:39:00Z
p605
sS'slash_section'
p606
Vnews
p607
sg58
g595
sg70
(lp608
g1
(g2
g3
(dtRp609
asS'author_detail'
p610
g1
(g2
g3
(dp611
g81
Vtimothy
p612
stRp613
sS'slash_hit_parade'
p614
V0,0,0,0,0,0,0
p615
sg155
Vhttp://slashdot.feedsportal.com/c/35028/f/647410/s/29edeeac/l/0Lnews0Bslashdot0Borg0Cstory0C130C0A30C240C130A2150Ccanadian0Eman0Ewants0Eto0Etrade0Ehome0Efor0Ebitcoins0Dutm0Isource0Frss10B0Amainlinkanon0Gutm0Imedium0Ffeed/story01.htm
p616
sg92
g12
((I2013
I3
I24
I14
I39
I0
I6
I83
I0
t(dtRp617
sg63
VCanadian Man Wants To Trade Home For Bitcoins
p618
sg95
g612
sg160
VAn anonymous reader writes with this snippet from CBC News: " It's not often that Canadian real estate listings make international headlines, but a mid-sized Alberta bungalow has people around the world buzzing today after its owner declared that he would like to sell it &mdash; for Bitcoins. If successful, 22-year-old entrepreneur Taylor More would be the first person ever to accept the fast-rising virtual currency in exchange for property. 'My home is being traded for Bitcoins!' reads the listing for More's 'quaint' two bedroom home in Crowsnest Pass, Alberta. ... The property is listed for $405,000 CDN, but More writes that 'the price can be reduced" if a buyer has some Bitcoins to spare.'"<p><div class="share_submission"> <a class="slashpop" href="http://twitter.com/home?status=Canadian+Man+Wants+To+Trade+Home+For+Bitcoins\u005c%3A+http\u005c%3A\u005c%2F\u005c%2Fbit.ly\u005c%2F104Xe9s"><img src="http://a.fsdn.com/sd/twitter_icon_large.png" /></a> <a class="slashpop" href="http://www.facebook.com/sharer.php?u=http\u005c%3A\u005c%2F\u005c%2Fnews.slashdot.org\u005c%2Fstory\u005c%2F13\u005c%2F03\u005c%2F24\u005c%2F130215\u005c%2Fcanadian-man-wants-to-trade-home-for-bitcoins\u005c%3Futm_source\u005c%3Dslashdot\u005c%26utm_medium\u005c%3Dfacebook"><img src="http://a.fsdn.com/sd/facebook_icon_large.png" /></a> <a class="nobg" href="http://plus.google.com/share?url=http://news.slashdot.org/story/13/03/24/130215/canadian-man-wants-to-trade-home-for-bitcoins?utm_source=slashdot&amp;utm_medium=googleplus"><img alt="Share on Google+" src="http://www.gstatic.com/images/icons/gplus-16.png" /></a> </div></p><p><a href="http://news.slashdot.org/story/13/03/24/130215/canadian-man-wants-to-trade-home-for-bitcoins?utm_source=rss1.0moreanon&amp;utm_medium=feed">Read more of this story</a> at Slashdot.</p><img border="0" height="1" src="http://slashdot.feedsportal.com/c/35028/f/647410/s/29edeeac/mf.gif" width="1" /><br /><br /><a href="http://da.feedsportal.com/r/161393752861/u/49/f/647410/c/35028/s/29edeeac/a2.htm"><img border="0" src="http://da.feedsportal.com/r/161393752861/u/49/f/647410/c/35028/s/29edeeac/a2.img" /></a><img border="0" height="1" src="http://pi.feedsportal.com/r/161393752861/u/49/f/647410/c/35028/s/29edeeac/a2t.img" width="1" /><img height="1" src="http://feeds.feedburner.com/~r/Slashdot/slashdot/~4/G9MaRkqAwCU" width="1" />
p619
sg162
I00
sS'title_detail'
p620
g1
(g2
g3
(dp621
g50
Vhttp://rss.slashdot.org/Slashdot/slashdot
p622
sg19
g52
sg53
Nsg54
g618
stRp623
sg107
VSun, 24 Mar 2013 14:39:00 GMT
p624
sg143
(lp625
g145
aV*
ag146
astRp626
ag1
(g2
g3
(dp627
g7
V2013-03-24T14:18:00Z
p628
sg11
g12
((I2013
I3
I24
I14
I18
I0
I6
I83
I0
t(dtRp629
sg14
(lp630
g1
(g2
g3
(dp631
g17
Vhttp://rss.slashdot.org/~r/Slashdot/slashdot/~3/xRwOjSfZ49A/story01.htm
p632
sg19
g20
sg21
g22
stRp633
asg38
(lp634
g1
(g2
g3
(dp635
g41
Vinternet
p636
sg43
Nsg44
NstRp637
asS'slash_department'
p638
Vwish-the-government-would-be-neutral-toward-the-net
p639
sS'feedburner_origlink'
p640
Vhttp://slashdot.feedsportal.com/c/35028/f/647410/s/29eda3ec/l/0Lpolitics0Bslashdot0Borg0Cstory0C130C0A30C240C13282190Cfcc0Echair0Egenachowski0Eresigns0Ewhat0Eeffect0Eon0Enet0Eregulation0Dutm0Isource0Frss10B0Amainlinkanon0Gutm0Imedium0Ffeed/story01.htm
p641
sS'summary_detail'
p642
g1
(g2
g3
(dp643
g50
Vhttp://rss.slashdot.org/Slashdot/slashdot
p644
sg19
g100
sg53
Nsg54
VNew submitter RougeFemme writes with news of Friday's announcement that FCC chairman Julius Genachowski will step down in the next several weeks (also at Politico), and asks "Obama promised us the continuation of a free, open Internet. Will the resignation of the FCC chairman have any affect on that 'net neutrality'?"<p><div class="share_submission"> <a class="slashpop" href="http://twitter.com/home?status=FCC+Chair+Genachowski+Resigns%3B+What+Effect+on+Net+Regulation%3F%3A+http%3A%2F%2Fbit.ly%2F11zcCkO"><img src="http://a.fsdn.com/sd/twitter_icon_large.png" /></a> <a class="slashpop" href="http://www.facebook.com/sharer.php?u=http%3A%2F%2Fpolitics.slashdot.org%2Fstory%2F13%2F03%2F24%2F1328219%2Ffcc-chair-genachowski-resigns-what-effect-on-net-regulation%3Futm_source%3Dslashdot%26utm_medium%3Dfacebook"><img src="http://a.fsdn.com/sd/facebook_icon_large.png" /></a> <a class="nobg" href="http://plus.google.com/share?url=http://politics.slashdot.org/story/13/03/24/1328219/fcc-chair-genachowski-resigns-what-effect-on-net-regulation?utm_source=slashdot&amp;utm_medium=googleplus"><img alt="Share on Google+" src="http://www.gstatic.com/images/icons/gplus-16.png" /></a> </div></p><p><a href="http://politics.slashdot.org/story/13/03/24/1328219/fcc-chair-genachowski-resigns-what-effect-on-net-regulation?utm_source=rss1.0moreanon&amp;utm_medium=feed">Read more of this story</a> at Slashdot.</p><img border="0" height="1" src="http://slashdot.feedsportal.com/c/35028/f/647410/s/29eda3ec/mf.gif" width="1" /><br /><br /><a href="http://da.feedsportal.com/r/161393987560/u/49/f/647410/c/35028/s/29eda3ec/a2.htm"><img border="0" src="http://da.feedsportal.com/r/161393987560/u/49/f/647410/c/35028/s/29eda3ec/a2.img" /></a><img border="0" height="1" src="http://pi.feedsportal.com/r/161393987560/u/49/f/647410/c/35028/s/29eda3ec/a2t.img" width="1" /><img height="1" src="http://feeds.feedburner.com/~r/Slashdot/slashdot/~4/xRwOjSfZ49A" width="1" />
p645
stRp646
sS'slash_section'
p647
Vpolitics
p648
sg143
(lp649
g145
aV*
ag146
asg70
(lp650
g1
(g2
g3
(dtRp651
asS'author_detail'
p652
g1
(g2
g3
(dp653
g81
Vtimothy
p654
stRp655
sS'slash_hit_parade'
p656
V1,1,0,0,0,0,0
p657
sg155
Vhttp://slashdot.feedsportal.com/c/35028/f/647410/s/29eda3ec/l/0Lpolitics0Bslashdot0Borg0Cstory0C130C0A30C240C13282190Cfcc0Echair0Egenachowski0Eresigns0Ewhat0Eeffect0Eon0Enet0Eregulation0Dutm0Isource0Frss10B0Amainlinkanon0Gutm0Imedium0Ffeed/story01.htm
p658
sS'slash_comments'
p659
V1
sg92
g12
((I2013
I3
I24
I14
I18
I0
I6
I83
I0
t(dtRp660
sg63
VFCC Chair Genachowski Resigns; What Effect on Net Regulation?
p661
sg95
g654
sg160
VNew submitter RougeFemme writes with news of Friday's announcement that FCC chairman Julius Genachowski will step down in the next several weeks (also at Politico), and asks "Obama promised us the continuation of a free, open Internet. Will the resignation of the FCC chairman have any affect on that 'net neutrality'?"<p><div class="share_submission"> <a class="slashpop" href="http://twitter.com/home?status=FCC+Chair+Genachowski+Resigns\u005c%3B+What+Effect+on+Net+Regulation\u005c%3F\u005c%3A+http\u005c%3A\u005c%2F\u005c%2Fbit.ly\u005c%2F11zcCkO"><img src="http://a.fsdn.com/sd/twitter_icon_large.png" /></a> <a class="slashpop" href="http://www.facebook.com/sharer.php?u=http\u005c%3A\u005c%2F\u005c%2Fpolitics.slashdot.org\u005c%2Fstory\u005c%2F13\u005c%2F03\u005c%2F24\u005c%2F1328219\u005c%2Ffcc-chair-genachowski-resigns-what-effect-on-net-regulation\u005c%3Futm_source\u005c%3Dslashdot\u005c%26utm_medium\u005c%3Dfacebook"><img src="http://a.fsdn.com/sd/facebook_icon_large.png" /></a> <a class="nobg" href="http://plus.google.com/share?url=http://politics.slashdot.org/story/13/03/24/1328219/fcc-chair-genachowski-resigns-what-effect-on-net-regulation?utm_source=slashdot&amp;utm_medium=googleplus"><img alt="Share on Google+" src="http://www.gstatic.com/images/icons/gplus-16.png" /></a> </div></p><p><a href="http://politics.slashdot.org/story/13/03/24/1328219/fcc-chair-genachowski-resigns-what-effect-on-net-regulation?utm_source=rss1.0moreanon&amp;utm_medium=feed">Read more of this story</a> at Slashdot.</p><img border="0" height="1" src="http://slashdot.feedsportal.com/c/35028/f/647410/s/29eda3ec/mf.gif" width="1" /><br /><br /><a href="http://da.feedsportal.com/r/161393987560/u/49/f/647410/c/35028/s/29eda3ec/a2.htm"><img border="0" src="http://da.feedsportal.com/r/161393987560/u/49/f/647410/c/35028/s/29eda3ec/a2.img" /></a><img border="0" height="1" src="http://pi.feedsportal.com/r/161393987560/u/49/f/647410/c/35028/s/29eda3ec/a2t.img" width="1" /><img height="1" src="http://feeds.feedburner.com/~r/Slashdot/slashdot/~4/xRwOjSfZ49A" width="1" />
p662
sg162
I00
sS'title_detail'
p663
g1
(g2
g3
(dp664
g50
Vhttp://rss.slashdot.org/Slashdot/slashdot
p665
sg19
g52
sg53
Nsg54
g661
stRp666
sg107
VSun, 24 Mar 2013 14:18:00 GMT
p667
sg58
g632
stRp668
ag1
(g2
g3
(dp669
g7
V2013-03-24T13:20:00Z
p670
sg11
g12
((I2013
I3
I24
I13
I20
I0
I6
I83
I0
t(dtRp671
sg14
(lp672
g1
(g2
g3
(dp673
g17
Vhttp://rss.slashdot.org/~r/Slashdot/slashdot/~3/bFJ3JNjXhZ8/story01.htm
p674
sg19
g20
sg21
g22
stRp675
asg38
(lp676
g1
(g2
g3
(dp677
g41
Vkde
p678
sg43
Nsg44
NstRp679
asS'slash_department'
p680
Vcomputer-behaving-badly
p681
sS'feedburner_origlink'
p682
Vhttp://slashdot.feedsportal.com/c/35028/f/647410/s/29ed351a/l/0Lit0Bslashdot0Borg0Cstory0C130C0A30C240C12522370Ctoo0Eperfect0Ea0Emirror0Dutm0Isource0Frss10B0Amainlinkanon0Gutm0Imedium0Ffeed/story01.htm
p683
sS'summary_detail'
p684
g1
(g2
g3
(dp685
g50
Vhttp://rss.slashdot.org/Slashdot/slashdot
p686
sg19
g100
sg53
Nsg54
VCarewolf writes "Jeff Mitchell writes on his blog about what almost became 'The Great KDE Disaster Of 2013.' It all started as simple update of the root git server and ended up with a corrupt git repository automatically mirrored to every mirror and deleting every copy of most KDE repositories. It ends by discussing what the problem is with git --mirror and how you can avoid similar problems in the future."<p><div class="share_submission"> <a class="slashpop" href="http://twitter.com/home?status=Too+Perfect+a+Mirror%3A+http%3A%2F%2Fbit.ly%2FYND96S"><img src="http://a.fsdn.com/sd/twitter_icon_large.png" /></a> <a class="slashpop" href="http://www.facebook.com/sharer.php?u=http%3A%2F%2Fit.slashdot.org%2Fstory%2F13%2F03%2F24%2F1252237%2Ftoo-perfect-a-mirror%3Futm_source%3Dslashdot%26utm_medium%3Dfacebook"><img src="http://a.fsdn.com/sd/facebook_icon_large.png" /></a> <a class="nobg" href="http://plus.google.com/share?url=http://it.slashdot.org/story/13/03/24/1252237/too-perfect-a-mirror?utm_source=slashdot&amp;utm_medium=googleplus"><img alt="Share on Google+" src="http://www.gstatic.com/images/icons/gplus-16.png" /></a> </div></p><p><a href="http://it.slashdot.org/story/13/03/24/1252237/too-perfect-a-mirror?utm_source=rss1.0moreanon&amp;utm_medium=feed">Read more of this story</a> at Slashdot.</p><img border="0" height="1" src="http://slashdot.feedsportal.com/c/35028/f/647410/s/29ed351a/mf.gif" width="1" /><br /><br /><a href="http://da.feedsportal.com/r/161393939855/u/49/f/647410/c/35028/s/29ed351a/a2.htm"><img border="0" src="http://da.feedsportal.com/r/161393939855/u/49/f/647410/c/35028/s/29ed351a/a2.img" /></a><img border="0" height="1" src="http://pi.feedsportal.com/r/161393939855/u/49/f/647410/c/35028/s/29ed351a/a2t.img" width="1" /><img height="1" src="http://feeds.feedburner.com/~r/Slashdot/slashdot/~4/bFJ3JNjXhZ8" width="1" />
p687
stRp688
sS'slash_section'
p689
Vit
p690
sg143
(lp691
g145
aV*
ag146
asg70
(lp692
g1
(g2
g3
(dtRp693
asS'author_detail'
p694
g1
(g2
g3
(dp695
g81
Vtimothy
p696
stRp697
sS'slash_hit_parade'
p698
V2,2,2,2,0,0,0
p699
sg155
Vhttp://slashdot.feedsportal.com/c/35028/f/647410/s/29ed351a/l/0Lit0Bslashdot0Borg0Cstory0C130C0A30C240C12522370Ctoo0Eperfect0Ea0Emirror0Dutm0Isource0Frss10B0Amainlinkanon0Gutm0Imedium0Ffeed/story01.htm
p700
sS'slash_comments'
p701
V2
sg92
g12
((I2013
I3
I24
I13
I20
I0
I6
I83
I0
t(dtRp702
sg63
VToo Perfect a Mirror
p703
sg95
g696
sg160
VCarewolf writes "Jeff Mitchell writes on his blog about what almost became 'The Great KDE Disaster Of 2013.' It all started as simple update of the root git server and ended up with a corrupt git repository automatically mirrored to every mirror and deleting every copy of most KDE repositories. It ends by discussing what the problem is with git --mirror and how you can avoid similar problems in the future."<p><div class="share_submission"> <a class="slashpop" href="http://twitter.com/home?status=Too+Perfect+a+Mirror\u005c%3A+http\u005c%3A\u005c%2F\u005c%2Fbit.ly\u005c%2FYND96S"><img src="http://a.fsdn.com/sd/twitter_icon_large.png" /></a> <a class="slashpop" href="http://www.facebook.com/sharer.php?u=http\u005c%3A\u005c%2F\u005c%2Fit.slashdot.org\u005c%2Fstory\u005c%2F13\u005c%2F03\u005c%2F24\u005c%2F1252237\u005c%2Ftoo-perfect-a-mirror\u005c%3Futm_source\u005c%3Dslashdot\u005c%26utm_medium\u005c%3Dfacebook"><img src="http://a.fsdn.com/sd/facebook_icon_large.png" /></a> <a class="nobg" href="http://plus.google.com/share?url=http://it.slashdot.org/story/13/03/24/1252237/too-perfect-a-mirror?utm_source=slashdot&amp;utm_medium=googleplus"><img alt="Share on Google+" src="http://www.gstatic.com/images/icons/gplus-16.png" /></a> </div></p><p><a href="http://it.slashdot.org/story/13/03/24/1252237/too-perfect-a-mirror?utm_source=rss1.0moreanon&amp;utm_medium=feed">Read more of this story</a> at Slashdot.</p><img border="0" height="1" src="http://slashdot.feedsportal.com/c/35028/f/647410/s/29ed351a/mf.gif" width="1" /><br /><br /><a href="http://da.feedsportal.com/r/161393939855/u/49/f/647410/c/35028/s/29ed351a/a2.htm"><img border="0" src="http://da.feedsportal.com/r/161393939855/u/49/f/647410/c/35028/s/29ed351a/a2.img" /></a><img border="0" height="1" src="http://pi.feedsportal.com/r/161393939855/u/49/f/647410/c/35028/s/29ed351a/a2t.img" width="1" /><img height="1" src="http://feeds.feedburner.com/~r/Slashdot/slashdot/~4/bFJ3JNjXhZ8" width="1" />
p704
sg162
I00
sS'title_detail'
p705
g1
(g2
g3
(dp706
g50
Vhttp://rss.slashdot.org/Slashdot/slashdot
p707
sg19
g52
sg53
Nsg54
g703
stRp708
sg107
VSun, 24 Mar 2013 13:20:00 GMT
p709
sg58
g674
stRp710
ag1
(g2
g3
(dp711
g7
V2013-03-24T12:24:00Z
p712
sg11
g12
((I2013
I3
I24
I12
I24
I0
I6
I83
I0
t(dtRp713
sg14
(lp714
g1
(g2
g3
(dp715
g17
Vhttp://rss.slashdot.org/~r/Slashdot/slashdot/~3/NeHcO9KSi-w/story01.htm
p716
sg19
g20
sg21
g22
stRp717
asg38
(lp718
g1
(g2
g3
(dp719
g41
Vpower
p720
sg43
Nsg44
NstRp721
asS'slash_department'
p722
Vyes-but-do-you-have-a-lobby
p723
sS'feedburner_origlink'
p724
Vhttp://slashdot.feedsportal.com/c/35028/f/647410/s/29ed0731/l/0Lhardware0Bslashdot0Borg0Cstory0C130C0A30C230C22252330Cenergy0Ebeet0Epower0Eis0Ecoming0Eto0Eamerica0Dutm0Isource0Frss10B0Amainlinkanon0Gutm0Imedium0Ffeed/story01.htm
p725
sS'summary_detail'
p726
g1
(g2
g3
(dp727
g50
Vhttp://rss.slashdot.org/Slashdot/slashdot
p728
sg19
g100
sg53
Nsg54
VHugh Pickens writes writes "Gosia Wonzniacka reports that farmers in Fresno County, California, supported by university experts and a $5 million state grant, are set to start construction of the nation's first commercial-scale bio-refinery to turn beets into biofuel with farmers saying the so-called 'energy beets' can deliver ethanol yields more than twice those of corn per acre because beets have a higher sugar content per ton than corn. 'We're trying to reduce greenhouse gas emissions and to shift our transportation fuels to a lower carbon content,' says Robert Weisenmiller. 'The beets have the potential to provide that.' Europe already has more than a dozen such plants, so the bio-refinery would resurrect a crop that has nearly vanished. The birthplace of the sugar beet industry, California once grew over 330,000 acres of the gnarly root vegetable (PDF), with 11 sugar mills processing the beets but as sugar prices collapsed, the mills shut down. So what's the difference between sugar beets and energy beets? To produce table sugar, producers are looking for sucrose, sucrose and more sucrose. Energy beets, on the other hand, contain multiple sugars, meaning sucrose as well as glucose, fructose and other minor sugars, called invert sugars. To create energy beet hybrids, plant breeders select for traits such as high sugar yield, not just sucrose production. America's first commercial energy beet bio-refinery will be capable of producing 40 million gallons of ethanol annually but the bio-refinery will also bring jobs and investment, putting about 80 beet growers and 35,000 acres back into production."<p><div class="share_submission"> <a class="slashpop" href="http://twitter.com/home?status='Energy+Beet'+Power+Is+Coming+To+America%3A+http%3A%2F%2Fbit.ly%2F14mrdRA"><img src="http://a.fsdn.com/sd/twitter_icon_large.png" /></a> <a class="slashpop" href="http://www.facebook.com/sharer.php?u=http%3A%2F%2Fhardware.slashdot.org%2Fstory%2F13%2F03%2F23%2F2225233%2Fenergy-beet-power-is-coming-to-america%3Futm_source%3Dslashdot%26utm_medium%3Dfacebook"><img src="http://a.fsdn.com/sd/facebook_icon_large.png" /></a> <a class="nobg" href="http://plus.google.com/share?url=http://hardware.slashdot.org/story/13/03/23/2225233/energy-beet-power-is-coming-to-america?utm_source=slashdot&amp;utm_medium=googleplus"><img alt="Share on Google+" src="http://www.gstatic.com/images/icons/gplus-16.png" /></a> </div></p><p><a href="http://hardware.slashdot.org/story/13/03/23/2225233/energy-beet-power-is-coming-to-america?utm_source=rss1.0moreanon&amp;utm_medium=feed">Read more of this story</a> at Slashdot.</p><img border="0" height="1" src="http://slashdot.feedsportal.com/c/35028/f/647410/s/29ed0731/mf.gif" width="1" /><br /><br /><a href="http://da.feedsportal.com/r/161393800863/u/49/f/647410/c/35028/s/29ed0731/a2.htm"><img border="0" src="http://da.feedsportal.com/r/161393800863/u/49/f/647410/c/35028/s/29ed0731/a2.img" /></a><img border="0" height="1" src="http://pi.feedsportal.com/r/161393800863/u/49/f/647410/c/35028/s/29ed0731/a2t.img" width="1" /><img height="1" src="http://feeds.feedburner.com/~r/Slashdot/slashdot/~4/NeHcO9KSi-w" width="1" />
p729
stRp730
sS'slash_section'
p731
Vhardware
p732
sg143
(lp733
g145
aV*
ag146
asg70
(lp734
g1
(g2
g3
(dtRp735
asS'author_detail'
p736
g1
(g2
g3
(dp737
g81
Vtimothy
p738
stRp739
sS'slash_hit_parade'
p740
V5,4,3,2,0,0,0
p741
sg155
Vhttp://slashdot.feedsportal.com/c/35028/f/647410/s/29ed0731/l/0Lhardware0Bslashdot0Borg0Cstory0C130C0A30C230C22252330Cenergy0Ebeet0Epower0Eis0Ecoming0Eto0Eamerica0Dutm0Isource0Frss10B0Amainlinkanon0Gutm0Imedium0Ffeed/story01.htm
p742
sS'slash_comments'
p743
V5
sg92
g12
((I2013
I3
I24
I12
I24
I0
I6
I83
I0
t(dtRp744
sg63
V'Energy Beet' Power Is Coming To America
p745
sg95
g738
sg160
VHugh Pickens writes writes "Gosia Wonzniacka reports that farmers in Fresno County, California, supported by university experts and a $5 million state grant, are set to start construction of the nation's first commercial-scale bio-refinery to turn beets into biofuel with farmers saying the so-called 'energy beets' can deliver ethanol yields more than twice those of corn per acre because beets have a higher sugar content per ton than corn. 'We're trying to reduce greenhouse gas emissions and to shift our transportation fuels to a lower carbon content,' says Robert Weisenmiller. 'The beets have the potential to provide that.' Europe already has more than a dozen such plants, so the bio-refinery would resurrect a crop that has nearly vanished. The birthplace of the sugar beet industry, California once grew over 330,000 acres of the gnarly root vegetable (PDF), with 11 sugar mills processing the beets but as sugar prices collapsed, the mills shut down. So what's the difference between sugar beets and energy beets? To produce table sugar, producers are looking for sucrose, sucrose and more sucrose. Energy beets, on the other hand, contain multiple sugars, meaning sucrose as well as glucose, fructose and other minor sugars, called invert sugars. To create energy beet hybrids, plant breeders select for traits such as high sugar yield, not just sucrose production. America's first commercial energy beet bio-refinery will be capable of producing 40 million gallons of ethanol annually but the bio-refinery will also bring jobs and investment, putting about 80 beet growers and 35,000 acres back into production."<p><div class="share_submission"> <a class="slashpop" href="http://twitter.com/home?status='Energy+Beet'+Power+Is+Coming+To+America\u005c%3A+http\u005c%3A\u005c%2F\u005c%2Fbit.ly\u005c%2F14mrdRA"><img src="http://a.fsdn.com/sd/twitter_icon_large.png" /></a> <a class="slashpop" href="http://www.facebook.com/sharer.php?u=http\u005c%3A\u005c%2F\u005c%2Fhardware.slashdot.org\u005c%2Fstory\u005c%2F13\u005c%2F03\u005c%2F23\u005c%2F2225233\u005c%2Fenergy-beet-power-is-coming-to-america\u005c%3Futm_source\u005c%3Dslashdot\u005c%26utm_medium\u005c%3Dfacebook"><img src="http://a.fsdn.com/sd/facebook_icon_large.png" /></a> <a class="nobg" href="http://plus.google.com/share?url=http://hardware.slashdot.org/story/13/03/23/2225233/energy-beet-power-is-coming-to-america?utm_source=slashdot&amp;utm_medium=googleplus"><img alt="Share on Google+" src="http://www.gstatic.com/images/icons/gplus-16.png" /></a> </div></p><p><a href="http://hardware.slashdot.org/story/13/03/23/2225233/energy-beet-power-is-coming-to-america?utm_source=rss1.0moreanon&amp;utm_medium=feed">Read more of this story</a> at Slashdot.</p><img border="0" height="1" src="http://slashdot.feedsportal.com/c/35028/f/647410/s/29ed0731/mf.gif" width="1" /><br /><br /><a href="http://da.feedsportal.com/r/161393800863/u/49/f/647410/c/35028/s/29ed0731/a2.htm"><img border="0" src="http://da.feedsportal.com/r/161393800863/u/49/f/647410/c/35028/s/29ed0731/a2.img" /></a><img border="0" height="1" src="http://pi.feedsportal.com/r/161393800863/u/49/f/647410/c/35028/s/29ed0731/a2t.img" width="1" /><img height="1" src="http://feeds.feedburner.com/~r/Slashdot/slashdot/~4/NeHcO9KSi-w" width="1" />
p746
sg162
I00
sS'title_detail'
p747
g1
(g2
g3
(dp748
g50
Vhttp://rss.slashdot.org/Slashdot/slashdot
p749
sg19
g52
sg53
Nsg54
g745
stRp750
sg107
VSun, 24 Mar 2013 12:24:00 GMT
p751
sg58
g716
stRp752
ag1
(g2
g3
(dp753
g7
V2013-03-24T10:00:00Z
p754
sg11
g12
((I2013
I3
I24
I10
I0
I0
I6
I83
I0
t(dtRp755
sg14
(lp756
g1
(g2
g3
(dp757
g17
Vhttp://rss.slashdot.org/~r/Slashdot/slashdot/~3/MIuw1UTUYmo/story01.htm
p758
sg19
g20
sg21
g22
stRp759
asg38
(lp760
g1
(g2
g3
(dp761
g41
Vmoney
p762
sg43
Nsg44
NstRp763
asS'slash_department'
p764
Vround-rock-rumble
p765
sS'feedburner_origlink'
p766
Vhttp://slashdot.feedsportal.com/c/35028/f/647410/s/29ec88f4/l/0Lnews0Bslashdot0Borg0Cstory0C130C0A30C240C0A5282280Ctwo0Eoutside0Ebids0Efor0Edell0Ethreaten0Efounders0Ebuyout0Eplan0Dutm0Isource0Frss10B0Amainlinkanon0Gutm0Imedium0Ffeed/story01.htm
p767
sS'summary_detail'
p768
g1
(g2
g3
(dp769
g50
Vhttp://rss.slashdot.org/Slashdot/slashdot
p770
sg19
g100
sg53
Nsg54
VAn anonymous reader writes "Seven weeks ago, Dell announced a definitive agreement to be taken private by a group led by founder and CEO Michael Dell and the private equity firm Silver Lake Partners, assisted by a $2 billion loan from Microsoft and debt financing from a group of big banks. The deal was valued at $24.4 billion ($13.65 per share of Dell common stock), but allowed for a 45-day "go shop" period for alternative bids to be submitted to a special committee of Dell's board. Not all large shareholders were happy with the price, and early this month billionaire investor Carl Icahn threatened to tie up the buyout in court unless a large special dividend was paid to shareholders &mdash; without showing interest in buying the company himself. More recently, the private equity firm Blackstone Group jumped into the fray, and by Friday night's deadline both Blackstone and Icahn had submitted bids for Dell exceeding the original $13.65 per share agreement. Blackstone is said to be interested in installing Oracle's Mark Hurd as CEO, replacing Michael Dell. As Hurd was fired as Hewlett Packard's CEO in 2010 for alleged sexual misconduct involving an outside consultant named Jodie Fisher, he might have difficulty landing another CEO job at a publicly traded company; the Dell position could be an intriguing fit for both sides."<p><div class="share_submission"> <a class="slashpop" href="http://twitter.com/home?status=Two+Outside+Bids+For+Dell+Threaten+Founder's+Buyout+Plan%3A+http%3A%2F%2Fbit.ly%2FWO0HM8"><img src="http://a.fsdn.com/sd/twitter_icon_large.png" /></a> <a class="slashpop" href="http://www.facebook.com/sharer.php?u=http%3A%2F%2Fnews.slashdot.org%2Fstory%2F13%2F03%2F24%2F0528228%2Ftwo-outside-bids-for-dell-threaten-founders-buyout-plan%3Futm_source%3Dslashdot%26utm_medium%3Dfacebook"><img src="http://a.fsdn.com/sd/facebook_icon_large.png" /></a> <a class="nobg" href="http://plus.google.com/share?url=http://news.slashdot.org/story/13/03/24/0528228/two-outside-bids-for-dell-threaten-founders-buyout-plan?utm_source=slashdot&amp;utm_medium=googleplus"><img alt="Share on Google+" src="http://www.gstatic.com/images/icons/gplus-16.png" /></a> </div></p><p><a href="http://news.slashdot.org/story/13/03/24/0528228/two-outside-bids-for-dell-threaten-founders-buyout-plan?utm_source=rss1.0moreanon&amp;utm_medium=feed">Read more of this story</a> at Slashdot.</p><img border="0" height="1" src="http://slashdot.feedsportal.com/c/35028/f/647410/s/29ec88f4/mf.gif" width="1" /><br /><br /><a href="http://da.feedsportal.com/r/161393747312/u/49/f/647410/c/35028/s/29ec88f4/a2.htm"><img border="0" src="http://da.feedsportal.com/r/161393747312/u/49/f/647410/c/35028/s/29ec88f4/a2.img" /></a><img border="0" height="1" src="http://pi.feedsportal.com/r/161393747312/u/49/f/647410/c/35028/s/29ec88f4/a2t.img" width="1" /><img height="1" src="http://feeds.feedburner.com/~r/Slashdot/slashdot/~4/MIuw1UTUYmo" width="1" />
p771
stRp772
sS'slash_section'
p773
Vnews
p774
sg143
(lp775
g145
aV*
ag146
asg70
(lp776
g1
(g2
g3
(dtRp777
asS'author_detail'
p778
g1
(g2
g3
(dp779
g81
Vtimothy
p780
stRp781
sS'slash_hit_parade'
p782
V1,1,0,0,0,0,0
p783
sg155
Vhttp://slashdot.feedsportal.com/c/35028/f/647410/s/29ec88f4/l/0Lnews0Bslashdot0Borg0Cstory0C130C0A30C240C0A5282280Ctwo0Eoutside0Ebids0Efor0Edell0Ethreaten0Efounders0Ebuyout0Eplan0Dutm0Isource0Frss10B0Amainlinkanon0Gutm0Imedium0Ffeed/story01.htm
p784
sS'slash_comments'
p785
V1
sg92
g12
((I2013
I3
I24
I10
I0
I0
I6
I83
I0
t(dtRp786
sg63
VTwo Outside Bids For Dell Threaten Founder's Buyout Plan
p787
sg95
g780
sg160
VAn anonymous reader writes "Seven weeks ago, Dell announced a definitive agreement to be taken private by a group led by founder and CEO Michael Dell and the private equity firm Silver Lake Partners, assisted by a $2 billion loan from Microsoft and debt financing from a group of big banks. The deal was valued at $24.4 billion ($13.65 per share of Dell common stock), but allowed for a 45-day "go shop" period for alternative bids to be submitted to a special committee of Dell's board. Not all large shareholders were happy with the price, and early this month billionaire investor Carl Icahn threatened to tie up the buyout in court unless a large special dividend was paid to shareholders &mdash; without showing interest in buying the company himself. More recently, the private equity firm Blackstone Group jumped into the fray, and by Friday night's deadline both Blackstone and Icahn had submitted bids for Dell exceeding the original $13.65 per share agreement. Blackstone is said to be interested in installing Oracle's Mark Hurd as CEO, replacing Michael Dell. As Hurd was fired as Hewlett Packard's CEO in 2010 for alleged sexual misconduct involving an outside consultant named Jodie Fisher, he might have difficulty landing another CEO job at a publicly traded company; the Dell position could be an intriguing fit for both sides."<p><div class="share_submission"> <a class="slashpop" href="http://twitter.com/home?status=Two+Outside+Bids+For+Dell+Threaten+Founder's+Buyout+Plan\u005c%3A+http\u005c%3A\u005c%2F\u005c%2Fbit.ly\u005c%2FWO0HM8"><img src="http://a.fsdn.com/sd/twitter_icon_large.png" /></a> <a class="slashpop" href="http://www.facebook.com/sharer.php?u=http\u005c%3A\u005c%2F\u005c%2Fnews.slashdot.org\u005c%2Fstory\u005c%2F13\u005c%2F03\u005c%2F24\u005c%2F0528228\u005c%2Ftwo-outside-bids-for-dell-threaten-founders-buyout-plan\u005c%3Futm_source\u005c%3Dslashdot\u005c%26utm_medium\u005c%3Dfacebook"><img src="http://a.fsdn.com/sd/facebook_icon_large.png" /></a> <a class="nobg" href="http://plus.google.com/share?url=http://news.slashdot.org/story/13/03/24/0528228/two-outside-bids-for-dell-threaten-founders-buyout-plan?utm_source=slashdot&amp;utm_medium=googleplus"><img alt="Share on Google+" src="http://www.gstatic.com/images/icons/gplus-16.png" /></a> </div></p><p><a href="http://news.slashdot.org/story/13/03/24/0528228/two-outside-bids-for-dell-threaten-founders-buyout-plan?utm_source=rss1.0moreanon&amp;utm_medium=feed">Read more of this story</a> at Slashdot.</p><img border="0" height="1" src="http://slashdot.feedsportal.com/c/35028/f/647410/s/29ec88f4/mf.gif" width="1" /><br /><br /><a href="http://da.feedsportal.com/r/161393747312/u/49/f/647410/c/35028/s/29ec88f4/a2.htm"><img border="0" src="http://da.feedsportal.com/r/161393747312/u/49/f/647410/c/35028/s/29ec88f4/a2.img" /></a><img border="0" height="1" src="http://pi.feedsportal.com/r/161393747312/u/49/f/647410/c/35028/s/29ec88f4/a2t.img" width="1" /><img height="1" src="http://feeds.feedburner.com/~r/Slashdot/slashdot/~4/MIuw1UTUYmo" width="1" />
p788
sg162
I00
sS'title_detail'
p789
g1
(g2
g3
(dp790
g50
Vhttp://rss.slashdot.org/Slashdot/slashdot
p791
sg19
g52
sg53
Nsg54
g787
stRp792
sg107
VSun, 24 Mar 2013 10:00:00 GMT
p793
sg58
g758
stRp794
ag1
(g2
g3
(dp795
S'summary_detail'
p796
g1
(g2
g3
(dp797
g50
Vhttp://rss.slashdot.org/Slashdot/slashdot
p798
sg19
g100
sg53
Nsg54
VNew submitter cloudozer writes "Virtual servers in the future may stop using OSes entirely. As recently demonstrated OS-less platforms may change our understanding of how long does it take to bring a server up. A demo server gets created, booted up, configured, runs an application and shuts down in under 1 second. Radically lower startup latency means that the computing infrastructure may be woven strictly on demand, during the processing window allotted for a given request. Currently cloud providers round an instance uptime to the full hour when calculating charges. They might need to switch to per-second billing if OS-less instances get traction. The demo uses a new Erlang runtime system capable of running directly on Xen hypervisor."<p><div class="share_submission"> <a class="slashpop" href="http://twitter.com/home?status=A+Glimpse+of+a+Truly+Elastic+Cloud%3A+http%3A%2F%2Fbit.ly%2F169CkeK"><img src="http://a.fsdn.com/sd/twitter_icon_large.png" /></a> <a class="slashpop" href="http://www.facebook.com/sharer.php?u=http%3A%2F%2Ftech.slashdot.org%2Fstory%2F13%2F03%2F24%2F0350217%2Fa-glimpse-of-a-truly-elastic-cloud%3Futm_source%3Dslashdot%26utm_medium%3Dfacebook"><img src="http://a.fsdn.com/sd/facebook_icon_large.png" /></a> <a class="nobg" href="http://plus.google.com/share?url=http://tech.slashdot.org/story/13/03/24/0350217/a-glimpse-of-a-truly-elastic-cloud?utm_source=slashdot&amp;utm_medium=googleplus"><img alt="Share on Google+" src="http://www.gstatic.com/images/icons/gplus-16.png" /></a> </div></p><p><a href="http://tech.slashdot.org/story/13/03/24/0350217/a-glimpse-of-a-truly-elastic-cloud?utm_source=rss1.0moreanon&amp;utm_medium=feed">Read more of this story</a> at Slashdot.</p><img border="0" height="1" src="http://slashdot.feedsportal.com/c/35028/f/647410/s/29eb1034/mf.gif" width="1" /><br /><br /><a href="http://da.feedsportal.com/r/161393933036/u/49/f/647410/c/35028/s/29eb1034/a2.htm"><img border="0" src="http://da.feedsportal.com/r/161393933036/u/49/f/647410/c/35028/s/29eb1034/a2.img" /></a><img border="0" height="1" src="http://pi.feedsportal.com/r/161393933036/u/49/f/647410/c/35028/s/29eb1034/a2t.img" width="1" /><img height="1" src="http://feeds.feedburner.com/~r/Slashdot/slashdot/~4/tVT1i0dUy2U" width="1" />
p799
stRp800
sg11
g12
((I2013
I3
I24
I7
I0
I0
I6
I83
I0
t(dtRp801
sg14
(lp802
g1
(g2
g3
(dp803
g17
Vhttp://rss.slashdot.org/~r/Slashdot/slashdot/~3/tVT1i0dUy2U/story01.htm
p804
sg19
g20
sg21
g22
stRp805
asg38
(lp806
g1
(g2
g3
(dp807
g41
Vcloud
p808
sg43
Nsg44
NstRp809
asS'slash_department'
p810
Vnice-to-meet-you-goodbye
p811
sS'feedburner_origlink'
p812
Vhttp://slashdot.feedsportal.com/c/35028/f/647410/s/29eb1034/l/0Ltech0Bslashdot0Borg0Cstory0C130C0A30C240C0A350A2170Ca0Eglimpse0Eof0Ea0Etruly0Eelastic0Ecloud0Dutm0Isource0Frss10B0Amainlinkanon0Gutm0Imedium0Ffeed/story01.htm
p813
sg7
V2013-03-24T07:00:00Z
p814
sS'slash_section'
p815
Vtechnology
p816
sg58
g804
sg70
(lp817
g1
(g2
g3
(dtRp818
asS'author_detail'
p819
g1
(g2
g3
(dp820
g81
Vtimothy
p821
stRp822
sS'slash_hit_parade'
p823
V0,0,0,0,0,0,0
p824
sg155
Vhttp://slashdot.feedsportal.com/c/35028/f/647410/s/29eb1034/l/0Ltech0Bslashdot0Borg0Cstory0C130C0A30C240C0A350A2170Ca0Eglimpse0Eof0Ea0Etruly0Eelastic0Ecloud0Dutm0Isource0Frss10B0Amainlinkanon0Gutm0Imedium0Ffeed/story01.htm
p825
sg92
g12
((I2013
I3
I24
I7
I0
I0
I6
I83
I0
t(dtRp826
sg63
VA Glimpse of a Truly Elastic Cloud
p827
sg95
g821
sg160
VNew submitter cloudozer writes "Virtual servers in the future may stop using OSes entirely. As recently demonstrated OS-less platforms may change our understanding of how long does it take to bring a server up. A demo server gets created, booted up, configured, runs an application and shuts down in under 1 second. Radically lower startup latency means that the computing infrastructure may be woven strictly on demand, during the processing window allotted for a given request. Currently cloud providers round an instance uptime to the full hour when calculating charges. They might need to switch to per-second billing if OS-less instances get traction. The demo uses a new Erlang runtime system capable of running directly on Xen hypervisor."<p><div class="share_submission"> <a class="slashpop" href="http://twitter.com/home?status=A+Glimpse+of+a+Truly+Elastic+Cloud\u005c%3A+http\u005c%3A\u005c%2F\u005c%2Fbit.ly\u005c%2F169CkeK"><img src="http://a.fsdn.com/sd/twitter_icon_large.png" /></a> <a class="slashpop" href="http://www.facebook.com/sharer.php?u=http\u005c%3A\u005c%2F\u005c%2Ftech.slashdot.org\u005c%2Fstory\u005c%2F13\u005c%2F03\u005c%2F24\u005c%2F0350217\u005c%2Fa-glimpse-of-a-truly-elastic-cloud\u005c%3Futm_source\u005c%3Dslashdot\u005c%26utm_medium\u005c%3Dfacebook"><img src="http://a.fsdn.com/sd/facebook_icon_large.png" /></a> <a class="nobg" href="http://plus.google.com/share?url=http://tech.slashdot.org/story/13/03/24/0350217/a-glimpse-of-a-truly-elastic-cloud?utm_source=slashdot&amp;utm_medium=googleplus"><img alt="Share on Google+" src="http://www.gstatic.com/images/icons/gplus-16.png" /></a> </div></p><p><a href="http://tech.slashdot.org/story/13/03/24/0350217/a-glimpse-of-a-truly-elastic-cloud?utm_source=rss1.0moreanon&amp;utm_medium=feed">Read more of this story</a> at Slashdot.</p><img border="0" height="1" src="http://slashdot.feedsportal.com/c/35028/f/647410/s/29eb1034/mf.gif" width="1" /><br /><br /><a href="http://da.feedsportal.com/r/161393933036/u/49/f/647410/c/35028/s/29eb1034/a2.htm"><img border="0" src="http://da.feedsportal.com/r/161393933036/u/49/f/647410/c/35028/s/29eb1034/a2.img" /></a><img border="0" height="1" src="http://pi.feedsportal.com/r/161393933036/u/49/f/647410/c/35028/s/29eb1034/a2t.img" width="1" /><img height="1" src="http://feeds.feedburner.com/~r/Slashdot/slashdot/~4/tVT1i0dUy2U" width="1" />
p828
sg162
I00
sS'title_detail'
p829
g1
(g2
g3
(dp830
g50
Vhttp://rss.slashdot.org/Slashdot/slashdot
p831
sg19
g52
sg53
Nsg54
g827
stRp832
sg107
VSun, 24 Mar 2013 07:00:00 GMT
p833
sg143
(lp834
g145
aV*
ag146
astRp835
ag1
(g2
g3
(dp836
g7
V2013-03-24T03:58:00Z
p837
sg11
g12
((I2013
I3
I24
I3
I58
I0
I6
I83
I0
t(dtRp838
sg14
(lp839
g1
(g2
g3
(dp840
g17
Vhttp://rss.slashdot.org/~r/Slashdot/slashdot/~3/FhTNTVLXiaI/story01.htm
p841
sg19
g20
sg21
g22
stRp842
asg38
(lp843
g1
(g2
g3
(dp844
g41
Vandroid
p845
sg43
Nsg44
NstRp846
asS'slash_department'
p847
Vnose-under-the-tent
p848
sS'feedburner_origlink'
p849
Vhttp://slashdot.feedsportal.com/c/35028/f/647410/s/29eaae70/l/0Lmobile0Bslashdot0Borg0Cstory0C130C0A30C240C0A13120A50Ckdes0Ecalligra0Eoffice0Esuite0Efor0Eandroid0Ereleased0Dutm0Isource0Frss10B0Amainlinkanon0Gutm0Imedium0Ffeed/story01.htm
p850
sS'summary_detail'
p851
g1
(g2
g3
(dp852
g50
Vhttp://rss.slashdot.org/Slashdot/slashdot
p853
sg19
g100
sg53
Nsg54
Vjrepin writes "Coffice is a new project that tries to make KDE's Calligra office suite available on mobile platforms like Android, Blackberry 10, Jolla SailfishOS and Ubuntu Phone. Calligra already has some presence on smartphones, since document viewer on Nokia N9 is based on it. The first release brings Calligra Words viewer for OpenDocument Text documents and is currently available for Android only. Plans for later releases include viewers for spredsheets and presentations. Editing and saving as well as support for proprietary Microsoft Office formats are coming later."<p><div class="share_submission"> <a class="slashpop" href="http://twitter.com/home?status=KDE's+Calligra+Office+Suite+For+Android+Released%3A+http%3A%2F%2Fbit.ly%2FYwLRdm"><img src="http://a.fsdn.com/sd/twitter_icon_large.png" /></a> <a class="slashpop" href="http://www.facebook.com/sharer.php?u=http%3A%2F%2Fmobile.slashdot.org%2Fstory%2F13%2F03%2F24%2F0131205%2Fkdes-calligra-office-suite-for-android-released%3Futm_source%3Dslashdot%26utm_medium%3Dfacebook"><img src="http://a.fsdn.com/sd/facebook_icon_large.png" /></a> <a class="nobg" href="http://plus.google.com/share?url=http://mobile.slashdot.org/story/13/03/24/0131205/kdes-calligra-office-suite-for-android-released?utm_source=slashdot&amp;utm_medium=googleplus"><img alt="Share on Google+" src="http://www.gstatic.com/images/icons/gplus-16.png" /></a> </div></p><p><a href="http://mobile.slashdot.org/story/13/03/24/0131205/kdes-calligra-office-suite-for-android-released?utm_source=rss1.0moreanon&amp;utm_medium=feed">Read more of this story</a> at Slashdot.</p><img border="0" height="1" src="http://slashdot.feedsportal.com/c/35028/f/647410/s/29eaae70/mf.gif" width="1" /><br /><br /><a href="http://da.feedsportal.com/r/161393977570/u/49/f/647410/c/35028/s/29eaae70/a2.htm"><img border="0" src="http://da.feedsportal.com/r/161393977570/u/49/f/647410/c/35028/s/29eaae70/a2.img" /></a><img border="0" height="1" src="http://pi.feedsportal.com/r/161393977570/u/49/f/647410/c/35028/s/29eaae70/a2t.img" width="1" /><img height="1" src="http://feeds.feedburner.com/~r/Slashdot/slashdot/~4/FhTNTVLXiaI" width="1" />
p854
stRp855
sS'slash_section'
p856
Vmobile
p857
sg143
(lp858
g145
aV*
ag146
asg70
(lp859
g1
(g2
g3
(dtRp860
asS'author_detail'
p861
g1
(g2
g3
(dp862
g81
Vtimothy
p863
stRp864
sS'slash_hit_parade'
p865
V3,2,0,0,0,0,0
p866
sg155
Vhttp://slashdot.feedsportal.com/c/35028/f/647410/s/29eaae70/l/0Lmobile0Bslashdot0Borg0Cstory0C130C0A30C240C0A13120A50Ckdes0Ecalligra0Eoffice0Esuite0Efor0Eandroid0Ereleased0Dutm0Isource0Frss10B0Amainlinkanon0Gutm0Imedium0Ffeed/story01.htm
p867
sS'slash_comments'
p868
V3
sg92
g12
((I2013
I3
I24
I3
I58
I0
I6
I83
I0
t(dtRp869
sg63
VKDE's Calligra Office Suite For Android Released
p870
sg95
g863
sg160
Vjrepin writes "Coffice is a new project that tries to make KDE's Calligra office suite available on mobile platforms like Android, Blackberry 10, Jolla SailfishOS and Ubuntu Phone. Calligra already has some presence on smartphones, since document viewer on Nokia N9 is based on it. The first release brings Calligra Words viewer for OpenDocument Text documents and is currently available for Android only. Plans for later releases include viewers for spredsheets and presentations. Editing and saving as well as support for proprietary Microsoft Office formats are coming later."<p><div class="share_submission"> <a class="slashpop" href="http://twitter.com/home?status=KDE's+Calligra+Office+Suite+For+Android+Released\u005c%3A+http\u005c%3A\u005c%2F\u005c%2Fbit.ly\u005c%2FYwLRdm"><img src="http://a.fsdn.com/sd/twitter_icon_large.png" /></a> <a class="slashpop" href="http://www.facebook.com/sharer.php?u=http\u005c%3A\u005c%2F\u005c%2Fmobile.slashdot.org\u005c%2Fstory\u005c%2F13\u005c%2F03\u005c%2F24\u005c%2F0131205\u005c%2Fkdes-calligra-office-suite-for-android-released\u005c%3Futm_source\u005c%3Dslashdot\u005c%26utm_medium\u005c%3Dfacebook"><img src="http://a.fsdn.com/sd/facebook_icon_large.png" /></a> <a class="nobg" href="http://plus.google.com/share?url=http://mobile.slashdot.org/story/13/03/24/0131205/kdes-calligra-office-suite-for-android-released?utm_source=slashdot&amp;utm_medium=googleplus"><img alt="Share on Google+" src="http://www.gstatic.com/images/icons/gplus-16.png" /></a> </div></p><p><a href="http://mobile.slashdot.org/story/13/03/24/0131205/kdes-calligra-office-suite-for-android-released?utm_source=rss1.0moreanon&amp;utm_medium=feed">Read more of this story</a> at Slashdot.</p><img border="0" height="1" src="http://slashdot.feedsportal.com/c/35028/f/647410/s/29eaae70/mf.gif" width="1" /><br /><br /><a href="http://da.feedsportal.com/r/161393977570/u/49/f/647410/c/35028/s/29eaae70/a2.htm"><img border="0" src="http://da.feedsportal.com/r/161393977570/u/49/f/647410/c/35028/s/29eaae70/a2.img" /></a><img border="0" height="1" src="http://pi.feedsportal.com/r/161393977570/u/49/f/647410/c/35028/s/29eaae70/a2t.img" width="1" /><img height="1" src="http://feeds.feedburner.com/~r/Slashdot/slashdot/~4/FhTNTVLXiaI" width="1" />
p871
sg162
I00
sS'title_detail'
p872
g1
(g2
g3
(dp873
g50
Vhttp://rss.slashdot.org/Slashdot/slashdot
p874
sg19
g52
sg53
Nsg54
g870
stRp875
sg107
VSun, 24 Mar 2013 03:58:00 GMT
p876
sg58
g841
stRp877
ag1
(g2
g3
(dp878
g7
V2013-03-24T01:07:00Z
p879
sg11
g12
((I2013
I3
I24
I1
I7
I0
I6
I83
I0
t(dtRp880
sg14
(lp881
g1
(g2
g3
(dp882
g17
Vhttp://rss.slashdot.org/~r/Slashdot/slashdot/~3/h-4Jd5fcDRM/story01.htm
p883
sg19
g20
sg21
g22
stRp884
asg38
(lp885
g1
(g2
g3
(dp886
g41
Vgnu
p887
sg43
Nsg44
NstRp888
asS'slash_department'
p889
Vanagram-was-a-good-strategy
p890
sS'feedburner_origlink'
p891
Vhttp://slashdot.feedsportal.com/c/35028/f/647410/s/29ea8c0d/l/0Ldevelopers0Bslashdot0Borg0Cstory0C130C0A30C240C0A0A532140C20A120Efree0Esoftware0Eaward0Ewinners0Eannounced0Dutm0Isource0Frss10B0Amainlinkanon0Gutm0Imedium0Ffeed/story01.htm
p892
sS'summary_detail'
p893
g1
(g2
g3
(dp894
g50
Vhttp://rss.slashdot.org/Slashdot/slashdot
p895
sg19
g100
sg53
Nsg54
Vjrepin writes "Free Software Foundation president Richard M. Stallman announced the winners of the FSF's annual Free Software Awards at a ceremony held during the LibrePlanet 2013 conference. The Award for the Advancement of Free Software is given annually to an individual who has made a great contribution to the progress and development of free software, through activities that accord with the spirit of free software. This year, it was given to Dr. Fernando Perez, the creator of IPython, a rich architecture for interactive computing. The Award for Projects of Social Benefit is presented to the project or team responsible for applying free software, or the ideas of the free software movement, in a project that intentionally and significantly benefits society in other aspects of life. This award stresses the use of free software in the service of humanity. This year, the award went to OpenMRS, a free software medical record system for developing countries."<p><div class="share_submission"> <a class="slashpop" href="http://twitter.com/home?status=+2012+Free+Software+Award+Winners+Announced%3A+http%3A%2F%2Fbit.ly%2F16QqEPn"><img src="http://a.fsdn.com/sd/twitter_icon_large.png" /></a> <a class="slashpop" href="http://www.facebook.com/sharer.php?u=http%3A%2F%2Fdevelopers.slashdot.org%2Fstory%2F13%2F03%2F24%2F0053214%2F2012-free-software-award-winners-announced%3Futm_source%3Dslashdot%26utm_medium%3Dfacebook"><img src="http://a.fsdn.com/sd/facebook_icon_large.png" /></a> <a class="nobg" href="http://plus.google.com/share?url=http://developers.slashdot.org/story/13/03/24/0053214/2012-free-software-award-winners-announced?utm_source=slashdot&amp;utm_medium=googleplus"><img alt="Share on Google+" src="http://www.gstatic.com/images/icons/gplus-16.png" /></a> </div></p><p><a href="http://developers.slashdot.org/story/13/03/24/0053214/2012-free-software-award-winners-announced?utm_source=rss1.0moreanon&amp;utm_medium=feed">Read more of this story</a> at Slashdot.</p><img border="0" height="1" src="http://slashdot.feedsportal.com/c/35028/f/647410/s/29ea8c0d/mf.gif" width="1" /><br /><br /><a href="http://da.feedsportal.com/r/161393929670/u/49/f/647410/c/35028/s/29ea8c0d/a2.htm"><img border="0" src="http://da.feedsportal.com/r/161393929670/u/49/f/647410/c/35028/s/29ea8c0d/a2.img" /></a><img border="0" height="1" src="http://pi.feedsportal.com/r/161393929670/u/49/f/647410/c/35028/s/29ea8c0d/a2t.img" width="1" /><img height="1" src="http://feeds.feedburner.com/~r/Slashdot/slashdot/~4/h-4Jd5fcDRM" width="1" />
p896
stRp897
sS'slash_section'
p898
Vdevelopers
p899
sg143
(lp900
g145
aV*
ag146
asg70
(lp901
g1
(g2
g3
(dtRp902
asS'author_detail'
p903
g1
(g2
g3
(dp904
g81
Vtimothy
p905
stRp906
sS'slash_hit_parade'
p907
V2,2,0,0,0,0,0
p908
sg155
Vhttp://slashdot.feedsportal.com/c/35028/f/647410/s/29ea8c0d/l/0Ldevelopers0Bslashdot0Borg0Cstory0C130C0A30C240C0A0A532140C20A120Efree0Esoftware0Eaward0Ewinners0Eannounced0Dutm0Isource0Frss10B0Amainlinkanon0Gutm0Imedium0Ffeed/story01.htm
p909
sS'slash_comments'
p910
V2
sg92
g12
((I2013
I3
I24
I1
I7
I0
I6
I83
I0
t(dtRp911
sg63
V2012 Free Software Award Winners Announced
p912
sg95
g905
sg160
Vjrepin writes "Free Software Foundation president Richard M. Stallman announced the winners of the FSF's annual Free Software Awards at a ceremony held during the LibrePlanet 2013 conference. The Award for the Advancement of Free Software is given annually to an individual who has made a great contribution to the progress and development of free software, through activities that accord with the spirit of free software. This year, it was given to Dr. Fernando Perez, the creator of IPython, a rich architecture for interactive computing. The Award for Projects of Social Benefit is presented to the project or team responsible for applying free software, or the ideas of the free software movement, in a project that intentionally and significantly benefits society in other aspects of life. This award stresses the use of free software in the service of humanity. This year, the award went to OpenMRS, a free software medical record system for developing countries."<p><div class="share_submission"> <a class="slashpop" href="http://twitter.com/home?status=+2012+Free+Software+Award+Winners+Announced\u005c%3A+http\u005c%3A\u005c%2F\u005c%2Fbit.ly\u005c%2F16QqEPn"><img src="http://a.fsdn.com/sd/twitter_icon_large.png" /></a> <a class="slashpop" href="http://www.facebook.com/sharer.php?u=http\u005c%3A\u005c%2F\u005c%2Fdevelopers.slashdot.org\u005c%2Fstory\u005c%2F13\u005c%2F03\u005c%2F24\u005c%2F0053214\u005c%2F2012-free-software-award-winners-announced\u005c%3Futm_source\u005c%3Dslashdot\u005c%26utm_medium\u005c%3Dfacebook"><img src="http://a.fsdn.com/sd/facebook_icon_large.png" /></a> <a class="nobg" href="http://plus.google.com/share?url=http://developers.slashdot.org/story/13/03/24/0053214/2012-free-software-award-winners-announced?utm_source=slashdot&amp;utm_medium=googleplus"><img alt="Share on Google+" src="http://www.gstatic.com/images/icons/gplus-16.png" /></a> </div></p><p><a href="http://developers.slashdot.org/story/13/03/24/0053214/2012-free-software-award-winners-announced?utm_source=rss1.0moreanon&amp;utm_medium=feed">Read more of this story</a> at Slashdot.</p><img border="0" height="1" src="http://slashdot.feedsportal.com/c/35028/f/647410/s/29ea8c0d/mf.gif" width="1" /><br /><br /><a href="http://da.feedsportal.com/r/161393929670/u/49/f/647410/c/35028/s/29ea8c0d/a2.htm"><img border="0" src="http://da.feedsportal.com/r/161393929670/u/49/f/647410/c/35028/s/29ea8c0d/a2.img" /></a><img border="0" height="1" src="http://pi.feedsportal.com/r/161393929670/u/49/f/647410/c/35028/s/29ea8c0d/a2t.img" width="1" /><img height="1" src="http://feeds.feedburner.com/~r/Slashdot/slashdot/~4/h-4Jd5fcDRM" width="1" />
p913
sg162
I00
sS'title_detail'
p914
g1
(g2
g3
(dp915
g50
Vhttp://rss.slashdot.org/Slashdot/slashdot
p916
sg19
g52
sg53
Nsg54
g912
stRp917
sg107
VSun, 24 Mar 2013 01:07:00 GMT
p918
sg58
g883
stRp919
ag1
(g2
g3
(dp920
S'summary_detail'
p921
g1
(g2
g3
(dp922
g50
Vhttp://rss.slashdot.org/Slashdot/slashdot
p923
sg19
g100
sg53
Nsg54
Vcrankyspice writes "The federal Ninth Circuit Court of Appeals recently affirmed, in Columbia Pictures Industries v. Fung (docket no. 10-55946), the summary judgment and injunctions against Gary Fung and his IsoHunt (and 3d2k-it) websites, finding liability for secondary copyright infringement for the sites' users' BitTorrent (and eDonkey) file sharing, under the 'inducement' theory (set forth by the Supreme Court in Metro-Goldwyn-Mayer Studios, Inc. v. Grokster Ltd. , 545 U.S. 913 (2005)). The injunctions were left largely intact, with modifications required to make it more clear to the defendants what BitTorrent (etc) related activity they're enjoined from." Bloomberg has a short article on the case, too.<p><div class="share_submission"> <a class="slashpop" href="http://twitter.com/home?status=9th+Circuit+Affirms+IsoHunt+Decision%3B+No+DMCA+Safe+Harbor%3A+http%3A%2F%2Fbit.ly%2F11vNHuQ"><img src="http://a.fsdn.com/sd/twitter_icon_large.png" /></a> <a class="slashpop" href="http://www.facebook.com/sharer.php?u=http%3A%2F%2Fyro.slashdot.org%2Fstory%2F13%2F03%2F23%2F2350211%2F9th-circuit-affirms-isohunt-decision-no-dmca-safe-harbor%3Futm_source%3Dslashdot%26utm_medium%3Dfacebook"><img src="http://a.fsdn.com/sd/facebook_icon_large.png" /></a> <a class="nobg" href="http://plus.google.com/share?url=http://yro.slashdot.org/story/13/03/23/2350211/9th-circuit-affirms-isohunt-decision-no-dmca-safe-harbor?utm_source=slashdot&amp;utm_medium=googleplus"><img alt="Share on Google+" src="http://www.gstatic.com/images/icons/gplus-16.png" /></a> </div></p><p><a href="http://yro.slashdot.org/story/13/03/23/2350211/9th-circuit-affirms-isohunt-decision-no-dmca-safe-harbor?utm_source=rss1.0moreanon&amp;utm_medium=feed">Read more of this story</a> at Slashdot.</p><img border="0" height="1" src="http://slashdot.feedsportal.com/c/35028/f/647410/s/29ea4436/mf.gif" width="1" /><br /><br /><a href="http://da.feedsportal.com/r/161393739239/u/49/f/647410/c/35028/s/29ea4436/a2.htm"><img border="0" src="http://da.feedsportal.com/r/161393739239/u/49/f/647410/c/35028/s/29ea4436/a2.img" /></a><img border="0" height="1" src="http://pi.feedsportal.com/r/161393739239/u/49/f/647410/c/35028/s/29ea4436/a2t.img" width="1" /><img height="1" src="http://feeds.feedburner.com/~r/Slashdot/slashdot/~4/Z6cx1FPsRN0" width="1" />
p924
stRp925
sg11
g12
((I2013
I3
I23
I23
I49
I0
I5
I82
I0
t(dtRp926
sg14
(lp927
g1
(g2
g3
(dp928
g17
Vhttp://rss.slashdot.org/~r/Slashdot/slashdot/~3/Z6cx1FPsRN0/story01.htm
p929
sg19
g20
sg21
g22
stRp930
asg38
(lp931
g1
(g2
g3
(dp932
g41
Vcourt
p933
sg43
Nsg44
NstRp934
asS'slash_department'
p935
Vdisproportion-nation
p936
sS'feedburner_origlink'
p937
Vhttp://slashdot.feedsportal.com/c/35028/f/647410/s/29ea4436/l/0Lyro0Bslashdot0Borg0Cstory0C130C0A30C230C2350A2110C9th0Ecircuit0Eaffirms0Eisohunt0Edecision0Eno0Edmca0Esafe0Eharbor0Dutm0Isource0Frss10B0Amainlinkanon0Gutm0Imedium0Ffeed/story01.htm
p938
sg7
V2013-03-23T23:49:00Z
p939
sS'slash_section'
p940
Vyro
p941
sg58
g929
sg70
(lp942
g1
(g2
g3
(dtRp943
asS'author_detail'
p944
g1
(g2
g3
(dp945
g81
Vtimothy
p946
stRp947
sS'slash_hit_parade'
p948
V0,0,0,0,0,0,0
p949
sg155
Vhttp://slashdot.feedsportal.com/c/35028/f/647410/s/29ea4436/l/0Lyro0Bslashdot0Borg0Cstory0C130C0A30C230C2350A2110C9th0Ecircuit0Eaffirms0Eisohunt0Edecision0Eno0Edmca0Esafe0Eharbor0Dutm0Isource0Frss10B0Amainlinkanon0Gutm0Imedium0Ffeed/story01.htm
p950
sg92
g12
((I2013
I3
I23
I23
I49
I0
I5
I82
I0
t(dtRp951
sg63
V9th Circuit Affirms IsoHunt Decision; No DMCA Safe Harbor
p952
sg95
g946
sg160
Vcrankyspice writes "The federal Ninth Circuit Court of Appeals recently affirmed, in Columbia Pictures Industries v. Fung (docket no. 10-55946), the summary judgment and injunctions against Gary Fung and his IsoHunt (and 3d2k-it) websites, finding liability for secondary copyright infringement for the sites' users' BitTorrent (and eDonkey) file sharing, under the 'inducement' theory (set forth by the Supreme Court in Metro-Goldwyn-Mayer Studios, Inc. v. Grokster Ltd. , 545 U.S. 913 (2005)). The injunctions were left largely intact, with modifications required to make it more clear to the defendants what BitTorrent (etc) related activity they're enjoined from." Bloomberg has a short article on the case, too.<p><div class="share_submission"> <a class="slashpop" href="http://twitter.com/home?status=9th+Circuit+Affirms+IsoHunt+Decision\u005c%3B+No+DMCA+Safe+Harbor\u005c%3A+http\u005c%3A\u005c%2F\u005c%2Fbit.ly\u005c%2F11vNHuQ"><img src="http://a.fsdn.com/sd/twitter_icon_large.png" /></a> <a class="slashpop" href="http://www.facebook.com/sharer.php?u=http\u005c%3A\u005c%2F\u005c%2Fyro.slashdot.org\u005c%2Fstory\u005c%2F13\u005c%2F03\u005c%2F23\u005c%2F2350211\u005c%2F9th-circuit-affirms-isohunt-decision-no-dmca-safe-harbor\u005c%3Futm_source\u005c%3Dslashdot\u005c%26utm_medium\u005c%3Dfacebook"><img src="http://a.fsdn.com/sd/facebook_icon_large.png" /></a> <a class="nobg" href="http://plus.google.com/share?url=http://yro.slashdot.org/story/13/03/23/2350211/9th-circuit-affirms-isohunt-decision-no-dmca-safe-harbor?utm_source=slashdot&amp;utm_medium=googleplus"><img alt="Share on Google+" src="http://www.gstatic.com/images/icons/gplus-16.png" /></a> </div></p><p><a href="http://yro.slashdot.org/story/13/03/23/2350211/9th-circuit-affirms-isohunt-decision-no-dmca-safe-harbor?utm_source=rss1.0moreanon&amp;utm_medium=feed">Read more of this story</a> at Slashdot.</p><img border="0" height="1" src="http://slashdot.feedsportal.com/c/35028/f/647410/s/29ea4436/mf.gif" width="1" /><br /><br /><a href="http://da.feedsportal.com/r/161393739239/u/49/f/647410/c/35028/s/29ea4436/a2.htm"><img border="0" src="http://da.feedsportal.com/r/161393739239/u/49/f/647410/c/35028/s/29ea4436/a2.img" /></a><img border="0" height="1" src="http://pi.feedsportal.com/r/161393739239/u/49/f/647410/c/35028/s/29ea4436/a2t.img" width="1" /><img height="1" src="http://feeds.feedburner.com/~r/Slashdot/slashdot/~4/Z6cx1FPsRN0" width="1" />
p953
sg162
I00
sS'title_detail'
p954
g1
(g2
g3
(dp955
g50
Vhttp://rss.slashdot.org/Slashdot/slashdot
p956
sg19
g52
sg53
Nsg54
g952
stRp957
sg107
VSat, 23 Mar 2013 23:49:00 GMT
p958
sg143
(lp959
g145
aV*
ag146
astRp960
ag1
(g2
g3
(dp961
g7
V2013-03-23T22:42:00Z
p962
sg11
g12
((I2013
I3
I23
I22
I42
I0
I5
I82
I0
t(dtRp963
sg14
(lp964
g1
(g2
g3
(dp965
g17
Vhttp://rss.slashdot.org/~r/Slashdot/slashdot/~3/F_Bg20I23vQ/story01.htm
p966
sg19
g20
sg21
g22
stRp967
asg38
(lp968
g1
(g2
g3
(dp969
g41
Vgoogle
p970
sg43
Nsg44
NstRp971
asS'slash_department'
p972
Vbroken-system-is-broken
p973
sS'feedburner_origlink'
p974
Vhttp://slashdot.feedsportal.com/c/35028/f/647410/s/29ea2a07/l/0Ltech0Bslashdot0Borg0Cstory0C130C0A30C230C22422310Cnokia0Eofficially0Elists0Epatents0Egoogles0Evp80Eallegedly0Einfringes0Dutm0Isource0Frss10B0Amainlinkanon0Gutm0Imedium0Ffeed/story01.htm
p975
sS'summary_detail'
p976
g1
(g2
g3
(dp977
g50
Vhttp://rss.slashdot.org/Slashdot/slashdot
p978
sg19
g100
sg53
Nsg54
VAn anonymous reader writes "Google just settled video codec patent claims with MPEG LA and its VP8 format, which it wants to be elevated to an Internet standard, already faces the next round of patent infringement allegations. Nokia submitted an IPR declaration to the Internet Engineering Task Force listing 64 issued patents and 22 pending patent applications it believes are essential to VP8. To add insult to injury, Nokia's declaration to the IETF says NO to royalty-free licensing and also NO to FRAND (fair, reasonable and non-discriminatory) licensing. Nokia reserves the right to sue over VP8 and to seek sales bans without necessarily negotiating a license deal. Two of the 86 declared IPRs are already being asserted in Mannheim, Germany, where Nokia is suing HTC in numerous patent infringement cases. A first VP8-related trial took place on March 8 and the next one is scheduled for June 14. In related Nokia-Google patent news, the Finns are trying to obtain a U.S. import ban against HTC to force it to disable tethering (or, more likely, to pay up)."<p><div class="share_submission"> <a class="slashpop" href="http://twitter.com/home?status=Nokia+Officially+Lists+Patents+Google's+VP8+Allegedly+Infringes%3A+http%3A%2F%2Fbit.ly%2FZWPN5O"><img src="http://a.fsdn.com/sd/twitter_icon_large.png" /></a> <a class="slashpop" href="http://www.facebook.com/sharer.php?u=http%3A%2F%2Ftech.slashdot.org%2Fstory%2F13%2F03%2F23%2F2242231%2Fnokia-officially-lists-patents-googles-vp8-allegedly-infringes%3Futm_source%3Dslashdot%26utm_medium%3Dfacebook"><img src="http://a.fsdn.com/sd/facebook_icon_large.png" /></a> <a class="nobg" href="http://plus.google.com/share?url=http://tech.slashdot.org/story/13/03/23/2242231/nokia-officially-lists-patents-googles-vp8-allegedly-infringes?utm_source=slashdot&amp;utm_medium=googleplus"><img alt="Share on Google+" src="http://www.gstatic.com/images/icons/gplus-16.png" /></a> </div></p><p><a href="http://tech.slashdot.org/story/13/03/23/2242231/nokia-officially-lists-patents-googles-vp8-allegedly-infringes?utm_source=rss1.0moreanon&amp;utm_medium=feed">Read more of this story</a> at Slashdot.</p><img border="0" height="1" src="http://slashdot.feedsportal.com/c/35028/f/647410/s/29ea2a07/mf.gif" width="1" /><br /><br /><a href="http://da.feedsportal.com/r/161393974047/u/49/f/647410/c/35028/s/29ea2a07/a2.htm"><img border="0" src="http://da.feedsportal.com/r/161393974047/u/49/f/647410/c/35028/s/29ea2a07/a2.img" /></a><img border="0" height="1" src="http://pi.feedsportal.com/r/161393974047/u/49/f/647410/c/35028/s/29ea2a07/a2t.img" width="1" /><img height="1" src="http://feeds.feedburner.com/~r/Slashdot/slashdot/~4/F_Bg20I23vQ" width="1" />
p979
stRp980
sS'slash_section'
p981
Vtechnology
p982
sg143
(lp983
g145
aV*
ag146
asg70
(lp984
g1
(g2
g3
(dtRp985
asS'author_detail'
p986
g1
(g2
g3
(dp987
g81
Vtimothy
p988
stRp989
sS'slash_hit_parade'
p990
V5,5,3,3,1,0,0
p991
sg155
Vhttp://slashdot.feedsportal.com/c/35028/f/647410/s/29ea2a07/l/0Ltech0Bslashdot0Borg0Cstory0C130C0A30C230C22422310Cnokia0Eofficially0Elists0Epatents0Egoogles0Evp80Eallegedly0Einfringes0Dutm0Isource0Frss10B0Amainlinkanon0Gutm0Imedium0Ffeed/story01.htm
p992
sS'slash_comments'
p993
V5
sg92
g12
((I2013
I3
I23
I22
I42
I0
I5
I82
I0
t(dtRp994
sg63
VNokia Officially Lists Patents Google's VP8 Allegedly Infringes
p995
sg95
g988
sg160
VAn anonymous reader writes "Google just settled video codec patent claims with MPEG LA and its VP8 format, which it wants to be elevated to an Internet standard, already faces the next round of patent infringement allegations. Nokia submitted an IPR declaration to the Internet Engineering Task Force listing 64 issued patents and 22 pending patent applications it believes are essential to VP8. To add insult to injury, Nokia's declaration to the IETF says NO to royalty-free licensing and also NO to FRAND (fair, reasonable and non-discriminatory) licensing. Nokia reserves the right to sue over VP8 and to seek sales bans without necessarily negotiating a license deal. Two of the 86 declared IPRs are already being asserted in Mannheim, Germany, where Nokia is suing HTC in numerous patent infringement cases. A first VP8-related trial took place on March 8 and the next one is scheduled for June 14. In related Nokia-Google patent news, the Finns are trying to obtain a U.S. import ban against HTC to force it to disable tethering (or, more likely, to pay up)."<p><div class="share_submission"> <a class="slashpop" href="http://twitter.com/home?status=Nokia+Officially+Lists+Patents+Google's+VP8+Allegedly+Infringes\u005c%3A+http\u005c%3A\u005c%2F\u005c%2Fbit.ly\u005c%2FZWPN5O"><img src="http://a.fsdn.com/sd/twitter_icon_large.png" /></a> <a class="slashpop" href="http://www.facebook.com/sharer.php?u=http\u005c%3A\u005c%2F\u005c%2Ftech.slashdot.org\u005c%2Fstory\u005c%2F13\u005c%2F03\u005c%2F23\u005c%2F2242231\u005c%2Fnokia-officially-lists-patents-googles-vp8-allegedly-infringes\u005c%3Futm_source\u005c%3Dslashdot\u005c%26utm_medium\u005c%3Dfacebook"><img src="http://a.fsdn.com/sd/facebook_icon_large.png" /></a> <a class="nobg" href="http://plus.google.com/share?url=http://tech.slashdot.org/story/13/03/23/2242231/nokia-officially-lists-patents-googles-vp8-allegedly-infringes?utm_source=slashdot&amp;utm_medium=googleplus"><img alt="Share on Google+" src="http://www.gstatic.com/images/icons/gplus-16.png" /></a> </div></p><p><a href="http://tech.slashdot.org/story/13/03/23/2242231/nokia-officially-lists-patents-googles-vp8-allegedly-infringes?utm_source=rss1.0moreanon&amp;utm_medium=feed">Read more of this story</a> at Slashdot.</p><img border="0" height="1" src="http://slashdot.feedsportal.com/c/35028/f/647410/s/29ea2a07/mf.gif" width="1" /><br /><br /><a href="http://da.feedsportal.com/r/161393974047/u/49/f/647410/c/35028/s/29ea2a07/a2.htm"><img border="0" src="http://da.feedsportal.com/r/161393974047/u/49/f/647410/c/35028/s/29ea2a07/a2.img" /></a><img border="0" height="1" src="http://pi.feedsportal.com/r/161393974047/u/49/f/647410/c/35028/s/29ea2a07/a2t.img" width="1" /><img height="1" src="http://feeds.feedburner.com/~r/Slashdot/slashdot/~4/F_Bg20I23vQ" width="1" />
p996
sg162
I00
sS'title_detail'
p997
g1
(g2
g3
(dp998
g50
Vhttp://rss.slashdot.org/Slashdot/slashdot
p999
sg19
g52
sg53
Nsg54
g995
stRp1000
sg107
VSat, 23 Mar 2013 22:42:00 GMT
p1001
sg58
g966
stRp1002
ag1
(g2
g3
(dp1003
S'summary_detail'
p1004
g1
(g2
g3
(dp1005
g50
Vhttp://rss.slashdot.org/Slashdot/slashdot
p1006
sg19
g100
sg53
Nsg54
VNew submitter terrywo5 writes "A new driver-less robotic car nicknamed ROPITS was revealed recently by Hitachi in the city of Tsukuba. This tiny robotic car uses GPS to transport its single passenger, and it can be programmed to pick up and drop passengers automatically. Check this article and video to learn more about this car."<p><div class="share_submission"> <a class="slashpop" href="http://twitter.com/home?status=Hitachi's+Tiny+Robo-Taxi+Carries+1+Passenger+and+No+Driver%3A+http%3A%2F%2Fbit.ly%2FZJOnMQ"><img src="http://a.fsdn.com/sd/twitter_icon_large.png" /></a> <a class="slashpop" href="http://www.facebook.com/sharer.php?u=http%3A%2F%2Ftech.slashdot.org%2Fstory%2F13%2F03%2F23%2F2136248%2Fhitachis-tiny-robo-taxi-carries-1-passenger-and-no-driver%3Futm_source%3Dslashdot%26utm_medium%3Dfacebook"><img src="http://a.fsdn.com/sd/facebook_icon_large.png" /></a> <a class="nobg" href="http://plus.google.com/share?url=http://tech.slashdot.org/story/13/03/23/2136248/hitachis-tiny-robo-taxi-carries-1-passenger-and-no-driver?utm_source=slashdot&amp;utm_medium=googleplus"><img alt="Share on Google+" src="http://www.gstatic.com/images/icons/gplus-16.png" /></a> </div></p><p><a href="http://tech.slashdot.org/story/13/03/23/2136248/hitachis-tiny-robo-taxi-carries-1-passenger-and-no-driver?utm_source=rss1.0moreanon&amp;utm_medium=feed">Read more of this story</a> at Slashdot.</p><img border="0" height="1" src="http://slashdot.feedsportal.com/c/35028/f/647410/s/29e96364/mf.gif" width="1" /><br /><br /><a href="http://da.feedsportal.com/r/161393788883/u/49/f/647410/c/35028/s/29e96364/a2.htm"><img border="0" src="http://da.feedsportal.com/r/161393788883/u/49/f/647410/c/35028/s/29e96364/a2.img" /></a><img border="0" height="1" src="http://pi.feedsportal.com/r/161393788883/u/49/f/647410/c/35028/s/29e96364/a2t.img" width="1" /><img height="1" src="http://feeds.feedburner.com/~r/Slashdot/slashdot/~4/j8JGyU4g9ZY" width="1" />
p1007
stRp1008
sg11
g12
((I2013
I3
I23
I21
I37
I0
I5
I82
I0
t(dtRp1009
sg14
(lp1010
g1
(g2
g3
(dp1011
g17
Vhttp://rss.slashdot.org/~r/Slashdot/slashdot/~3/j8JGyU4g9ZY/story01.htm
p1012
sg19
g20
sg21
g22
stRp1013
asg38
(lp1014
g1
(g2
g3
(dp1015
g41
Vjapan
p1016
sg43
Nsg44
NstRp1017
asS'slash_department'
p1018
Vperfect-for-class-reunion-showoffs
p1019
sS'feedburner_origlink'
p1020
Vhttp://slashdot.feedsportal.com/c/35028/f/647410/s/29e96364/l/0Ltech0Bslashdot0Borg0Cstory0C130C0A30C230C21362480Chitachis0Etiny0Erobo0Etaxi0Ecarries0E10Epassenger0Eand0Eno0Edriver0Dutm0Isource0Frss10B0Amainlinkanon0Gutm0Imedium0Ffeed/story01.htm
p1021
sg7
V2013-03-23T21:37:00Z
p1022
sS'slash_section'
p1023
Vtechnology
p1024
sg58
g1012
sg70
(lp1025
g1
(g2
g3
(dtRp1026
asS'author_detail'
p1027
g1
(g2
g3
(dp1028
g81
Vtimothy
p1029
stRp1030
sS'slash_hit_parade'
p1031
V0,0,0,0,0,0,0
p1032
sg155
Vhttp://slashdot.feedsportal.com/c/35028/f/647410/s/29e96364/l/0Ltech0Bslashdot0Borg0Cstory0C130C0A30C230C21362480Chitachis0Etiny0Erobo0Etaxi0Ecarries0E10Epassenger0Eand0Eno0Edriver0Dutm0Isource0Frss10B0Amainlinkanon0Gutm0Imedium0Ffeed/story01.htm
p1033
sg92
g12
((I2013
I3
I23
I21
I37
I0
I5
I82
I0
t(dtRp1034
sg63
VHitachi's Tiny Robo-Taxi Carries 1 Passenger and No Driver
p1035
sg95
g1029
sg160
VNew submitter terrywo5 writes "A new driver-less robotic car nicknamed ROPITS was revealed recently by Hitachi in the city of Tsukuba. This tiny robotic car uses GPS to transport its single passenger, and it can be programmed to pick up and drop passengers automatically. Check this article and video to learn more about this car."<p><div class="share_submission"> <a class="slashpop" href="http://twitter.com/home?status=Hitachi's+Tiny+Robo-Taxi+Carries+1+Passenger+and+No+Driver\u005c%3A+http\u005c%3A\u005c%2F\u005c%2Fbit.ly\u005c%2FZJOnMQ"><img src="http://a.fsdn.com/sd/twitter_icon_large.png" /></a> <a class="slashpop" href="http://www.facebook.com/sharer.php?u=http\u005c%3A\u005c%2F\u005c%2Ftech.slashdot.org\u005c%2Fstory\u005c%2F13\u005c%2F03\u005c%2F23\u005c%2F2136248\u005c%2Fhitachis-tiny-robo-taxi-carries-1-passenger-and-no-driver\u005c%3Futm_source\u005c%3Dslashdot\u005c%26utm_medium\u005c%3Dfacebook"><img src="http://a.fsdn.com/sd/facebook_icon_large.png" /></a> <a class="nobg" href="http://plus.google.com/share?url=http://tech.slashdot.org/story/13/03/23/2136248/hitachis-tiny-robo-taxi-carries-1-passenger-and-no-driver?utm_source=slashdot&amp;utm_medium=googleplus"><img alt="Share on Google+" src="http://www.gstatic.com/images/icons/gplus-16.png" /></a> </div></p><p><a href="http://tech.slashdot.org/story/13/03/23/2136248/hitachis-tiny-robo-taxi-carries-1-passenger-and-no-driver?utm_source=rss1.0moreanon&amp;utm_medium=feed">Read more of this story</a> at Slashdot.</p><img border="0" height="1" src="http://slashdot.feedsportal.com/c/35028/f/647410/s/29e96364/mf.gif" width="1" /><br /><br /><a href="http://da.feedsportal.com/r/161393788883/u/49/f/647410/c/35028/s/29e96364/a2.htm"><img border="0" src="http://da.feedsportal.com/r/161393788883/u/49/f/647410/c/35028/s/29e96364/a2.img" /></a><img border="0" height="1" src="http://pi.feedsportal.com/r/161393788883/u/49/f/647410/c/35028/s/29e96364/a2t.img" width="1" /><img height="1" src="http://feeds.feedburner.com/~r/Slashdot/slashdot/~4/j8JGyU4g9ZY" width="1" />
p1036
sg162
I00
sS'title_detail'
p1037
g1
(g2
g3
(dp1038
g50
Vhttp://rss.slashdot.org/Slashdot/slashdot
p1039
sg19
g52
sg53
Nsg54
g1035
stRp1040
sg107
VSat, 23 Mar 2013 21:37:00 GMT
p1041
sg143
(lp1042
g145
aV*
ag146
astRp1043
ag1
(g2
g3
(dp1044
g7
V2013-03-23T20:32:00Z
p1045
sg11
g12
((I2013
I3
I23
I20
I32
I0
I5
I82
I0
t(dtRp1046
sg14
(lp1047
g1
(g2
g3
(dp1048
g17
Vhttp://rss.slashdot.org/~r/Slashdot/slashdot/~3/uWgA7Ntk2MM/story01.htm
p1049
sg19
g20
sg21
g22
stRp1050
asg38
(lp1051
g1
(g2
g3
(dp1052
g41
Vinternet
p1053
sg43
Nsg44
NstRp1054
asS'slash_department'
p1055
Vthe-envelope-please
p1056
sS'feedburner_origlink'
p1057
Vhttp://slashdot.feedsportal.com/c/35028/f/647410/s/29e95bd2/l/0Ltech0Bslashdot0Borg0Cstory0C130C0A30C230C20A30A2430Cicann0Ereveals0Eregional0Ewinners0Eof0Enew0Egtlds0Dutm0Isource0Frss10B0Amainlinkanon0Gutm0Imedium0Ffeed/story01.htm
p1058
sS'summary_detail'
p1059
g1
(g2
g3
(dp1060
g50
Vhttp://rss.slashdot.org/Slashdot/slashdot
p1061
sg19
g100
sg53
Nsg54
Vhypnosec writes "The Internet Corporation for Assigned Names and Numbers has approved and released a list of domain names as per its new global Top Level Domain plans. A total of 27 domain names have been cleared for use by ICANN, and all of them are non-English domain names. Consisting of Chinese and Arabic names, the list of domain names seems to be mostly for regional companies, prominent among which are the .Qatartelecom and .Mozaic domains."<p><div class="share_submission"> <a class="slashpop" href="http://twitter.com/home?status=ICANN+Reveals+Regional+Winners+of+New+gTLDs%3A+http%3A%2F%2Fbit.ly%2F10xT6CD"><img src="http://a.fsdn.com/sd/twitter_icon_large.png" /></a> <a class="slashpop" href="http://www.facebook.com/sharer.php?u=http%3A%2F%2Ftech.slashdot.org%2Fstory%2F13%2F03%2F23%2F2030243%2Ficann-reveals-regional-winners-of-new-gtlds%3Futm_source%3Dslashdot%26utm_medium%3Dfacebook"><img src="http://a.fsdn.com/sd/facebook_icon_large.png" /></a> <a class="nobg" href="http://plus.google.com/share?url=http://tech.slashdot.org/story/13/03/23/2030243/icann-reveals-regional-winners-of-new-gtlds?utm_source=slashdot&amp;utm_medium=googleplus"><img alt="Share on Google+" src="http://www.gstatic.com/images/icons/gplus-16.png" /></a> </div></p><p><a href="http://tech.slashdot.org/story/13/03/23/2030243/icann-reveals-regional-winners-of-new-gtlds?utm_source=rss1.0moreanon&amp;utm_medium=feed">Read more of this story</a> at Slashdot.</p><img border="0" height="1" src="http://slashdot.feedsportal.com/c/35028/f/647410/s/29e95bd2/mf.gif" width="1" /><br /><br /><a href="http://da.feedsportal.com/r/161393788163/u/49/f/647410/c/35028/s/29e95bd2/a2.htm"><img border="0" src="http://da.feedsportal.com/r/161393788163/u/49/f/647410/c/35028/s/29e95bd2/a2.img" /></a><img border="0" height="1" src="http://pi.feedsportal.com/r/161393788163/u/49/f/647410/c/35028/s/29e95bd2/a2t.img" width="1" /><img height="1" src="http://feeds.feedburner.com/~r/Slashdot/slashdot/~4/uWgA7Ntk2MM" width="1" />
p1062
stRp1063
sS'slash_section'
p1064
Vtechnology
p1065
sg143
(lp1066
g145
aV*
ag146
asg70
(lp1067
g1
(g2
g3
(dtRp1068
asS'author_detail'
p1069
g1
(g2
g3
(dp1070
g81
Vtimothy
p1071
stRp1072
sS'slash_hit_parade'
p1073
V1,1,0,0,0,0,0
p1074
sg155
Vhttp://slashdot.feedsportal.com/c/35028/f/647410/s/29e95bd2/l/0Ltech0Bslashdot0Borg0Cstory0C130C0A30C230C20A30A2430Cicann0Ereveals0Eregional0Ewinners0Eof0Enew0Egtlds0Dutm0Isource0Frss10B0Amainlinkanon0Gutm0Imedium0Ffeed/story01.htm
p1075
sS'slash_comments'
p1076
V1
sg92
g12
((I2013
I3
I23
I20
I32
I0
I5
I82
I0
t(dtRp1077
sg63
VICANN Reveals Regional Winners of New gTLDs
p1078
sg95
g1071
sg160
Vhypnosec writes "The Internet Corporation for Assigned Names and Numbers has approved and released a list of domain names as per its new global Top Level Domain plans. A total of 27 domain names have been cleared for use by ICANN, and all of them are non-English domain names. Consisting of Chinese and Arabic names, the list of domain names seems to be mostly for regional companies, prominent among which are the .Qatartelecom and .Mozaic domains."<p><div class="share_submission"> <a class="slashpop" href="http://twitter.com/home?status=ICANN+Reveals+Regional+Winners+of+New+gTLDs\u005c%3A+http\u005c%3A\u005c%2F\u005c%2Fbit.ly\u005c%2F10xT6CD"><img src="http://a.fsdn.com/sd/twitter_icon_large.png" /></a> <a class="slashpop" href="http://www.facebook.com/sharer.php?u=http\u005c%3A\u005c%2F\u005c%2Ftech.slashdot.org\u005c%2Fstory\u005c%2F13\u005c%2F03\u005c%2F23\u005c%2F2030243\u005c%2Ficann-reveals-regional-winners-of-new-gtlds\u005c%3Futm_source\u005c%3Dslashdot\u005c%26utm_medium\u005c%3Dfacebook"><img src="http://a.fsdn.com/sd/facebook_icon_large.png" /></a> <a class="nobg" href="http://plus.google.com/share?url=http://tech.slashdot.org/story/13/03/23/2030243/icann-reveals-regional-winners-of-new-gtlds?utm_source=slashdot&amp;utm_medium=googleplus"><img alt="Share on Google+" src="http://www.gstatic.com/images/icons/gplus-16.png" /></a> </div></p><p><a href="http://tech.slashdot.org/story/13/03/23/2030243/icann-reveals-regional-winners-of-new-gtlds?utm_source=rss1.0moreanon&amp;utm_medium=feed">Read more of this story</a> at Slashdot.</p><img border="0" height="1" src="http://slashdot.feedsportal.com/c/35028/f/647410/s/29e95bd2/mf.gif" width="1" /><br /><br /><a href="http://da.feedsportal.com/r/161393788163/u/49/f/647410/c/35028/s/29e95bd2/a2.htm"><img border="0" src="http://da.feedsportal.com/r/161393788163/u/49/f/647410/c/35028/s/29e95bd2/a2.img" /></a><img border="0" height="1" src="http://pi.feedsportal.com/r/161393788163/u/49/f/647410/c/35028/s/29e95bd2/a2t.img" width="1" /><img height="1" src="http://feeds.feedburner.com/~r/Slashdot/slashdot/~4/uWgA7Ntk2MM" width="1" />
p1079
sg162
I00
sS'title_detail'
p1080
g1
(g2
g3
(dp1081
g50
Vhttp://rss.slashdot.org/Slashdot/slashdot
p1082
sg19
g52
sg53
Nsg54
g1078
stRp1083
sg107
VSat, 23 Mar 2013 20:32:00 GMT
p1084
sg58
g1049
stRp1085
ag1
(g2
g3
(dp1086
S'summary_detail'
p1087
g1
(g2
g3
(dp1088
g50
Vhttp://rss.slashdot.org/Slashdot/slashdot
p1089
sg19
g100
sg53
Nsg54
VAn anonymous reader writes According to the AP, the IRS is being "scolded for spending $60,000 dollars on an elaborate parody video that played at a 2010 conference. 'The video features an elaborate set depicting the control room, or bridge, of the spaceship featured in the hit TV show. IRS workers portray the characters, including one who plays Mr. Spock, complete with fake hair and pointed ears. The production value is high even though the acting is what one might expect from a bunch of tax collectors. In the video, the spaceship is approaching the planet 'Notax,' where alien identity theft appears to be a problem.' You can find the hilarious and/or nausea-inducing video on YouTube."<p><div class="share_submission"> <a class="slashpop" href="http://twitter.com/home?status=IRS+Spent+%2460%2C000+Producing+Star+Trek+Parody%3A+http%3A%2F%2Fbit.ly%2FWMEcHo"><img src="http://a.fsdn.com/sd/twitter_icon_large.png" /></a> <a class="slashpop" href="http://www.facebook.com/sharer.php?u=http%3A%2F%2Fyro.slashdot.org%2Fstory%2F13%2F03%2F23%2F1932218%2Firs-spent-60000-producing-star-trek-parody%3Futm_source%3Dslashdot%26utm_medium%3Dfacebook"><img src="http://a.fsdn.com/sd/facebook_icon_large.png" /></a> <a class="nobg" href="http://plus.google.com/share?url=http://yro.slashdot.org/story/13/03/23/1932218/irs-spent-60000-producing-star-trek-parody?utm_source=slashdot&amp;utm_medium=googleplus"><img alt="Share on Google+" src="http://www.gstatic.com/images/icons/gplus-16.png" /></a> </div></p><p><a href="http://yro.slashdot.org/story/13/03/23/1932218/irs-spent-60000-producing-star-trek-parody?utm_source=rss1.0moreanon&amp;utm_medium=feed">Read more of this story</a> at Slashdot.</p><img border="0" height="1" src="http://slashdot.feedsportal.com/c/35028/f/647410/s/29e953eb/mf.gif" width="1" /><br /><br /><a href="http://da.feedsportal.com/r/161393787216/u/49/f/647410/c/35028/s/29e953eb/a2.htm"><img border="0" src="http://da.feedsportal.com/r/161393787216/u/49/f/647410/c/35028/s/29e953eb/a2.img" /></a><img border="0" height="1" src="http://pi.feedsportal.com/r/161393787216/u/49/f/647410/c/35028/s/29e953eb/a2t.img" width="1" /><img height="1" src="http://feeds.feedburner.com/~r/Slashdot/slashdot/~4/muqDimJC8zo" width="1" />
p1090
stRp1091
sg11
g12
((I2013
I3
I23
I19
I34
I0
I5
I82
I0
t(dtRp1092
sg14
(lp1093
g1
(g2
g3
(dp1094
g17
Vhttp://rss.slashdot.org/~r/Slashdot/slashdot/~3/muqDimJC8zo/story01.htm
p1095
sg19
g20
sg21
g22
stRp1096
asg38
(lp1097
g1
(g2
g3
(dp1098
g41
Vgovernment
p1099
sg43
Nsg44
NstRp1100
asS'slash_department'
p1101
Vbut-they're-stimulating-the-economy
p1102
sS'feedburner_origlink'
p1103
Vhttp://slashdot.feedsportal.com/c/35028/f/647410/s/29e953eb/l/0Lyro0Bslashdot0Borg0Cstory0C130C0A30C230C19322180Cirs0Espent0E60A0A0A0A0Eproducing0Estar0Etrek0Eparody0Dutm0Isource0Frss10B0Amainlinkanon0Gutm0Imedium0Ffeed/story01.htm
p1104
sg7
V2013-03-23T19:34:00Z
p1105
sS'slash_section'
p1106
Vyro
p1107
sg58
g1095
sg70
(lp1108
g1
(g2
g3
(dtRp1109
asS'author_detail'
p1110
g1
(g2
g3
(dp1111
g81
Vtimothy
p1112
stRp1113
sS'slash_hit_parade'
p1114
V0,0,0,0,0,0,0
p1115
sg155
Vhttp://slashdot.feedsportal.com/c/35028/f/647410/s/29e953eb/l/0Lyro0Bslashdot0Borg0Cstory0C130C0A30C230C19322180Cirs0Espent0E60A0A0A0A0Eproducing0Estar0Etrek0Eparody0Dutm0Isource0Frss10B0Amainlinkanon0Gutm0Imedium0Ffeed/story01.htm
p1116
sg92
g12
((I2013
I3
I23
I19
I34
I0
I5
I82
I0
t(dtRp1117
sg63
VIRS Spent $60,000 Producing Star Trek</em> Parody
p1118
sg95
g1112
sg160
VAn anonymous reader writes According to the AP, the IRS is being "scolded for spending $60,000 dollars on an elaborate parody video that played at a 2010 conference. 'The video features an elaborate set depicting the control room, or bridge, of the spaceship featured in the hit TV show. IRS workers portray the characters, including one who plays Mr. Spock, complete with fake hair and pointed ears. The production value is high even though the acting is what one might expect from a bunch of tax collectors. In the video, the spaceship is approaching the planet 'Notax,' where alien identity theft appears to be a problem.' You can find the hilarious and/or nausea-inducing video on YouTube."<p><div class="share_submission"> <a class="slashpop" href="http://twitter.com/home?status=IRS+Spent+\u005c%2460\u005c%2C000+Producing+Star+Trek+Parody\u005c%3A+http\u005c%3A\u005c%2F\u005c%2Fbit.ly\u005c%2FWMEcHo"><img src="http://a.fsdn.com/sd/twitter_icon_large.png" /></a> <a class="slashpop" href="http://www.facebook.com/sharer.php?u=http\u005c%3A\u005c%2F\u005c%2Fyro.slashdot.org\u005c%2Fstory\u005c%2F13\u005c%2F03\u005c%2F23\u005c%2F1932218\u005c%2Firs-spent-60000-producing-star-trek-parody\u005c%3Futm_source\u005c%3Dslashdot\u005c%26utm_medium\u005c%3Dfacebook"><img src="http://a.fsdn.com/sd/facebook_icon_large.png" /></a> <a class="nobg" href="http://plus.google.com/share?url=http://yro.slashdot.org/story/13/03/23/1932218/irs-spent-60000-producing-star-trek-parody?utm_source=slashdot&amp;utm_medium=googleplus"><img alt="Share on Google+" src="http://www.gstatic.com/images/icons/gplus-16.png" /></a> </div></p><p><a href="http://yro.slashdot.org/story/13/03/23/1932218/irs-spent-60000-producing-star-trek-parody?utm_source=rss1.0moreanon&amp;utm_medium=feed">Read more of this story</a> at Slashdot.</p><img border="0" height="1" src="http://slashdot.feedsportal.com/c/35028/f/647410/s/29e953eb/mf.gif" width="1" /><br /><br /><a href="http://da.feedsportal.com/r/161393787216/u/49/f/647410/c/35028/s/29e953eb/a2.htm"><img border="0" src="http://da.feedsportal.com/r/161393787216/u/49/f/647410/c/35028/s/29e953eb/a2.img" /></a><img border="0" height="1" src="http://pi.feedsportal.com/r/161393787216/u/49/f/647410/c/35028/s/29e953eb/a2t.img" width="1" /><img height="1" src="http://feeds.feedburner.com/~r/Slashdot/slashdot/~4/muqDimJC8zo" width="1" />
p1119
sg162
I00
sS'title_detail'
p1120
g1
(g2
g3
(dp1121
g50
Vhttp://rss.slashdot.org/Slashdot/slashdot
p1122
sg19
Vtext/html
p1123
sg53
Nsg54
g1118
stRp1124
sg107
VSat, 23 Mar 2013 19:34:00 GMT
p1125
sg143
(lp1126
g145
aV*
ag146
astRp1127
ag1
(g2
g3
(dp1128
g7
V2013-03-23T18:36:00Z
p1129
sg11
g12
((I2013
I3
I23
I18
I36
I0
I5
I82
I0
t(dtRp1130
sg14
(lp1131
g1
(g2
g3
(dp1132
g17
Vhttp://rss.slashdot.org/~r/Slashdot/slashdot/~3/XhEacMBlNeA/story01.htm
p1133
sg19
g20
sg21
g22
stRp1134
asg38
(lp1135
g1
(g2
g3
(dp1136
g41
Vgovernment
p1137
sg43
Nsg44
NstRp1138
asS'slash_department'
p1139
Vman-vs-the-states
p1140
sS'feedburner_origlink'
p1141
Vhttp://slashdot.feedsportal.com/c/35028/f/647410/s/29e8b1c4/l/0Lpolitics0Bslashdot0Borg0Cstory0C130C0A30C230C18352420Cus0Esenate0Epasses0Enational0Einternet0Esales0Etax0Emandate0Dutm0Isource0Frss10B0Amainlinkanon0Gutm0Imedium0Ffeed/story01.htm
p1142
sS'summary_detail'
p1143
g1
(g2
g3
(dp1144
g50
Vhttp://rss.slashdot.org/Slashdot/slashdot
p1145
sg19
g100
sg53
Nsg54
VSonicSpike writes with the news that the U.S. Senate yesterday "passed a nonbinding proposal to allow states to collect sales tax on Internet sellers that have no presence within their borders. The proposal was an amendment to a 2014 budget bill that the Senate debated Friday. It was pushed by Senators Mike Enzi, a Wyoming Republican, and Dick Durbin, an Illinois Democrat, and was designed to give backers a sense of whether they had enough votes to push forward with final legislation to impose an Internet sales tax. The vote showed they have plenty of backing to overcome any filibuster seeking to block a final sales tax bill."<p><div class="share_submission"> <a class="slashpop" href="http://twitter.com/home?status=US+Senate+Passes+National+Internet+Sales+Tax+Mandate%3A+http%3A%2F%2Fbit.ly%2F108iwnW"><img src="http://a.fsdn.com/sd/twitter_icon_large.png" /></a> <a class="slashpop" href="http://www.facebook.com/sharer.php?u=http%3A%2F%2Fpolitics.slashdot.org%2Fstory%2F13%2F03%2F23%2F1835242%2Fus-senate-passes-national-internet-sales-tax-mandate%3Futm_source%3Dslashdot%26utm_medium%3Dfacebook"><img src="http://a.fsdn.com/sd/facebook_icon_large.png" /></a> <a class="nobg" href="http://plus.google.com/share?url=http://politics.slashdot.org/story/13/03/23/1835242/us-senate-passes-national-internet-sales-tax-mandate?utm_source=slashdot&amp;utm_medium=googleplus"><img alt="Share on Google+" src="http://www.gstatic.com/images/icons/gplus-16.png" /></a> </div></p><p><a href="http://politics.slashdot.org/story/13/03/23/1835242/us-senate-passes-national-internet-sales-tax-mandate?utm_source=rss1.0moreanon&amp;utm_medium=feed">Read more of this story</a> at Slashdot.</p><img border="0" height="1" src="http://slashdot.feedsportal.com/c/35028/f/647410/s/29e8b1c4/mf.gif" width="1" /><br /><br /><a href="http://da.feedsportal.com/r/161393786666/u/49/f/647410/c/35028/s/29e8b1c4/a2.htm"><img border="0" src="http://da.feedsportal.com/r/161393786666/u/49/f/647410/c/35028/s/29e8b1c4/a2.img" /></a><img border="0" height="1" src="http://pi.feedsportal.com/r/161393786666/u/49/f/647410/c/35028/s/29e8b1c4/a2t.img" width="1" /><img height="1" src="http://feeds.feedburner.com/~r/Slashdot/slashdot/~4/XhEacMBlNeA" width="1" />
p1146
stRp1147
sS'slash_section'
p1148
Vpolitics
p1149
sg143
(lp1150
g145
aV*
ag146
asg70
(lp1151
g1
(g2
g3
(dtRp1152
asS'author_detail'
p1153
g1
(g2
g3
(dp1154
g81
Vtimothy
p1155
stRp1156
sS'slash_hit_parade'
p1157
V8,8,6,4,0,0,0
p1158
sg155
Vhttp://slashdot.feedsportal.com/c/35028/f/647410/s/29e8b1c4/l/0Lpolitics0Bslashdot0Borg0Cstory0C130C0A30C230C18352420Cus0Esenate0Epasses0Enational0Einternet0Esales0Etax0Emandate0Dutm0Isource0Frss10B0Amainlinkanon0Gutm0Imedium0Ffeed/story01.htm
p1159
sS'slash_comments'
p1160
V8
sg92
g12
((I2013
I3
I23
I18
I36
I0
I5
I82
I0
t(dtRp1161
sg63
VUS Senate Passes National Internet Sales Tax Mandate
p1162
sg95
g1155
sg160
VSonicSpike writes with the news that the U.S. Senate yesterday "passed a nonbinding proposal to allow states to collect sales tax on Internet sellers that have no presence within their borders. The proposal was an amendment to a 2014 budget bill that the Senate debated Friday. It was pushed by Senators Mike Enzi, a Wyoming Republican, and Dick Durbin, an Illinois Democrat, and was designed to give backers a sense of whether they had enough votes to push forward with final legislation to impose an Internet sales tax. The vote showed they have plenty of backing to overcome any filibuster seeking to block a final sales tax bill."<p><div class="share_submission"> <a class="slashpop" href="http://twitter.com/home?status=US+Senate+Passes+National+Internet+Sales+Tax+Mandate\u005c%3A+http\u005c%3A\u005c%2F\u005c%2Fbit.ly\u005c%2F108iwnW"><img src="http://a.fsdn.com/sd/twitter_icon_large.png" /></a> <a class="slashpop" href="http://www.facebook.com/sharer.php?u=http\u005c%3A\u005c%2F\u005c%2Fpolitics.slashdot.org\u005c%2Fstory\u005c%2F13\u005c%2F03\u005c%2F23\u005c%2F1835242\u005c%2Fus-senate-passes-national-internet-sales-tax-mandate\u005c%3Futm_source\u005c%3Dslashdot\u005c%26utm_medium\u005c%3Dfacebook"><img src="http://a.fsdn.com/sd/facebook_icon_large.png" /></a> <a class="nobg" href="http://plus.google.com/share?url=http://politics.slashdot.org/story/13/03/23/1835242/us-senate-passes-national-internet-sales-tax-mandate?utm_source=slashdot&amp;utm_medium=googleplus"><img alt="Share on Google+" src="http://www.gstatic.com/images/icons/gplus-16.png" /></a> </div></p><p><a href="http://politics.slashdot.org/story/13/03/23/1835242/us-senate-passes-national-internet-sales-tax-mandate?utm_source=rss1.0moreanon&amp;utm_medium=feed">Read more of this story</a> at Slashdot.</p><img border="0" height="1" src="http://slashdot.feedsportal.com/c/35028/f/647410/s/29e8b1c4/mf.gif" width="1" /><br /><br /><a href="http://da.feedsportal.com/r/161393786666/u/49/f/647410/c/35028/s/29e8b1c4/a2.htm"><img border="0" src="http://da.feedsportal.com/r/161393786666/u/49/f/647410/c/35028/s/29e8b1c4/a2.img" /></a><img border="0" height="1" src="http://pi.feedsportal.com/r/161393786666/u/49/f/647410/c/35028/s/29e8b1c4/a2t.img" width="1" /><img height="1" src="http://feeds.feedburner.com/~r/Slashdot/slashdot/~4/XhEacMBlNeA" width="1" />
p1163
sg162
I00
sS'title_detail'
p1164
g1
(g2
g3
(dp1165
g50
Vhttp://rss.slashdot.org/Slashdot/slashdot
p1166
sg19
g52
sg53
Nsg54
g1162
stRp1167
sg107
VSat, 23 Mar 2013 18:36:00 GMT
p1168
sg58
g1133
stRp1169
asS'canto_update'
p1170
F1364190542.2189
sS'headers'
p1171
(dp1172
S'x-xss-protection'
p1173
S'1; mode=block'
p1174
sS'x-content-type-options'
p1175
S'nosniff'
p1176
sS'expires'
p1177
S'Mon, 25 Mar 2013 05:47:39 GMT'
p1178
sS'server'
p1179
S'GSE'
p1180
sS'last-modified'
p1181
g114
sS'connection'
p1182
S'close'
p1183
sS'etag'
p1184
S'xseI7t837efQ6nwIMR9pszhs1ls'
p1185
sS'cache-control'
p1186
S'private, max-age=0'
p1187
sS'date'
p1188
S'Mon, 25 Mar 2013 05:47:39 GMT'
p1189
sS'content-type'
p1190
S'text/xml; charset=UTF-8'
p1191
ssS'etag'
p1192
VxseI7t837efQ6nwIMR9pszhs1ls
p1193
sg143
(lp1194
sg17
Vhttp://rss.slashdot.org/Slashdot/slashdot
p1195
sS'version'
p1196
Vrss20
p1197
sS'canto_version'
p1198
(I0
I7
I10
tp1199
sS'namespaces'
p1200
(dp1201
S''
Vhttp://www.w3.org/2005/Atom
p1202
sS'sy'
p1203
Vhttp://purl.org/rss/1.0/modules/syndication/
p1204
sS'taxo'
p1205
Vhttp://purl.org/rss/1.0/modules/taxonomy/
p1206
sS'dc'
p1207
Vhttp://purl.org/dc/elements/1.1/
p1208
sS'itunes'
p1209
Vhttp://www.itunes.com/dtds/podcast-1.0.dtd
p1210
sS'rdf'
p1211
Vhttp://www.w3.org/1999/02/22-rdf-syntax-ns#
p1212
sS'slash'
p1213
Vhttp://purl.org/rss/1.0/modules/slash/
p1214
sS'feedburner'
p1215
Vhttp://rssnamespace.org/feedburner/ext/1.0
p1216
sstRp1217
.