ccopy_reg
_reconstructor
p1
(cfeedparser
FeedParserDict
p2
c__builtin__
dict
p3
(dp4
S'feed'
p5
g1
(g2
g3
(dp6
S'updated'
p7
V2013-03-25T00:00:00Z
p8
sS'links'
p9
(lp10
g1
(g2
g3
(dp11
S'href'
p12
Vhttp://xkcd.com/
p13
sS'type'
p14
Vtext/html
p15
sS'rel'
p16
Valternate
p17
stRp18
asS'language'
p19
Ven
p20
sS'title'
p21
Vxkcd.com
p22
sS'guidislink'
p23
I00
sS'title_detail'
p24
g1
(g2
g3
(dp25
S'base'
p26
Vhttp://xkcd.com/atom.xml
p27
sg14
Vtext/plain
p28
sg19
g20
sS'value'
p29
g22
stRp30
sS'link'
p31
g13
sS'id'
p32
Vhttp://xkcd.com/
p33
sS'updated_parsed'
p34
ctime
struct_time
p35
((I2013
I3
I25
I0
I0
I0
I0
I84
I0
t(dtRp36
stRp37
sS'status'
p38
I200
sg7
S'Mon, 25 Mar 2013 04:00:06 GMT'
p39
sg34
g35
((I2013
I3
I25
I4
I0
I6
I0
I84
I0
t(dtRp40
sS'encoding'
p41
Vutf-8
p42
sS'bozo'
p43
I0
sS'entries'
p44
(lp45
g1
(g2
g3
(dp46
S'summary_detail'
p47
g1
(g2
g3
(dp48
g26
Vhttp://xkcd.com/atom.xml
p49
sg14
Vtext/html
p50
sg19
g20
sg29
V<img alt="Wait for it." src="http://imgs.xkcd.com/comics/time.png" title="Wait for it." />
p51
stRp52
sg34
g35
((I2013
I3
I25
I0
I0
I0
I0
I84
I0
t(dtRp53
sg9
(lp54
g1
(g2
g3
(dp55
S'href'
p56
Vhttp://xkcd.com/1190/
p57
sg14
g15
sS'rel'
p58
Valternate
p59
stRp60
asg21
VTime
p61
sg7
V2013-03-25T00:00:00Z
p62
sS'summary'
p63
g51
sg23
I00
sS'title_detail'
p64
g1
(g2
g3
(dp65
g26
Vhttp://xkcd.com/atom.xml
p66
sg14
g28
sg19
g20
sg29
g61
stRp67
sg31
g57
sS'canto_state'
p68
(lp69
Vxkcd
p70
aV*
aS'read'
p71
asg32
Vhttp://xkcd.com/1190/
p72
stRp73
ag1
(g2
g3
(dp74
S'summary_detail'
p75
g1
(g2
g3
(dp76
g26
Vhttp://xkcd.com/atom.xml
p77
sg14
g50
sg19
g20
sg29
V<img alt="So far Voyager 1 has 'left the Solar System' by passing through the termination shock three times, the heliopause twice, and once each through the heliosheath, heliosphere, heliodrome, auroral discontinuity, Heaviside layer, trans-Neptunian panic zone, magnetogap, US Census Bureau Solar System statistical boundary, Kuiper gauntlet, Oort void, and crystal sphere holding the fixed stars." src="http://imgs.xkcd.com/comics/voyager_1.png" title="So far Voyager 1 has 'left the Solar System' by passing through the termination shock three times, the heliopause twice, and once each through the heliosheath, heliosphere, heliodrome, auroral discontinuity, Heaviside layer, trans-Neptunian panic zone, magnetogap, US Census Bureau Solar System statistical boundary, Kuiper gauntlet, Oort void, and crystal sphere holding the fixed stars." />
p78
stRp79
sg34
g35
((I2013
I3
I22
I0
I0
I0
I4
I81
I0
t(dtRp80
sg9
(lp81
g1
(g2
g3
(dp82
S'href'
p83
Vhttp://xkcd.com/1189/
p84
sg14
g15
sS'rel'
p85
Valternate
p86
stRp87
asg21
VVoyager 1
p88
sg7
V2013-03-22T00:00:00Z
p89
sg63
g78
sg23
I00
sS'title_detail'
p90
g1
(g2
g3
(dp91
g26
Vhttp://xkcd.com/atom.xml
p92
sg14
g28
sg19
g20
sg29
g88
stRp93
sg31
g84
sg68
(lp94
g70
aV*
ag71
asg32
Vhttp://xkcd.com/1189/
p95
stRp96
ag1
(g2
g3
(dp97
S'summary_detail'
p98
g1
(g2
g3
(dp99
g26
Vhttp://xkcd.com/atom.xml
p100
sg14
g50
sg19
g20
sg29
V<img alt="I'm trying to build character but Eclipse is really confusing." src="http://imgs.xkcd.com/comics/bonding.png" title="I'm trying to build character but Eclipse is really confusing." />
p101
stRp102
sg34
g35
((I2013
I3
I20
I0
I0
I0
I2
I79
I0
t(dtRp103
sg9
(lp104
g1
(g2
g3
(dp105
S'href'
p106
Vhttp://xkcd.com/1188/
p107
sg14
g15
sS'rel'
p108
Valternate
p109
stRp110
asg21
VBonding
p111
sg7
V2013-03-20T00:00:00Z
p112
sg63
g101
sg23
I00
sS'title_detail'
p113
g1
(g2
g3
(dp114
g26
Vhttp://xkcd.com/atom.xml
p115
sg14
g28
sg19
g20
sg29
g111
stRp116
sg31
g107
sg68
(lp117
g70
aV*
ag71
asg32
Vhttp://xkcd.com/1188/
p118
stRp119
ag1
(g2
g3
(dp120
S'summary_detail'
p121
g1
(g2
g3
(dp122
g26
Vhttp://xkcd.com/atom.xml
p123
sg14
g50
sg19
g20
sg29
V<img alt="I'm always disappointed when 'Anamorphic Widescreen' doesn't refer to a widescreen Animorphs movie." src="http://imgs.xkcd.com/comics/aspect_ratio.png" title="I'm always disappointed when 'Anamorphic Widescreen' doesn't refer to a widescreen Animorphs movie." />
p124
stRp125
sg34
g35
((I2013
I3
I18
I0
I0
I0
I0
I77
I0
t(dtRp126
sg9
(lp127
g1
(g2
g3
(dp128
S'href'
p129
Vhttp://xkcd.com/1187/
p130
sg14
g15
sS'rel'
p131
Valternate
p132
stRp133
asg21
VAspect Ratio
p134
sg7
V2013-03-18T00:00:00Z
p135
sg63
g124
sg23
I00
sS'title_detail'
p136
g1
(g2
g3
(dp137
g26
Vhttp://xkcd.com/atom.xml
p138
sg14
g28
sg19
g20
sg29
g134
stRp139
sg31
g130
sg68
(lp140
g70
aV*
ag71
asg32
Vhttp://xkcd.com/1187/
p141
stRp142
asS'canto_update'
p143
F1364190819.7092919
sS'headers'
p144
(dp145
S'content-length'
p146
S'2452'
p147
sS'accept-ranges'
p148
S'bytes'
p149
sS'vary'
p150
S'Accept-Encoding'
p151
sS'server'
p152
S'lighttpd/1.4.28'
p153
sS'last-modified'
p154
g39
sS'connection'
p155
S'close'
p156
sS'etag'
p157
S'"1313986906"'
p158
sS'date'
p159
S'Mon, 25 Mar 2013 05:53:38 GMT'
p160
sS'content-type'
p161
S'application/xml'
p162
ssS'etag'
p163
V"1313986906"
p164
sg68
(lp165
sS'href'
p166
Vhttp://xkcd.com/atom.xml
p167
sS'version'
p168
Vatom10
p169
sS'canto_version'
p170
(I0
I7
I10
tp171
sS'namespaces'
p172
(dp173
S''
Vhttp://www.w3.org/2005/Atom
p174
sstRp175
.