ccopy_reg
_reconstructor
p1
(cfeedparser
FeedParserDict
p2
c__builtin__
dict
p3
(dp4
S'feed'
p5
g1
(g2
g3
(dp6
S'title_detail'
p7
g1
(g2
g3
(dp8
S'base'
p9
Vhttp://www.vgcats.com/super/se.rdf.xml
p10
sS'type'
p11
Vtext/plain
p12
sS'language'
p13
NsS'value'
p14
VSuper Effective
p15
stRp16
sS'subtitle'
p17
VSuper Effective - Online comic
p18
sS'links'
p19
(lp20
g1
(g2
g3
(dp21
S'href'
p22
Vhttp://www.vgcats.com/super/
p23
sg11
Vtext/html
p24
sS'rel'
p25
Valternate
p26
stRp27
asS'title'
p28
g15
sS'link'
p29
g23
sS'subtitle_detail'
p30
g1
(g2
g3
(dp31
g9
Vhttp://www.vgcats.com/super/se.rdf.xml
p32
sg11
Vtext/html
p33
sg13
Nsg14
g18
stRp34
stRp35
sS'status'
p36
I200
sS'updated'
p37
S'Thu, 10 Jan 2013 08:36:21 GMT'
p38
sS'updated_parsed'
p39
ctime
struct_time
p40
((I2013
I1
I10
I8
I36
I21
I3
I10
I0
t(dtRp41
sS'encoding'
p42
Vus-ascii
p43
sS'bozo'
p44
I0
sS'entries'
p45
(lp46
g1
(g2
g3
(dp47
S'title_detail'
p48
g1
(g2
g3
(dp49
g9
Vhttp://www.vgcats.com/super/se.rdf.xml
p50
sg11
g12
sg13
Nsg14
VSuper Effective : 66 - Fossils
p51
stRp52
sS'canto_state'
p53
(lp54
VSuper Effective
p55
aV*
aS'read'
p56
asg19
(lp57
g1
(g2
g3
(dp58
g22
Vhttp://www.vgcats.com/super/?strip_id=65
p59
sg11
g24
sg25
g26
stRp60
asg28
g51
sg29
g59
sS'id'
p61
g59
stRp62
asS'canto_update'
p63
F1364190818.5624731
sS'headers'
p64
(dp65
S'content-length'
p66
S'300'
p67
sS'x-cache'
p68
S'HIT'
p69
sS'x-sylvanas'
p70
S'Beg for your miserable life!'
p71
sS'expires'
p72
S'Mon, 25 Mar 2013 06:44:03 GMT'
p73
sS'vary'
p74
S'Accept-Encoding, Accept-Encoding'
p75
sS'server'
p76
S'nginx'
p77
sS'last-modified'
p78
g38
sS'connection'
p79
S'close'
p80
sS'etag'
p81
S'"1661005-12c-4d2eb12c6ab40"'
p82
sS'x-cache-hits'
p83
S'156'
p84
sS'pragma'
p85
S'public'
p86
sS'cache-control'
p87
S'max-age=3600, public, must-revalidate, proxy-revalidate'
p88
sS'date'
p89
S'Mon, 25 Mar 2013 05:53:43 GMT'
p90
sS'content-type'
p91
S'text/xml'
p92
ssS'etag'
p93
V"1661005-12c-4d2eb12c6ab40"
p94
sg53
(lp95
sg22
Vhttp://www.vgcats.com/super/se.rdf.xml
p96
sS'version'
p97
Vrss091u
p98
sS'canto_version'
p99
(I0
I7
I10
tp100
sS'namespaces'
p101
(dp102
stRp103
.