ccopy_reg
_reconstructor
p1
(cfeedparser
FeedParserDict
p2
c__builtin__
dict
p3
(dp4
S'feed'
p5
g1
(g2
g3
(dp6
S'updated'
p7
V2013-03-22T21:28:09Z
p8
sS'links'
p9
(lp10
g1
(g2
g3
(dp11
S'href'
p12
Vhttp://gitorious.org
p13
sS'type'
p14
Vtext/html
p15
sS'rel'
p16
Valternate
p17
stRp18
ag1
(g2
g3
(dp19
S'href'
p20
Vhttp://gitorious.org/minitunes.atom
p21
sS'type'
p22
Vapplication/atom+xml
p23
sS'rel'
p24
Vself
p25
stRp26
asS'language'
p27
Ven-US
p28
sS'title'
p29
VGitorious: minitunes activity
p30
sS'guidislink'
p31
I01
sS'title_detail'
p32
g1
(g2
g3
(dp33
S'base'
p34
Vhttp://gitorious.org/minitunes.atom
p35
sS'type'
p36
Vtext/plain
p37
sg27
g28
sS'value'
p38
g30
stRp39
sS'link'
p40
g13
sS'id'
p41
Vtag:gitorious.org,2005:/minitunes
p42
sS'updated_parsed'
p43
ctime
struct_time
p44
((I2013
I3
I22
I21
I28
I9
I4
I81
I0
t(dtRp45
stRp46
sS'status'
p47
I200
sS'canto_version'
p48
(I0
I7
I10
tp49
sS'bozo'
p50
I0
sS'encoding'
p51
Vutf-8
p52
sS'canto_update'
p53
F1364190827.4670081
sS'headers'
p54
(dp55
S'status'
p56
S'200 OK'
p57
sS'content-length'
p58
S'23637'
p59
sS'x-varnish'
p60
S'1913095334'
p61
sS'set-cookie'
p62
S'_gitorious_sess=BAh7BjoPc2Vzc2lvbl9pZCIlOWNjN2NlMTk1ZjFmN2VlYjIxODViNjk4ZGQ5YmRlMGY%3D--8341551881bbfcc66a668e0bf4743e4535d5d479; domain=.gitorious.org; path=/; expires=Mon, 15-Apr-2013 04:53:41 GMT; HttpOnly'
p63
sS'age'
p64
S'0'
sS'x-runtime'
p65
S'305'
p66
sS'server'
p67
S'nginx/1.0.15'
p68
sS'connection'
p69
S'close'
p70
sS'via'
p71
S'1.1 varnish'
p72
sS'etag'
p73
S'"d13160e1150188adff0cd7831eb0b671"'
p74
sS'cache-control'
p75
S'private, max-age=0, must-revalidate'
p76
sS'date'
p77
S'Mon, 25 Mar 2013 05:53:41 GMT'
p78
sS'content-type'
p79
S'application/atom+xml; charset=utf-8'
p80
ssS'href'
p81
Vhttp://gitorious.org/minitunes.atom
p82
sS'version'
p83
Vatom10
p84
sS'canto_state'
p85
(lp86
sS'etag'
p87
V"d13160e1150188adff0cd7831eb0b671"
p88
sS'namespaces'
p89
(dp90
S''
Vhttp://www.w3.org/2005/Atom
p91
sVgts
p92
Vhttp://gitorious.org/schema
p93
ssS'entries'
p94
(lp95
g1
(g2
g3
(dp96
g7
V2013-03-22T21:28:09Z
p97
sg43
g44
((I2013
I3
I22
I21
I28
I9
I4
I81
I0
t(dtRp98
sg9
(lp99
g1
(g2
g3
(dp100
S'href'
p101
Vhttps://gitorious.org/minitunes
p102
sS'type'
p103
Vtext/html
p104
sS'rel'
p105
Valternate
p106
stRp107
asg40
g102
sS'authors'
p108
(lp109
g1
(g2
g3
(dp110
S'name'
p111
Vmic14
p112
stRp113
asS'author_detail'
p114
g1
(g2
g3
(dp115
g111
g112
stRp116
sg41
Vtag:gitorious.org,2005:Event/43577335
p117
sS'published_parsed'
p118
g44
((I2013
I3
I22
I21
I28
I9
I4
I81
I0
t(dtRp119
sg29
Vmic14 cloned minitunes/minitunes
p120
sS'author'
p121
g112
sS'summary'
p122
V<p><a href="http://gitorious.org/~mic14">mic14</a> cloned <a href="http://gitorious.org/minitunes/minitunes">minitunes/minitunes</a></p>\u000a  <p>New repository is in <a href="http://gitorious.org/~mic14/minitunes/mic14-musique">mic14-musique</a><p>
p123
sS'content'
p124
(lp125
g1
(g2
g3
(dp126
g34
Vhttp://gitorious.org/minitunes.atom
p127
sg36
Vtext/html
p128
sg27
g28
sg38
g123
stRp129
asg31
I01
sS'title_detail'
p130
g1
(g2
g3
(dp131
g34
Vhttp://gitorious.org/minitunes.atom
p132
sg36
g37
sg27
g28
sg38
g120
stRp133
sS'published'
p134
V2013-03-22T21:28:09Z
p135
sg85
(lp136
VGitorious: minitunes activity
p137
aV*
aS'read'
p138
astRp139
ag1
(g2
g3
(dp140
g7
V2013-03-21T08:49:59Z
p141
sg43
g44
((I2013
I3
I21
I8
I49
I59
I3
I80
I0
t(dtRp142
sg9
(lp143
g1
(g2
g3
(dp144
S'href'
p145
Vhttps://gitorious.org/minitunes
p146
sS'type'
p147
Vtext/html
p148
sS'rel'
p149
Valternate
p150
stRp151
asg40
g146
sg108
(lp152
g1
(g2
g3
(dp153
g111
Vndr
p154
stRp155
asS'author_detail'
p156
g1
(g2
g3
(dp157
g111
g154
stRp158
sg41
Vtag:gitorious.org,2005:Event/43574948
p159
sg118
g44
((I2013
I3
I21
I8
I49
I59
I3
I80
I0
t(dtRp160
sg29
Vndr started watching minitunes/minitunes
p161
sg121
g154
sg122
V<p><a href="http://gitorious.org/~ndr">ndr</a> started watching <a href="http://gitorious.org/minitunes/minitunes">minitunes/minitunes</a></p>\u000a  <p><p>
p162
sg124
(lp163
g1
(g2
g3
(dp164
g34
Vhttp://gitorious.org/minitunes.atom
p165
sg36
g128
sg27
g28
sg38
g162
stRp166
asg31
I01
sS'title_detail'
p167
g1
(g2
g3
(dp168
g34
Vhttp://gitorious.org/minitunes.atom
p169
sg36
g37
sg27
g28
sg38
g161
stRp170
sg134
V2013-03-21T08:49:59Z
p171
sg85
(lp172
g137
aV*
ag138
astRp173
ag1
(g2
g3
(dp174
g7
V2013-02-03T20:20:24Z
p175
sg43
g44
((I2013
I2
I3
I20
I20
I24
I6
I34
I0
t(dtRp176
sg9
(lp177
g1
(g2
g3
(dp178
S'href'
p179
Vhttps://gitorious.org/minitunes
p180
sS'type'
p181
Vtext/html
p182
sS'rel'
p183
Valternate
p184
stRp185
asg40
g180
sg108
(lp186
g1
(g2
g3
(dp187
g111
Vzarlino
p188
stRp189
asS'author_detail'
p190
g1
(g2
g3
(dp191
g111
g188
stRp192
sg41
Vtag:gitorious.org,2005:Event/43512126
p193
sg118
g44
((I2013
I2
I3
I20
I20
I24
I6
I34
I0
t(dtRp194
sg29
Vzarlino pushed 1 commit  to minitunes/minitunes:master. View diff
p195
sg121
g188
sg122
V<p><a href="http://gitorious.org/~zarlino">zarlino</a> pushed <a class="commit_event_toggler" href="http://gitorious.org/minitunes/minitunes/commits/master" id="commits_in_event_43512126_toggler">1 commit</a>  to <a href="http://gitorious.org/minitunes/minitunes/commits/master">minitunes/minitunes:master</a>. <a href="http://gitorious.org/minitunes/minitunes/commit/964d6829dad0521f910d98681c73970e612ae4fe/diffs/e2a7baae33039258c548ee22e919aa3b8e30268f">View diff</a></p>\u000a  <p>master changed from 964d682 to e2a7baa<p>
p196
sg124
(lp197
g1
(g2
g3
(dp198
g34
Vhttp://gitorious.org/minitunes.atom
p199
sg36
g128
sg27
g28
sg38
g196
stRp200
asg31
I01
sS'title_detail'
p201
g1
(g2
g3
(dp202
g34
Vhttp://gitorious.org/minitunes.atom
p203
sg36
g37
sg27
g28
sg38
g195
stRp204
sg134
V2013-02-03T20:20:24Z
p205
sg85
(lp206
g137
aV*
ag138
astRp207
ag1
(g2
g3
(dp208
g7
V2013-02-02T13:05:34Z
p209
sg43
g44
((I2013
I2
I2
I13
I5
I34
I5
I33
I0
t(dtRp210
sg9
(lp211
g1
(g2
g3
(dp212
S'href'
p213
Vhttps://gitorious.org/minitunes
p214
sS'type'
p215
Vtext/html
p216
sS'rel'
p217
Valternate
p218
stRp219
asg40
g214
sg108
(lp220
g1
(g2
g3
(dp221
g111
Vzarlino
p222
stRp223
asS'author_detail'
p224
g1
(g2
g3
(dp225
g111
g222
stRp226
sg41
Vtag:gitorious.org,2005:Event/43510948
p227
sg118
g44
((I2013
I2
I2
I13
I5
I34
I5
I33
I0
t(dtRp228
sg29
Vzarlino tagged minitunes/minitunes
p229
sg121
g222
sg122
V<p><a href="http://gitorious.org/~zarlino">zarlino</a> tagged <a href="http://gitorious.org/minitunes">minitunes</a>/<a href="http://gitorious.org/minitunes/minitunes">minitunes</a></p>\u000a  <p><a href="http://gitorious.org/minitunes/minitunes/trees/1.2.1">1.2.1: Created tag 1.2.1</a><p>
p230
sg124
(lp231
g1
(g2
g3
(dp232
g34
Vhttp://gitorious.org/minitunes.atom
p233
sg36
g128
sg27
g28
sg38
g230
stRp234
asg31
I01
sS'title_detail'
p235
g1
(g2
g3
(dp236
g34
Vhttp://gitorious.org/minitunes.atom
p237
sg36
g37
sg27
g28
sg38
g229
stRp238
sg134
V2013-02-02T13:05:34Z
p239
sg85
(lp240
g137
aV*
ag138
astRp241
ag1
(g2
g3
(dp242
g7
V2013-02-02T13:05:27Z
p243
sg43
g44
((I2013
I2
I2
I13
I5
I27
I5
I33
I0
t(dtRp244
sg9
(lp245
g1
(g2
g3
(dp246
S'href'
p247
Vhttps://gitorious.org/minitunes
p248
sS'type'
p249
Vtext/html
p250
sS'rel'
p251
Valternate
p252
stRp253
asg40
g248
sg108
(lp254
g1
(g2
g3
(dp255
g111
Vzarlino
p256
stRp257
asS'author_detail'
p258
g1
(g2
g3
(dp259
g111
g256
stRp260
sg41
Vtag:gitorious.org,2005:Event/43510946
p261
sg118
g44
((I2013
I2
I2
I13
I5
I27
I5
I33
I0
t(dtRp262
sg29
Vzarlino pushed 14 commits  to minitunes/minitunes:master. View diff
p263
sg121
g256
sg122
V<p><a href="http://gitorious.org/~zarlino">zarlino</a> pushed <a class="commit_event_toggler" href="http://gitorious.org/minitunes/minitunes/commits/master" id="commits_in_event_43510946_toggler">14 commits</a>  to <a href="http://gitorious.org/minitunes/minitunes/commits/master">minitunes/minitunes:master</a>. <a href="http://gitorious.org/minitunes/minitunes/commit/e0cfebc7f973a13b382aca97c0109fc3b444384a/diffs/964d6829dad0521f910d98681c73970e612ae4fe">View diff</a></p>\u000a  <p>master changed from e0cfebc to 964d682<p>
p264
sg124
(lp265
g1
(g2
g3
(dp266
g34
Vhttp://gitorious.org/minitunes.atom
p267
sg36
g128
sg27
g28
sg38
g264
stRp268
asg31
I01
sS'title_detail'
p269
g1
(g2
g3
(dp270
g34
Vhttp://gitorious.org/minitunes.atom
p271
sg36
g37
sg27
g28
sg38
g263
stRp272
sg134
V2013-02-02T13:05:27Z
p273
sg85
(lp274
g137
aV*
ag138
astRp275
ag1
(g2
g3
(dp276
g7
V2012-11-28T21:54:33Z
p277
sg43
g44
((I2012
I11
I28
I21
I54
I33
I2
I333
I0
t(dtRp278
sg9
(lp279
g1
(g2
g3
(dp280
S'href'
p281
Vhttps://gitorious.org/minitunes
p282
sS'type'
p283
Vtext/html
p284
sS'rel'
p285
Valternate
p286
stRp287
asg40
g282
sg108
(lp288
g1
(g2
g3
(dp289
g111
Vrmx
p290
stRp291
asS'author_detail'
p292
g1
(g2
g3
(dp293
g111
g290
stRp294
sg41
Vtag:gitorious.org,2005:Event/43418495
p295
sg118
g44
((I2012
I11
I28
I21
I54
I33
I2
I333
I0
t(dtRp296
sg29
Vrmx pushed 1 commit  to ~rmx/minitunes/rmx-minitunes-minitunes:master. View diff
p297
sg121
g290
sg122
V<p><a href="http://gitorious.org/~rmx">rmx</a> pushed <a class="commit_event_toggler" href="http://gitorious.org/~rmx/minitunes/rmx-minitunes-minitunes/commits/master" id="commits_in_event_43418495_toggler">1 commit</a>  to <a href="http://gitorious.org/~rmx/minitunes/rmx-minitunes-minitunes/commits/master">~rmx/minitunes/rmx-minitunes-minitunes:master</a>. <a href="http://gitorious.org/minitunes/rmx-minitunes-minitunes/commit/e0cfebc7f973a13b382aca97c0109fc3b444384a/diffs/324e1a492a7e71c58a5a386ee10d468b2fbdd302">View diff</a></p>\u000a  <p>master changed from e0cfebc to 324e1a4<p>
p298
sg124
(lp299
g1
(g2
g3
(dp300
g34
Vhttp://gitorious.org/minitunes.atom
p301
sg36
g128
sg27
g28
sg38
g298
stRp302
asg31
I01
sS'title_detail'
p303
g1
(g2
g3
(dp304
g34
Vhttp://gitorious.org/minitunes.atom
p305
sg36
g37
sg27
g28
sg38
g297
stRp306
sg134
V2012-11-28T21:54:33Z
p307
sg85
(lp308
g137
aV*
ag138
astRp309
ag1
(g2
g3
(dp310
g7
V2012-11-28T21:50:21Z
p311
sg43
g44
((I2012
I11
I28
I21
I50
I21
I2
I333
I0
t(dtRp312
sg9
(lp313
g1
(g2
g3
(dp314
S'href'
p315
Vhttps://gitorious.org/minitunes
p316
sS'type'
p317
Vtext/html
p318
sS'rel'
p319
Valternate
p320
stRp321
asg40
g316
sg108
(lp322
g1
(g2
g3
(dp323
g111
Vrmx
p324
stRp325
asS'author_detail'
p326
g1
(g2
g3
(dp327
g111
g324
stRp328
sg41
Vtag:gitorious.org,2005:Event/43418489
p329
sg118
g44
((I2012
I11
I28
I21
I50
I21
I2
I333
I0
t(dtRp330
sg29
Vrmx cloned minitunes/minitunes
p331
sg121
g324
sg122
V<p><a href="http://gitorious.org/~rmx">rmx</a> cloned <a href="http://gitorious.org/minitunes/minitunes">minitunes/minitunes</a></p>\u000a  <p>New repository is in <a href="http://gitorious.org/~rmx/minitunes/rmx-minitunes-minitunes">rmx-minitunes-minitunes</a><p>
p332
sg124
(lp333
g1
(g2
g3
(dp334
g34
Vhttp://gitorious.org/minitunes.atom
p335
sg36
g128
sg27
g28
sg38
g332
stRp336
asg31
I01
sS'title_detail'
p337
g1
(g2
g3
(dp338
g34
Vhttp://gitorious.org/minitunes.atom
p339
sg36
g37
sg27
g28
sg38
g331
stRp340
sg134
V2012-11-28T21:50:21Z
p341
sg85
(lp342
g137
aV*
ag138
astRp343
ag1
(g2
g3
(dp344
g7
V2012-10-22T08:27:33Z
p345
sg43
g44
((I2012
I10
I22
I8
I27
I33
I0
I296
I0
t(dtRp346
sg9
(lp347
g1
(g2
g3
(dp348
S'href'
p349
Vhttps://gitorious.org/minitunes
p350
sS'type'
p351
Vtext/html
p352
sS'rel'
p353
Valternate
p354
stRp355
asg40
g350
sg108
(lp356
g1
(g2
g3
(dp357
g111
Vzarlino
p358
stRp359
asS'author_detail'
p360
g1
(g2
g3
(dp361
g111
g358
stRp362
sg41
Vtag:gitorious.org,2005:Event/43363749
p363
sg118
g44
((I2012
I10
I22
I8
I27
I33
I0
I296
I0
t(dtRp364
sg29
Vzarlino pushed 2 commits  to minitunes/minitunes:master. View diff
p365
sg121
g358
sg122
V<p><a href="http://gitorious.org/~zarlino">zarlino</a> pushed <a class="commit_event_toggler" href="http://gitorious.org/minitunes/minitunes/commits/master" id="commits_in_event_43363749_toggler">2 commits</a>  to <a href="http://gitorious.org/minitunes/minitunes/commits/master">minitunes/minitunes:master</a>. <a href="http://gitorious.org/minitunes/minitunes/commit/3f1cb637c00158530c16bb78474ea90b6dec7351/diffs/e0cfebc7f973a13b382aca97c0109fc3b444384a">View diff</a></p>\u000a  <p>master changed from 3f1cb63 to e0cfebc<p>
p366
sg124
(lp367
g1
(g2
g3
(dp368
g34
Vhttp://gitorious.org/minitunes.atom
p369
sg36
g128
sg27
g28
sg38
g366
stRp370
asg31
I01
sS'title_detail'
p371
g1
(g2
g3
(dp372
g34
Vhttp://gitorious.org/minitunes.atom
p373
sg36
g37
sg27
g28
sg38
g365
stRp374
sg134
V2012-10-22T08:27:33Z
p375
sg85
(lp376
g137
aV*
ag138
astRp377
ag1
(g2
g3
(dp378
g7
V2012-10-20T20:07:50Z
p379
sg43
g44
((I2012
I10
I20
I20
I7
I50
I5
I294
I0
t(dtRp380
sg9
(lp381
g1
(g2
g3
(dp382
S'href'
p383
Vhttps://gitorious.org/minitunes
p384
sS'type'
p385
Vtext/html
p386
sS'rel'
p387
Valternate
p388
stRp389
asg40
g384
sg108
(lp390
g1
(g2
g3
(dp391
g111
Vzarlino
p392
stRp393
asS'author_detail'
p394
g1
(g2
g3
(dp395
g111
g392
stRp396
sg41
Vtag:gitorious.org,2005:Event/43362264
p397
sg118
g44
((I2012
I10
I20
I20
I7
I50
I5
I294
I0
t(dtRp398
sg29
Vzarlino tagged minitunes/minitunes
p399
sg121
g392
sg122
V<p><a href="http://gitorious.org/~zarlino">zarlino</a> tagged <a href="http://gitorious.org/minitunes">minitunes</a>/<a href="http://gitorious.org/minitunes/minitunes">minitunes</a></p>\u000a  <p><a href="http://gitorious.org/minitunes/minitunes/trees/1.2">1.2: Created tag 1.2</a><p>
p400
sg124
(lp401
g1
(g2
g3
(dp402
g34
Vhttp://gitorious.org/minitunes.atom
p403
sg36
g128
sg27
g28
sg38
g400
stRp404
asg31
I01
sS'title_detail'
p405
g1
(g2
g3
(dp406
g34
Vhttp://gitorious.org/minitunes.atom
p407
sg36
g37
sg27
g28
sg38
g399
stRp408
sg134
V2012-10-20T20:07:50Z
p409
sg85
(lp410
g137
aV*
ag138
astRp411
ag1
(g2
g3
(dp412
g7
V2012-10-20T10:18:38Z
p413
sg43
g44
((I2012
I10
I20
I10
I18
I38
I5
I294
I0
t(dtRp414
sg9
(lp415
g1
(g2
g3
(dp416
S'href'
p417
Vhttps://gitorious.org/minitunes
p418
sS'type'
p419
Vtext/html
p420
sS'rel'
p421
Valternate
p422
stRp423
asg40
g418
sg108
(lp424
g1
(g2
g3
(dp425
g111
Vzarlino
p426
stRp427
asS'author_detail'
p428
g1
(g2
g3
(dp429
g111
g426
stRp430
sg41
Vtag:gitorious.org,2005:Event/43361856
p431
sg118
g44
((I2012
I10
I20
I10
I18
I38
I5
I294
I0
t(dtRp432
sg29
Vzarlino pushed 11 commits  to minitunes/minitunes:master. View diff
p433
sg121
g426
sg122
V<p><a href="http://gitorious.org/~zarlino">zarlino</a> pushed <a class="commit_event_toggler" href="http://gitorious.org/minitunes/minitunes/commits/master" id="commits_in_event_43361856_toggler">11 commits</a>  to <a href="http://gitorious.org/minitunes/minitunes/commits/master">minitunes/minitunes:master</a>. <a href="http://gitorious.org/minitunes/minitunes/commit/b5fd534c793d922213c05ec965f916489eba7eb3/diffs/3f1cb637c00158530c16bb78474ea90b6dec7351">View diff</a></p>\u000a  <p>master changed from b5fd534 to 3f1cb63<p>
p434
sg124
(lp435
g1
(g2
g3
(dp436
g34
Vhttp://gitorious.org/minitunes.atom
p437
sg36
g128
sg27
g28
sg38
g434
stRp438
asg31
I01
sS'title_detail'
p439
g1
(g2
g3
(dp440
g34
Vhttp://gitorious.org/minitunes.atom
p441
sg36
g37
sg27
g28
sg38
g433
stRp442
sg134
V2012-10-20T10:18:38Z
p443
sg85
(lp444
g137
aV*
ag138
astRp445
ag1
(g2
g3
(dp446
g7
V2012-10-12T08:32:51Z
p447
sg43
g44
((I2012
I10
I12
I8
I32
I51
I4
I286
I0
t(dtRp448
sg9
(lp449
g1
(g2
g3
(dp450
S'href'
p451
Vhttps://gitorious.org/minitunes
p452
sS'type'
p453
Vtext/html
p454
sS'rel'
p455
Valternate
p456
stRp457
asg40
g452
sg108
(lp458
g1
(g2
g3
(dp459
g111
Vkeripix
p460
stRp461
asS'author_detail'
p462
g1
(g2
g3
(dp463
g111
g460
stRp464
sg41
Vtag:gitorious.org,2005:Event/43334830
p465
sg118
g44
((I2012
I10
I12
I8
I32
I51
I4
I286
I0
t(dtRp466
sg29
Vkeripix cloned minitunes/minitunes
p467
sg121
g460
sg122
V<p><a href="http://gitorious.org/~keripix">keripix</a> cloned <a href="http://gitorious.org/minitunes/minitunes">minitunes/minitunes</a></p>\u000a  <p>New repository is in <a href="http://gitorious.org/~keripix/minitunes/keripixs-musique">keripixs-musique</a><p>
p468
sg124
(lp469
g1
(g2
g3
(dp470
g34
Vhttp://gitorious.org/minitunes.atom
p471
sg36
g128
sg27
g28
sg38
g468
stRp472
asg31
I01
sS'title_detail'
p473
g1
(g2
g3
(dp474
g34
Vhttp://gitorious.org/minitunes.atom
p475
sg36
g37
sg27
g28
sg38
g467
stRp476
sg134
V2012-10-12T08:32:51Z
p477
sg85
(lp478
g137
aV*
ag138
astRp479
ag1
(g2
g3
(dp480
g7
V2012-10-12T08:29:06Z
p481
sg43
g44
((I2012
I10
I12
I8
I29
I6
I4
I286
I0
t(dtRp482
sg9
(lp483
g1
(g2
g3
(dp484
S'href'
p485
Vhttps://gitorious.org/minitunes
p486
sS'type'
p487
Vtext/html
p488
sS'rel'
p489
Valternate
p490
stRp491
asg40
g486
sg108
(lp492
g1
(g2
g3
(dp493
g111
Vkeripix
p494
stRp495
asS'author_detail'
p496
g1
(g2
g3
(dp497
g111
g494
stRp498
sg41
Vtag:gitorious.org,2005:Event/43334745
p499
sg118
g44
((I2012
I10
I12
I8
I29
I6
I4
I286
I0
t(dtRp500
sg29
Vkeripix deleted A. Akbar Hidayat/keripix-minitunes
p501
sg121
g494
sg122
V<p><a href="http://gitorious.org/~keripix">keripix</a> deleted <a href="http://gitorious.org/~keripix">A. Akbar Hidayat</a>/keripix-minitunes</p>\u000a  <p><p>
p502
sg124
(lp503
g1
(g2
g3
(dp504
g34
Vhttp://gitorious.org/minitunes.atom
p505
sg36
g128
sg27
g28
sg38
g502
stRp506
asg31
I01
sS'title_detail'
p507
g1
(g2
g3
(dp508
g34
Vhttp://gitorious.org/minitunes.atom
p509
sg36
g37
sg27
g28
sg38
g501
stRp510
sg134
V2012-10-12T08:29:06Z
p511
sg85
(lp512
g137
aV*
ag138
astRp513
ag1
(g2
g3
(dp514
g7
V2012-09-27T21:13:49Z
p515
sg43
g44
((I2012
I9
I27
I21
I13
I49
I3
I271
I0
t(dtRp516
sg9
(lp517
g1
(g2
g3
(dp518
S'href'
p519
Vhttps://gitorious.org/minitunes
p520
sS'type'
p521
Vtext/html
p522
sS'rel'
p523
Valternate
p524
stRp525
asg40
g520
sg108
(lp526
g1
(g2
g3
(dp527
g111
Vvincentxavier
p528
stRp529
asS'author_detail'
p530
g1
(g2
g3
(dp531
g111
g528
stRp532
sg41
Vtag:gitorious.org,2005:Event/43309167
p533
sg118
g44
((I2012
I9
I27
I21
I13
I49
I3
I271
I0
t(dtRp534
sg29
Vvincentxavier started watching minitunes/minitunes
p535
sg121
g528
sg122
V<p><a href="http://gitorious.org/~vincentxavier">vincentxavier</a> started watching <a href="http://gitorious.org/minitunes/minitunes">minitunes/minitunes</a></p>\u000a  <p><p>
p536
sg124
(lp537
g1
(g2
g3
(dp538
g34
Vhttp://gitorious.org/minitunes.atom
p539
sg36
g128
sg27
g28
sg38
g536
stRp540
asg31
I01
sS'title_detail'
p541
g1
(g2
g3
(dp542
g34
Vhttp://gitorious.org/minitunes.atom
p543
sg36
g37
sg27
g28
sg38
g535
stRp544
sg134
V2012-09-27T21:13:49Z
p545
sg85
(lp546
g137
aV*
ag138
astRp547
ag1
(g2
g3
(dp548
g7
V2012-09-12T21:30:58Z
p549
sg43
g44
((I2012
I9
I12
I21
I30
I58
I2
I256
I0
t(dtRp550
sg9
(lp551
g1
(g2
g3
(dp552
S'href'
p553
Vhttps://gitorious.org/minitunes
p554
sS'type'
p555
Vtext/html
p556
sS'rel'
p557
Valternate
p558
stRp559
asg40
g554
sg108
(lp560
g1
(g2
g3
(dp561
g111
Vskadge
p562
stRp563
asS'author_detail'
p564
g1
(g2
g3
(dp565
g111
g562
stRp566
sg41
Vtag:gitorious.org,2005:Event/43279247
p567
sg118
g44
((I2012
I9
I12
I21
I30
I58
I2
I256
I0
t(dtRp568
sg29
Vskadge requested merge of ~skadge/minitunes/skadge-minitunes with minitunes in merge request minitunes/minitunes #8
p569
sg121
g562
sg122
V<p><a href="http://gitorious.org/~skadge">skadge</a> requested merge of <a href="http://gitorious.org/~skadge/minitunes/skadge-minitunes">~skadge/minitunes/skadge-minitunes</a> with <a href="http://gitorious.org/minitunes/minitunes">minitunes</a> in merge request <a href="http://gitorious.org/minitunes/minitunes/merge_requests/8">minitunes/minitunes #8</a></p>\u000a  <p><a href="http://gitorious.org/minitunes/minitunes/merge_requests/8">The commit msg give some details.\u000a\u000aOne issue regarding album info: should it remain blank if no...</a><p>
p570
sg124
(lp571
g1
(g2
g3
(dp572
g34
Vhttp://gitorious.org/minitunes.atom
p573
sg36
g128
sg27
g28
sg38
g570
stRp574
asg31
I01
sS'title_detail'
p575
g1
(g2
g3
(dp576
g34
Vhttp://gitorious.org/minitunes.atom
p577
sg36
g37
sg27
g28
sg38
g569
stRp578
sg134
V2012-09-12T21:30:58Z
p579
sg85
(lp580
g137
aV*
ag138
astRp581
ag1
(g2
g3
(dp582
g7
V2012-09-12T21:28:32Z
p583
sg43
g44
((I2012
I9
I12
I21
I28
I32
I2
I256
I0
t(dtRp584
sg9
(lp585
g1
(g2
g3
(dp586
S'href'
p587
Vhttps://gitorious.org/minitunes
p588
sS'type'
p589
Vtext/html
p590
sS'rel'
p591
Valternate
p592
stRp593
asg40
g588
sg108
(lp594
g1
(g2
g3
(dp595
g111
Vskadge
p596
stRp597
asS'author_detail'
p598
g1
(g2
g3
(dp599
g111
g596
stRp600
sg41
Vtag:gitorious.org,2005:Event/43279244
p601
sg118
g44
((I2012
I9
I12
I21
I28
I32
I2
I256
I0
t(dtRp602
sg29
Vskadge pushed 1 commit  to ~skadge/minitunes/skadge-minitunes:master. View diff
p603
sg121
g596
sg122
V<p><a href="http://gitorious.org/~skadge">skadge</a> pushed <a class="commit_event_toggler" href="http://gitorious.org/~skadge/minitunes/skadge-minitunes/commits/master" id="commits_in_event_43279244_toggler">1 commit</a>  to <a href="http://gitorious.org/~skadge/minitunes/skadge-minitunes/commits/master">~skadge/minitunes/skadge-minitunes:master</a>. <a href="http://gitorious.org/minitunes/skadge-minitunes/commit/b5fd534c793d922213c05ec965f916489eba7eb3/diffs/3204e1ee9509460f0f53ca335ffcf2cc94e1375c">View diff</a></p>\u000a  <p>master changed from b5fd534 to 3204e1e<p>
p604
sg124
(lp605
g1
(g2
g3
(dp606
g34
Vhttp://gitorious.org/minitunes.atom
p607
sg36
g128
sg27
g28
sg38
g604
stRp608
asg31
I01
sS'title_detail'
p609
g1
(g2
g3
(dp610
g34
Vhttp://gitorious.org/minitunes.atom
p611
sg36
g37
sg27
g28
sg38
g603
stRp612
sg134
V2012-09-12T21:28:32Z
p613
sg85
(lp614
g137
aV*
ag138
astRp615
ag1
(g2
g3
(dp616
g7
V2012-09-12T21:23:11Z
p617
sg43
g44
((I2012
I9
I12
I21
I23
I11
I2
I256
I0
t(dtRp618
sg9
(lp619
g1
(g2
g3
(dp620
S'href'
p621
Vhttps://gitorious.org/minitunes
p622
sS'type'
p623
Vtext/html
p624
sS'rel'
p625
Valternate
p626
stRp627
asg40
g622
sg108
(lp628
g1
(g2
g3
(dp629
g111
Vskadge
p630
stRp631
asS'author_detail'
p632
g1
(g2
g3
(dp633
g111
g630
stRp634
sg41
Vtag:gitorious.org,2005:Event/43279238
p635
sg118
g44
((I2012
I9
I12
I21
I23
I11
I2
I256
I0
t(dtRp636
sg29
Vskadge cloned minitunes/minitunes
p637
sg121
g630
sg122
V<p><a href="http://gitorious.org/~skadge">skadge</a> cloned <a href="http://gitorious.org/minitunes/minitunes">minitunes/minitunes</a></p>\u000a  <p>New repository is in <a href="http://gitorious.org/~skadge/minitunes/skadge-minitunes">skadge-minitunes</a><p>
p638
sg124
(lp639
g1
(g2
g3
(dp640
g34
Vhttp://gitorious.org/minitunes.atom
p641
sg36
g128
sg27
g28
sg38
g638
stRp642
asg31
I01
sS'title_detail'
p643
g1
(g2
g3
(dp644
g34
Vhttp://gitorious.org/minitunes.atom
p645
sg36
g37
sg27
g28
sg38
g637
stRp646
sg134
V2012-09-12T21:23:11Z
p647
sg85
(lp648
g137
aV*
ag138
astRp649
ag1
(g2
g3
(dp650
g7
V2012-06-21T12:45:33Z
p651
sg43
g44
((I2012
I6
I21
I12
I45
I33
I3
I173
I0
t(dtRp652
sg9
(lp653
g1
(g2
g3
(dp654
S'href'
p655
Vhttps://gitorious.org/minitunes
p656
sS'type'
p657
Vtext/html
p658
sS'rel'
p659
Valternate
p660
stRp661
asg40
g656
sg108
(lp662
g1
(g2
g3
(dp663
g111
Vfroksen
p664
stRp665
asS'author_detail'
p666
g1
(g2
g3
(dp667
g111
g664
stRp668
sg41
Vtag:gitorious.org,2005:Event/43169454
p669
sg118
g44
((I2012
I6
I21
I12
I45
I33
I3
I173
I0
t(dtRp670
sg29
Vfroksen requested merge of ~froksen/minitunes/froksens-minitunes with minitunes in merge request minitunes/minitunes #7
p671
sg121
g664
sg122
V<p><a href="http://gitorious.org/~froksen">froksen</a> requested merge of <a href="http://gitorious.org/~froksen/minitunes/froksens-minitunes">~froksen/minitunes/froksens-minitunes</a> with <a href="http://gitorious.org/minitunes/minitunes">minitunes</a> in merge request <a href="http://gitorious.org/minitunes/minitunes/merge_requests/7">minitunes/minitunes #7</a></p>\u000a  <p><a href="http://gitorious.org/minitunes/minitunes/merge_requests/7"> - Added da.ts (From Transifex)\u000a - Added da.ts to locale.pri\u000a</a><p>
p672
sg124
(lp673
g1
(g2
g3
(dp674
g34
Vhttp://gitorious.org/minitunes.atom
p675
sg36
g128
sg27
g28
sg38
g672
stRp676
asg31
I01
sS'title_detail'
p677
g1
(g2
g3
(dp678
g34
Vhttp://gitorious.org/minitunes.atom
p679
sg36
g37
sg27
g28
sg38
g671
stRp680
sg134
V2012-06-21T12:45:33Z
p681
sg85
(lp682
g137
aV*
ag138
astRp683
ag1
(g2
g3
(dp684
g7
V2012-06-21T12:43:19Z
p685
sg43
g44
((I2012
I6
I21
I12
I43
I19
I3
I173
I0
t(dtRp686
sg9
(lp687
g1
(g2
g3
(dp688
S'href'
p689
Vhttps://gitorious.org/minitunes
p690
sS'type'
p691
Vtext/html
p692
sS'rel'
p693
Valternate
p694
stRp695
asg40
g690
sg108
(lp696
g1
(g2
g3
(dp697
g111
Vfroksen
p698
stRp699
asS'author_detail'
p700
g1
(g2
g3
(dp701
g111
g698
stRp702
sg41
Vtag:gitorious.org,2005:Event/43169452
p703
sg118
g44
((I2012
I6
I21
I12
I43
I19
I3
I173
I0
t(dtRp704
sg29
Vfroksen pushed 1 commit  to ~froksen/minitunes/froksens-minitunes:master. View diff
p705
sg121
g698
sg122
V<p><a href="http://gitorious.org/~froksen">froksen</a> pushed <a class="commit_event_toggler" href="http://gitorious.org/~froksen/minitunes/froksens-minitunes/commits/master" id="commits_in_event_43169452_toggler">1 commit</a>  to <a href="http://gitorious.org/~froksen/minitunes/froksens-minitunes/commits/master">~froksen/minitunes/froksens-minitunes:master</a>. <a href="http://gitorious.org/minitunes/froksens-minitunes/commit/b5fd534c793d922213c05ec965f916489eba7eb3/diffs/46e791346eaccf3d06ee72d949f0e0b2786b2b0f">View diff</a></p>\u000a  <p>master changed from b5fd534 to 46e7913<p>
p706
sg124
(lp707
g1
(g2
g3
(dp708
g34
Vhttp://gitorious.org/minitunes.atom
p709
sg36
g128
sg27
g28
sg38
g706
stRp710
asg31
I01
sS'title_detail'
p711
g1
(g2
g3
(dp712
g34
Vhttp://gitorious.org/minitunes.atom
p713
sg36
g37
sg27
g28
sg38
g705
stRp714
sg134
V2012-06-21T12:43:19Z
p715
sg85
(lp716
g137
aV*
ag138
astRp717
ag1
(g2
g3
(dp718
g7
V2012-06-21T12:41:46Z
p719
sg43
g44
((I2012
I6
I21
I12
I41
I46
I3
I173
I0
t(dtRp720
sg9
(lp721
g1
(g2
g3
(dp722
S'href'
p723
Vhttps://gitorious.org/minitunes
p724
sS'type'
p725
Vtext/html
p726
sS'rel'
p727
Valternate
p728
stRp729
asg40
g724
sg108
(lp730
g1
(g2
g3
(dp731
g111
Vfroksen
p732
stRp733
asS'author_detail'
p734
g1
(g2
g3
(dp735
g111
g732
stRp736
sg41
Vtag:gitorious.org,2005:Event/43169450
p737
sg118
g44
((I2012
I6
I21
I12
I41
I46
I3
I173
I0
t(dtRp738
sg29
Vfroksen cloned minitunes/minitunes
p739
sg121
g732
sg122
V<p><a href="http://gitorious.org/~froksen">froksen</a> cloned <a href="http://gitorious.org/minitunes/minitunes">minitunes/minitunes</a></p>\u000a  <p>New repository is in <a href="http://gitorious.org/~froksen/minitunes/froksens-minitunes">froksens-minitunes</a><p>
p740
sg124
(lp741
g1
(g2
g3
(dp742
g34
Vhttp://gitorious.org/minitunes.atom
p743
sg36
g128
sg27
g28
sg38
g740
stRp744
asg31
I01
sS'title_detail'
p745
g1
(g2
g3
(dp746
g34
Vhttp://gitorious.org/minitunes.atom
p747
sg36
g37
sg27
g28
sg38
g739
stRp748
sg134
V2012-06-21T12:41:46Z
p749
sg85
(lp750
g137
aV*
ag138
astRp751
ag1
(g2
g3
(dp752
g7
V2012-06-21T12:41:34Z
p753
sg43
g44
((I2012
I6
I21
I12
I41
I34
I3
I173
I0
t(dtRp754
sg9
(lp755
g1
(g2
g3
(dp756
S'href'
p757
Vhttps://gitorious.org/minitunes
p758
sS'type'
p759
Vtext/html
p760
sS'rel'
p761
Valternate
p762
stRp763
asg40
g758
sg108
(lp764
g1
(g2
g3
(dp765
g111
Vfroksen
p766
stRp767
asS'author_detail'
p768
g1
(g2
g3
(dp769
g111
g766
stRp770
sg41
Vtag:gitorious.org,2005:Event/43169449
p771
sg118
g44
((I2012
I6
I21
I12
I41
I34
I3
I173
I0
t(dtRp772
sg29
Vfroksen deleted froksen/froksens-minitunes
p773
sg121
g766
sg122
V<p><a href="http://gitorious.org/~froksen">froksen</a> deleted <a href="http://gitorious.org/~froksen">froksen</a>/froksens-minitunes</p>\u000a  <p><p>
p774
sg124
(lp775
g1
(g2
g3
(dp776
g34
Vhttp://gitorious.org/minitunes.atom
p777
sg36
g128
sg27
g28
sg38
g774
stRp778
asg31
I01
sS'title_detail'
p779
g1
(g2
g3
(dp780
g34
Vhttp://gitorious.org/minitunes.atom
p781
sg36
g37
sg27
g28
sg38
g773
stRp782
sg134
V2012-06-21T12:41:34Z
p783
sg85
(lp784
g137
aV*
ag138
astRp785
ag1
(g2
g3
(dp786
g7
V2012-06-21T12:27:43Z
p787
sg43
g44
((I2012
I6
I21
I12
I27
I43
I3
I173
I0
t(dtRp788
sg9
(lp789
g1
(g2
g3
(dp790
S'href'
p791
Vhttps://gitorious.org/minitunes
p792
sS'type'
p793
Vtext/html
p794
sS'rel'
p795
Valternate
p796
stRp797
asg40
g792
sg108
(lp798
g1
(g2
g3
(dp799
g111
Vfroksen
p800
stRp801
asS'author_detail'
p802
g1
(g2
g3
(dp803
g111
g800
stRp804
sg41
Vtag:gitorious.org,2005:Event/43169432
p805
sg118
g44
((I2012
I6
I21
I12
I27
I43
I3
I173
I0
t(dtRp806
sg29
Vfroksen started watching minitunes/minitunes
p807
sg121
g800
sg122
V<p><a href="http://gitorious.org/~froksen">froksen</a> started watching <a href="http://gitorious.org/minitunes/minitunes">minitunes/minitunes</a></p>\u000a  <p><p>
p808
sg124
(lp809
g1
(g2
g3
(dp810
g34
Vhttp://gitorious.org/minitunes.atom
p811
sg36
g128
sg27
g28
sg38
g808
stRp812
asg31
I01
sS'title_detail'
p813
g1
(g2
g3
(dp814
g34
Vhttp://gitorious.org/minitunes.atom
p815
sg36
g37
sg27
g28
sg38
g807
stRp816
sg134
V2012-06-21T12:27:43Z
p817
sg85
(lp818
g137
aV*
ag138
astRp819
ag1
(g2
g3
(dp820
g7
V2012-05-28T13:15:51Z
p821
sg43
g44
((I2012
I5
I28
I13
I15
I51
I0
I149
I0
t(dtRp822
sg9
(lp823
g1
(g2
g3
(dp824
S'href'
p825
Vhttps://gitorious.org/minitunes
p826
sS'type'
p827
Vtext/html
p828
sS'rel'
p829
Valternate
p830
stRp831
asg40
g826
sg108
(lp832
g1
(g2
g3
(dp833
g111
Vstiat
p834
stRp835
asS'author_detail'
p836
g1
(g2
g3
(dp837
g111
g834
stRp838
sg41
Vtag:gitorious.org,2005:Event/43134106
p839
sg118
g44
((I2012
I5
I28
I13
I15
I51
I0
I149
I0
t(dtRp840
sg29
Vstiat requested merge of ~stiat/minitunes/stiats-minitunes with minitunes in merge request minitunes/minitunes #6
p841
sg121
g834
sg122
V<p><a href="http://gitorious.org/~stiat">stiat</a> requested merge of <a href="http://gitorious.org/~stiat/minitunes/stiats-minitunes">~stiat/minitunes/stiats-minitunes</a> with <a href="http://gitorious.org/minitunes/minitunes">minitunes</a> in merge request <a href="http://gitorious.org/minitunes/minitunes/merge_requests/6">minitunes/minitunes #6</a></p>\u000a  <p><a href="http://gitorious.org/minitunes/minitunes/merge_requests/6">If unistd.h is not included in linux, we get compile errors.\u000aSince this is annoying and persists...</a><p>
p842
sg124
(lp843
g1
(g2
g3
(dp844
g34
Vhttp://gitorious.org/minitunes.atom
p845
sg36
g128
sg27
g28
sg38
g842
stRp846
asg31
I01
sS'title_detail'
p847
g1
(g2
g3
(dp848
g34
Vhttp://gitorious.org/minitunes.atom
p849
sg36
g37
sg27
g28
sg38
g841
stRp850
sg134
V2012-05-28T13:15:51Z
p851
sg85
(lp852
g137
aV*
ag138
astRp853
ag1
(g2
g3
(dp854
g7
V2012-05-28T13:13:51Z
p855
sg43
g44
((I2012
I5
I28
I13
I13
I51
I0
I149
I0
t(dtRp856
sg9
(lp857
g1
(g2
g3
(dp858
S'href'
p859
Vhttps://gitorious.org/minitunes
p860
sS'type'
p861
Vtext/html
p862
sS'rel'
p863
Valternate
p864
stRp865
asg40
g860
sg108
(lp866
g1
(g2
g3
(dp867
g111
Vstiat
p868
stRp869
asS'author_detail'
p870
g1
(g2
g3
(dp871
g111
g868
stRp872
sg41
Vtag:gitorious.org,2005:Event/43134101
p873
sg118
g44
((I2012
I5
I28
I13
I13
I51
I0
I149
I0
t(dtRp874
sg29
Vstiat pushed 1 commit  to ~stiat/minitunes/stiats-minitunes:master. View diff
p875
sg121
g868
sg122
V<p><a href="http://gitorious.org/~stiat">stiat</a> pushed <a class="commit_event_toggler" href="http://gitorious.org/~stiat/minitunes/stiats-minitunes/commits/master" id="commits_in_event_43134101_toggler">1 commit</a>  to <a href="http://gitorious.org/~stiat/minitunes/stiats-minitunes/commits/master">~stiat/minitunes/stiats-minitunes:master</a>. <a href="http://gitorious.org/minitunes/stiats-minitunes/commit/b5fd534c793d922213c05ec965f916489eba7eb3/diffs/95a079f4d3c5d19387a17d4a255851c78d43d861">View diff</a></p>\u000a  <p>master changed from b5fd534 to 95a079f<p>
p876
sg124
(lp877
g1
(g2
g3
(dp878
g34
Vhttp://gitorious.org/minitunes.atom
p879
sg36
g128
sg27
g28
sg38
g876
stRp880
asg31
I01
sS'title_detail'
p881
g1
(g2
g3
(dp882
g34
Vhttp://gitorious.org/minitunes.atom
p883
sg36
g37
sg27
g28
sg38
g875
stRp884
sg134
V2012-05-28T13:13:51Z
p885
sg85
(lp886
g137
aV*
ag138
astRp887
ag1
(g2
g3
(dp888
g7
V2012-05-28T13:07:23Z
p889
sg43
g44
((I2012
I5
I28
I13
I7
I23
I0
I149
I0
t(dtRp890
sg9
(lp891
g1
(g2
g3
(dp892
S'href'
p893
Vhttps://gitorious.org/minitunes
p894
sS'type'
p895
Vtext/html
p896
sS'rel'
p897
Valternate
p898
stRp899
asg40
g894
sg108
(lp900
g1
(g2
g3
(dp901
g111
Vstiat
p902
stRp903
asS'author_detail'
p904
g1
(g2
g3
(dp905
g111
g902
stRp906
sg41
Vtag:gitorious.org,2005:Event/43134095
p907
sg118
g44
((I2012
I5
I28
I13
I7
I23
I0
I149
I0
t(dtRp908
sg29
Vstiat cloned minitunes/minitunes
p909
sg121
g902
sg122
V<p><a href="http://gitorious.org/~stiat">stiat</a> cloned <a href="http://gitorious.org/minitunes/minitunes">minitunes/minitunes</a></p>\u000a  <p>New repository is in <a href="http://gitorious.org/~stiat/minitunes/stiats-minitunes">stiats-minitunes</a><p>
p910
sg124
(lp911
g1
(g2
g3
(dp912
g34
Vhttp://gitorious.org/minitunes.atom
p913
sg36
g128
sg27
g28
sg38
g910
stRp914
asg31
I01
sS'title_detail'
p915
g1
(g2
g3
(dp916
g34
Vhttp://gitorious.org/minitunes.atom
p917
sg36
g37
sg27
g28
sg38
g909
stRp918
sg134
V2012-05-28T13:07:23Z
p919
sg85
(lp920
g137
aV*
ag138
astRp921
ag1
(g2
g3
(dp922
g7
V2012-05-15T09:23:52Z
p923
sg43
g44
((I2012
I5
I15
I9
I23
I52
I1
I136
I0
t(dtRp924
sg9
(lp925
g1
(g2
g3
(dp926
S'href'
p927
Vhttps://gitorious.org/minitunes
p928
sS'type'
p929
Vtext/html
p930
sS'rel'
p931
Valternate
p932
stRp933
asg40
g928
sg108
(lp934
g1
(g2
g3
(dp935
g111
Vzarlino
p936
stRp937
asS'author_detail'
p938
g1
(g2
g3
(dp939
g111
g936
stRp940
sg41
Vtag:gitorious.org,2005:Event/43114145
p941
sg118
g44
((I2012
I5
I15
I9
I23
I52
I1
I136
I0
t(dtRp942
sg29
Vzarlino pushed 1 commit  to minitunes/minitunes:master. View diff
p943
sg121
g936
sg122
V<p><a href="http://gitorious.org/~zarlino">zarlino</a> pushed <a class="commit_event_toggler" href="http://gitorious.org/minitunes/minitunes/commits/master" id="commits_in_event_43114145_toggler">1 commit</a>  to <a href="http://gitorious.org/minitunes/minitunes/commits/master">minitunes/minitunes:master</a>. <a href="http://gitorious.org/minitunes/minitunes/commit/797617eac765e54e677e7f0e50f59123e723904f/diffs/b5fd534c793d922213c05ec965f916489eba7eb3">View diff</a></p>\u000a  <p>master changed from 797617e to b5fd534<p>
p944
sg124
(lp945
g1
(g2
g3
(dp946
g34
Vhttp://gitorious.org/minitunes.atom
p947
sg36
g128
sg27
g28
sg38
g944
stRp948
asg31
I01
sS'title_detail'
p949
g1
(g2
g3
(dp950
g34
Vhttp://gitorious.org/minitunes.atom
p951
sg36
g37
sg27
g28
sg38
g943
stRp952
sg134
V2012-05-15T09:23:52Z
p953
sg85
(lp954
g137
aV*
ag138
astRp955
ag1
(g2
g3
(dp956
g7
V2012-04-21T13:04:45Z
p957
sg43
g44
((I2012
I4
I21
I13
I4
I45
I5
I112
I0
t(dtRp958
sg9
(lp959
g1
(g2
g3
(dp960
S'href'
p961
Vhttps://gitorious.org/minitunes
p962
sS'type'
p963
Vtext/html
p964
sS'rel'
p965
Valternate
p966
stRp967
asg40
g962
sg108
(lp968
g1
(g2
g3
(dp969
g111
Vkallisti
p970
stRp971
asS'author_detail'
p972
g1
(g2
g3
(dp973
g111
g970
stRp974
sg41
Vtag:gitorious.org,2005:Event/43075950
p975
sg118
g44
((I2012
I4
I21
I13
I4
I45
I5
I112
I0
t(dtRp976
sg29
Vkallisti deleted kallisti/kallistis-minitunes
p977
sg121
g970
sg122
V<p><a href="http://gitorious.org/~kallisti">kallisti</a> deleted <a href="http://gitorious.org/~kallisti">kallisti</a>/kallistis-minitunes</p>\u000a  <p><p>
p978
sg124
(lp979
g1
(g2
g3
(dp980
g34
Vhttp://gitorious.org/minitunes.atom
p981
sg36
g128
sg27
g28
sg38
g978
stRp982
asg31
I01
sS'title_detail'
p983
g1
(g2
g3
(dp984
g34
Vhttp://gitorious.org/minitunes.atom
p985
sg36
g37
sg27
g28
sg38
g977
stRp986
sg134
V2012-04-21T13:04:45Z
p987
sg85
(lp988
g137
aV*
ag138
astRp989
ag1
(g2
g3
(dp990
g7
V2012-03-23T01:52:57Z
p991
sg43
g44
((I2012
I3
I23
I1
I52
I57
I4
I83
I0
t(dtRp992
sg9
(lp993
g1
(g2
g3
(dp994
S'href'
p995
Vhttps://gitorious.org/minitunes
p996
sS'type'
p997
Vtext/html
p998
sS'rel'
p999
Valternate
p1000
stRp1001
asg40
g996
sg108
(lp1002
g1
(g2
g3
(dp1003
g111
Vbigpete
p1004
stRp1005
asS'author_detail'
p1006
g1
(g2
g3
(dp1007
g111
g1004
stRp1008
sg41
Vtag:gitorious.org,2005:Event/43022592
p1009
sg118
g44
((I2012
I3
I23
I1
I52
I57
I4
I83
I0
t(dtRp1010
sg29
Vbigpete started watching minitunes/minitunes
p1011
sg121
g1004
sg122
V<p><a href="http://gitorious.org/~bigpete">bigpete</a> started watching <a href="http://gitorious.org/minitunes/minitunes">minitunes/minitunes</a></p>\u000a  <p><p>
p1012
sg124
(lp1013
g1
(g2
g3
(dp1014
g34
Vhttp://gitorious.org/minitunes.atom
p1015
sg36
g128
sg27
g28
sg38
g1012
stRp1016
asg31
I01
sS'title_detail'
p1017
g1
(g2
g3
(dp1018
g34
Vhttp://gitorious.org/minitunes.atom
p1019
sg36
g37
sg27
g28
sg38
g1011
stRp1020
sg134
V2012-03-23T01:52:57Z
p1021
sg85
(lp1022
g137
aV*
ag138
astRp1023
ag1
(g2
g3
(dp1024
g7
V2012-03-22T14:04:23Z
p1025
sg43
g44
((I2012
I3
I22
I14
I4
I23
I3
I82
I0
t(dtRp1026
sg9
(lp1027
g1
(g2
g3
(dp1028
S'href'
p1029
Vhttps://gitorious.org/minitunes
p1030
sS'type'
p1031
Vtext/html
p1032
sS'rel'
p1033
Valternate
p1034
stRp1035
asg40
g1030
sg108
(lp1036
g1
(g2
g3
(dp1037
g111
Vzarlino
p1038
stRp1039
asS'author_detail'
p1040
g1
(g2
g3
(dp1041
g111
g1038
stRp1042
sg41
Vtag:gitorious.org,2005:Event/43021252
p1043
sg118
g44
((I2012
I3
I22
I14
I4
I23
I3
I82
I0
t(dtRp1044
sg29
Vzarlino updated project Musique
p1045
sg121
g1038
sg122
V<p><a href="http://gitorious.org/~zarlino">zarlino</a> updated project <a href="http://gitorious.org/minitunes">Musique</a></p>\u000a  <p><p>
p1046
sg124
(lp1047
g1
(g2
g3
(dp1048
g34
Vhttp://gitorious.org/minitunes.atom
p1049
sg36
g128
sg27
g28
sg38
g1046
stRp1050
asg31
I01
sS'title_detail'
p1051
g1
(g2
g3
(dp1052
g34
Vhttp://gitorious.org/minitunes.atom
p1053
sg36
g37
sg27
g28
sg38
g1045
stRp1054
sg134
V2012-03-22T14:04:23Z
p1055
sg85
(lp1056
g137
aV*
ag138
astRp1057
ag1
(g2
g3
(dp1058
g7
V2012-03-22T14:03:52Z
p1059
sg43
g44
((I2012
I3
I22
I14
I3
I52
I3
I82
I0
t(dtRp1060
sg9
(lp1061
g1
(g2
g3
(dp1062
S'href'
p1063
Vhttps://gitorious.org/minitunes
p1064
sS'type'
p1065
Vtext/html
p1066
sS'rel'
p1067
Valternate
p1068
stRp1069
asg40
g1064
sg108
(lp1070
g1
(g2
g3
(dp1071
g111
Vzarlino
p1072
stRp1073
asS'author_detail'
p1074
g1
(g2
g3
(dp1075
g111
g1072
stRp1076
sg41
Vtag:gitorious.org,2005:Event/43021251
p1077
sg118
g44
((I2012
I3
I22
I14
I3
I52
I3
I82
I0
t(dtRp1078
sg29
Vzarlino updated project Musique
p1079
sg121
g1072
sg122
V<p><a href="http://gitorious.org/~zarlino">zarlino</a> updated project <a href="http://gitorious.org/minitunes">Musique</a></p>\u000a  <p><p>
p1080
sg124
(lp1081
g1
(g2
g3
(dp1082
g34
Vhttp://gitorious.org/minitunes.atom
p1083
sg36
g128
sg27
g28
sg38
g1080
stRp1084
asg31
I01
sS'title_detail'
p1085
g1
(g2
g3
(dp1086
g34
Vhttp://gitorious.org/minitunes.atom
p1087
sg36
g37
sg27
g28
sg38
g1079
stRp1088
sg134
V2012-03-22T14:03:52Z
p1089
sg85
(lp1090
g137
aV*
ag138
astRp1091
ag1
(g2
g3
(dp1092
g7
V2012-02-09T18:42:34Z
p1093
sg43
g44
((I2012
I2
I9
I18
I42
I34
I3
I40
I0
t(dtRp1094
sg9
(lp1095
g1
(g2
g3
(dp1096
S'href'
p1097
Vhttps://gitorious.org/minitunes
p1098
sS'type'
p1099
Vtext/html
p1100
sS'rel'
p1101
Valternate
p1102
stRp1103
asg40
g1098
sg108
(lp1104
g1
(g2
g3
(dp1105
g111
Vzarlino
p1106
stRp1107
asS'author_detail'
p1108
g1
(g2
g3
(dp1109
g111
g1106
stRp1110
sg41
Vtag:gitorious.org,2005:Event/42940902
p1111
sg118
g44
((I2012
I2
I9
I18
I42
I34
I3
I40
I0
t(dtRp1112
sg29
Vzarlino tagged minitunes/minitunes
p1113
sg121
g1106
sg122
V<p><a href="http://gitorious.org/~zarlino">zarlino</a> tagged <a href="http://gitorious.org/minitunes">minitunes</a>/<a href="http://gitorious.org/minitunes/minitunes">minitunes</a></p>\u000a  <p><a href="http://gitorious.org/minitunes/minitunes/trees/1.1">1.1: Created tag 1.1</a><p>
p1114
sg124
(lp1115
g1
(g2
g3
(dp1116
g34
Vhttp://gitorious.org/minitunes.atom
p1117
sg36
g128
sg27
g28
sg38
g1114
stRp1118
asg31
I01
sS'title_detail'
p1119
g1
(g2
g3
(dp1120
g34
Vhttp://gitorious.org/minitunes.atom
p1121
sg36
g37
sg27
g28
sg38
g1113
stRp1122
sg134
V2012-02-09T18:42:34Z
p1123
sg85
(lp1124
g137
aV*
ag138
astRp1125
astRp1126
.