ccopy_reg
_reconstructor
p1
(cfeedparser
FeedParserDict
p2
c__builtin__
dict
p3
(dp4
S'feed'
p5
g1
(g2
g3
(dp6
S'publisher'
p7
Vspoob@gmx.de (Unknown real name)
p8
sS'links'
p9
(lp10
g1
(g2
g3
(dp11
S'href'
p12
Vhttps://bitbucket.org/
p13
sS'type'
p14
Vtext/html
p15
sS'rel'
p16
Valternate
p17
stRp18
ag1
(g2
g3
(dp19
S'href'
p20
Vhttp://pubsubhubbub.appspot.com/
p21
sg14
g15
sS'rel'
p22
Vhub
p23
stRp24
ag1
(g2
g3
(dp25
S'href'
p26
Vhttps://bitbucket.org
p27
sg14
Vapplication/atom+xml
p28
sS'rel'
p29
Vself
p30
stRp31
asS'language'
p32
Ven-us
p33
sS'title'
p34
VpyLoad feed
p35
sS'generator'
p36
VBitbucket.org DVCS hosting
p37
sS'generator_detail'
p38
g1
(g2
g3
(dp39
S'name'
p40
g37
stRp41
sS'title_detail'
p42
g1
(g2
g3
(dp43
S'base'
p44
Vhttps://bitbucket.org/spoob/pyload/rss
p45
sg14
Vtext/plain
p46
sg32
Ven
p47
sS'value'
p48
g35
stRp49
sS'link'
p50
g13
sS'ttl'
p51
V5
sS'publisher_detail'
p52
g1
(g2
g3
(dp53
g40
VUnknown real name
p54
sS'email'
p55
Vspoob@gmx.de
p56
stRp57
stRp58
sS'status'
p59
I200
sS'updated'
p60
S'Mon, 25 Mar 2013 05:53:42 GMT'
p61
sS'updated_parsed'
p62
ctime
struct_time
p63
((I2013
I3
I25
I5
I53
I42
I0
I84
I0
t(dtRp64
sS'encoding'
p65
Vutf-8
p66
sS'bozo'
p67
I0
sS'entries'
p68
(lp69
g1
(g2
g3
(dp70
S'summary_detail'
p71
g1
(g2
g3
(dp72
g44
Vhttps://bitbucket.org/spoob/pyload/rss
p73
sg14
Vtext/html
p74
sg32
g47
sg48
Vupdated README\u000a    \u000a    \u000a      \u000a      <ul>\u000a      \u000a        \u000a        <li>\u000a          <a href="https://bitbucket.org/spoob/pyload/src/fbd0b409c652/README">\u000a            README\u000a          </a>\u000a        </li>\u000a      \u000a      </ul>
p75
stRp76
sg9
(lp77
g1
(g2
g3
(dp78
g12
Vhttps://bitbucket.org/spoob/pyload/commits/fbd0b409c652
p79
sg14
g15
sg16
g17
stRp80
asS'published_parsed'
p81
g63
((I2013
I2
I10
I15
I9
I28
I6
I41
I0
t(dtRp82
sg34
Vupdated README
p83
sS'author'
p84
Vranan
p85
sS'summary'
p86
g75
sS'guidislink'
p87
I00
sS'title_detail'
p88
g1
(g2
g3
(dp89
g44
Vhttps://bitbucket.org/spoob/pyload/rss
p90
sg14
g46
sg32
g47
sg48
g83
stRp91
sg50
g79
sS'authors'
p92
(lp93
g1
(g2
g3
(dtRp94
asS'canto_state'
p95
(lp96
VpyLoad feed
p97
aV*
aS'read'
p98
asS'author_detail'
p99
g1
(g2
g3
(dp100
g40
g85
stRp101
sS'id'
p102
Vhttps://bitbucket.org/spoob/pyload/commits/fbd0b409c652
p103
sS'published'
p104
VSun, 10 Feb 2013 15:09:28 +0000
p105
stRp106
ag1
(g2
g3
(dp107
S'summary_detail'
p108
g1
(g2
g3
(dp109
g44
Vhttps://bitbucket.org/spoob/pyload/rss
p110
sg14
g74
sg32
g47
sg48
Vclosed #760\u000a    \u000a    \u000a      \u000a      <ul>\u000a      \u000a        \u000a        <li>\u000a          <a href="https://bitbucket.org/spoob/pyload/src/cff39521889e/module/plugins/hoster/FourSharedCom.py">\u000a            module/plugins/hoster/FourSharedCom.py\u000a          </a>\u000a        </li>\u000a      \u000a      </ul>
p111
stRp112
sg9
(lp113
g1
(g2
g3
(dp114
g12
Vhttps://bitbucket.org/spoob/pyload/commits/cff39521889e
p115
sg14
g15
sg16
g17
stRp116
asg81
g63
((I2013
I2
I9
I11
I29
I53
I5
I40
I0
t(dtRp117
sg34
Vclosed #760
p118
sg84
Vranan
p119
sg86
g111
sg87
I00
sS'title_detail'
p120
g1
(g2
g3
(dp121
g44
Vhttps://bitbucket.org/spoob/pyload/rss
p122
sg14
g46
sg32
g47
sg48
g118
stRp123
sg50
g115
sg92
(lp124
g1
(g2
g3
(dtRp125
asg95
(lp126
g97
aV*
ag98
asS'author_detail'
p127
g1
(g2
g3
(dp128
g40
g119
stRp129
sg102
Vhttps://bitbucket.org/spoob/pyload/commits/cff39521889e
p130
sg104
VSat, 9 Feb 2013 11:29:53 +0000
p131
stRp132
ag1
(g2
g3
(dp133
S'summary_detail'
p134
g1
(g2
g3
(dp135
g44
Vhttps://bitbucket.org/spoob/pyload/rss
p136
sg14
g74
sg32
g47
sg48
Vclosed #764\u000a    \u000a    \u000a      \u000a      <ul>\u000a      \u000a        \u000a        <li>\u000a          <a href="https://bitbucket.org/spoob/pyload/src/f10df15a1fc8/module/plugins/accounts/ShareonlineBiz.py">\u000a            module/plugins/accounts/ShareonlineBiz.py\u000a          </a>\u000a        </li>\u000a      \u000a        \u000a        <li>\u000a          <a href="https://bitbucket.org/spoob/pyload/src/f10df15a1fc8/module/plugins/hoster/MegaNz.py">\u000a            module/plugins/hoster/MegaNz.py\u000a          </a>\u000a        </li>\u000a      \u000a        \u000a        <li>\u000a          <a href="https://bitbucket.org/spoob/pyload/src/f10df15a1fc8/module/plugins/hoster/ShareonlineBiz.py">\u000a            module/plugins/hoster/ShareonlineBiz.py\u000a          </a>\u000a        </li>\u000a      \u000a      </ul>
p137
stRp138
sg9
(lp139
g1
(g2
g3
(dp140
g12
Vhttps://bitbucket.org/spoob/pyload/commits/f10df15a1fc8
p141
sg14
g15
sg16
g17
stRp142
asg81
g63
((I2013
I2
I9
I11
I19
I31
I5
I40
I0
t(dtRp143
sg34
Vclosed #764
p144
sg84
Vranan
p145
sg86
g137
sg87
I00
sS'title_detail'
p146
g1
(g2
g3
(dp147
g44
Vhttps://bitbucket.org/spoob/pyload/rss
p148
sg14
g46
sg32
g47
sg48
g144
stRp149
sg50
g141
sg92
(lp150
g1
(g2
g3
(dtRp151
asg95
(lp152
g97
aV*
ag98
asS'author_detail'
p153
g1
(g2
g3
(dp154
g40
g145
stRp155
sg102
Vhttps://bitbucket.org/spoob/pyload/commits/f10df15a1fc8
p156
sg104
VSat, 9 Feb 2013 11:19:31 +0000
p157
stRp158
ag1
(g2
g3
(dp159
S'summary_detail'
p160
g1
(g2
g3
(dp161
g44
Vhttps://bitbucket.org/spoob/pyload/rss
p162
sg14
g74
sg32
g47
sg48
Vlarger package column\u000a    \u000a    \u000a      \u000a      <ul>\u000a      \u000a        \u000a        <li>\u000a          <a href="https://bitbucket.org/spoob/pyload/src/ae2c75d4a063/module/web/static/css/default/dashboard.less">\u000a            module/web/static/css/default/dashboard.less\u000a          </a>\u000a        </li>\u000a      \u000a        \u000a        <li>\u000a          <a href="https://bitbucket.org/spoob/pyload/src/ae2c75d4a063/module/web/static/css/fontawesome.css">\u000a            module/web/static/css/fontawesome.css\u000a          </a>\u000a        </li>\u000a      \u000a        \u000a        <li>\u000a          <a href="https://bitbucket.org/spoob/pyload/src/ae2c75d4a063/module/web/static/fonts/fontawesome-webfont.eot">\u000a            module/web/static/fonts/fontawesome-webfont.eot\u000a          </a>\u000a        </li>\u000a      \u000a        \u000a        <li>\u000a          <a href="https://bitbucket.org/spoob/pyload/src/ae2c75d4a063/module/web/static/fonts/fontawesome-webfont.ttf">\u000a            module/web/static/fonts/fontawesome-webfont.ttf\u000a          </a>\u000a        </li>\u000a      \u000a        \u000a        <li>\u000a          <a href="https://bitbucket.org/spoob/pyload/src/ae2c75d4a063/module/web/static/fonts/fontawesome-webfont.woff">\u000a            module/web/static/fonts/fontawesome-webfont.woff\u000a          </a>\u000a        </li>\u000a      \u000a        \u000a        <li>\u000a          <a href="https://bitbucket.org/spoob/pyload/src/ae2c75d4a063/module/web/static/fonts/fontawesome.txt">\u000a            module/web/static/fonts/fontawesome.txt\u000a          </a>\u000a        </li>\u000a      \u000a        \u000a        <li>\u000a          <a href="https://bitbucket.org/spoob/pyload/src/ae2c75d4a063/module/web/templates/default/base.html">\u000a            module/web/templates/default/base.html\u000a          </a>\u000a        </li>\u000a      \u000a        \u000a        <li>\u000a          <a href="https://bitbucket.org/spoob/pyload/src/ae2c75d4a063/module/web/templates/default/dashboard.html">\u000a            module/web/templates/default/dashboard.html\u000a          </a>\u000a        </li>\u000a      \u000a      </ul>
p163
stRp164
sg9
(lp165
g1
(g2
g3
(dp166
g12
Vhttps://bitbucket.org/spoob/pyload/commits/ae2c75d4a063
p167
sg14
g15
sg16
g17
stRp168
asg81
g63
((I2013
I2
I3
I16
I42
I24
I6
I34
I0
t(dtRp169
sg34
Vlarger package column
p170
sg84
Vranan
p171
sg86
g163
sg87
I00
sS'title_detail'
p172
g1
(g2
g3
(dp173
g44
Vhttps://bitbucket.org/spoob/pyload/rss
p174
sg14
g46
sg32
g47
sg48
g170
stRp175
sg50
g167
sg92
(lp176
g1
(g2
g3
(dtRp177
asg95
(lp178
g97
aV*
ag98
asS'author_detail'
p179
g1
(g2
g3
(dp180
g40
g171
stRp181
sg102
Vhttps://bitbucket.org/spoob/pyload/commits/ae2c75d4a063
p182
sg104
VSun, 3 Feb 2013 16:42:24 +0000
p183
stRp184
ag1
(g2
g3
(dp185
S'summary_detail'
p186
g1
(g2
g3
(dp187
g44
Vhttps://bitbucket.org/spoob/pyload/rss
p188
sg14
g74
sg32
g47
sg48
Vadded some icons, select2, worked on package-list\u000a    \u000a    \u000a      \u000a      <ul>\u000a      \u000a        \u000a        <li>\u000a          <a href="https://bitbucket.org/spoob/pyload/src/8fb64037b95d/module/web/static/css/default/common.less">\u000a            module/web/static/css/default/common.less\u000a          </a>\u000a        </li>\u000a      \u000a        \u000a        <li>\u000a          <a href="https://bitbucket.org/spoob/pyload/src/8fb64037b95d/module/web/static/css/default/dashboard.less">\u000a            module/web/static/css/default/dashboard.less\u000a          </a>\u000a        </li>\u000a      \u000a        \u000a        <li>\u000a          <a href="https://bitbucket.org/spoob/pyload/src/8fb64037b95d/module/web/static/css/default/style.less">\u000a            module/web/static/css/default/style.less\u000a          </a>\u000a        </li>\u000a      \u000a        \u000a        <li>\u000a          <a href="https://bitbucket.org/spoob/pyload/src/8fb64037b95d/module/web/static/css/fontawesome.css">\u000a            module/web/static/css/fontawesome.css\u000a          </a>\u000a        </li>\u000a      \u000a        \u000a        <li>\u000a          <a href="https://bitbucket.org/spoob/pyload/src/8fb64037b95d/module/web/static/css/select2.css">\u000a            module/web/static/css/select2.css\u000a          </a>\u000a        </li>\u000a      \u000a        \u000a        <li>\u000a          <a href="https://bitbucket.org/spoob/pyload/src/8fb64037b95d/module/web/static/fonts/fontawesome-webfont.eot">\u000a            module/web/static/fonts/fontawesome-webfont.eot\u000a          </a>\u000a        </li>\u000a      \u000a        \u000a        <li>\u000a          <a href="https://bitbucket.org/spoob/pyload/src/8fb64037b95d/module/web/static/fonts/fontawesome-webfont.ttf">\u000a            module/web/static/fonts/fontawesome-webfont.ttf\u000a          </a>\u000a        </li>\u000a      \u000a        \u000a        <li>\u000a          <a href="https://bitbucket.org/spoob/pyload/src/8fb64037b95d/module/web/static/fonts/fontawesome-webfont.woff">\u000a            module/web/static/fonts/fontawesome-webfont.woff\u000a          </a>\u000a        </li>\u000a      \u000a        \u000a        <li>\u000a          <a href="https://bitbucket.org/spoob/pyload/src/8fb64037b95d/module/web/static/fonts/fontawesome.txt">\u000a            module/web/static/fonts/fontawesome.txt\u000a          </a>\u000a        </li>\u000a      \u000a        \u000a        <li>\u000a          <a href="https://bitbucket.org/spoob/pyload/src/8fb64037b95d/module/web/static/js/config.js">\u000a            module/web/static/js/config.js\u000a          </a>\u000a        </li>\u000a      \u000a        \u000a        <li>\u000a          <a href="https://bitbucket.org/spoob/pyload/src/8fb64037b95d/module/web/static/js/libs/select2-3.2.js">\u000a            module/web/static/js/libs/select2-3.2.js\u000a          </a>\u000a        </li>\u000a      \u000a        \u000a        <li>\u000a          <a href="https://bitbucket.org/spoob/pyload/src/8fb64037b95d/module/web/templates/default/base.html">\u000a            module/web/templates/default/base.html\u000a          </a>\u000a        </li>\u000a      \u000a        \u000a        <li>\u000a          <a href="https://bitbucket.org/spoob/pyload/src/8fb64037b95d/module/web/templates/default/dashboard.html">\u000a            module/web/templates/default/dashboard.html\u000a          </a>\u000a        </li>\u000a      \u000a        \u000a        <li>\u000a          <a href="https://bitbucket.org/spoob/pyload/src/8fb64037b95d/module/web/templates/default/settings.html">\u000a            module/web/templates/default/settings.html\u000a          </a>\u000a        </li>\u000a      \u000a      </ul>
p189
stRp190
sg9
(lp191
g1
(g2
g3
(dp192
g12
Vhttps://bitbucket.org/spoob/pyload/commits/8fb64037b95d
p193
sg14
g15
sg16
g17
stRp194
asg81
g63
((I2013
I2
I2
I19
I3
I37
I5
I33
I0
t(dtRp195
sg34
Vadded some icons, select2, worked on package-list
p196
sg84
Vranan
p197
sg86
g189
sg87
I00
sS'title_detail'
p198
g1
(g2
g3
(dp199
g44
Vhttps://bitbucket.org/spoob/pyload/rss
p200
sg14
g46
sg32
g47
sg48
g196
stRp201
sg50
g193
sg92
(lp202
g1
(g2
g3
(dtRp203
asg95
(lp204
g97
aV*
ag98
asS'author_detail'
p205
g1
(g2
g3
(dp206
g40
g197
stRp207
sg102
Vhttps://bitbucket.org/spoob/pyload/commits/8fb64037b95d
p208
sg104
VSat, 2 Feb 2013 19:03:37 +0000
p209
stRp210
ag1
(g2
g3
(dp211
S'summary_detail'
p212
g1
(g2
g3
(dp213
g44
Vhttps://bitbucket.org/spoob/pyload/rss
p214
sg14
g74
sg32
g47
sg48
Vadded some icons, placeholder for left menu\u000a    \u000a    \u000a      \u000a      <ul>\u000a      \u000a        \u000a        <li>\u000a          <a href="https://bitbucket.org/spoob/pyload/src/f5c4c8e5f5cf/module/web/static/css/default/dashboard.less">\u000a            module/web/static/css/default/dashboard.less\u000a          </a>\u000a        </li>\u000a      \u000a        \u000a        <li>\u000a          <a href="https://bitbucket.org/spoob/pyload/src/f5c4c8e5f5cf/module/web/static/css/default/style.less">\u000a            module/web/static/css/default/style.less\u000a          </a>\u000a        </li>\u000a      \u000a        \u000a        <li>\u000a          <a href="https://bitbucket.org/spoob/pyload/src/f5c4c8e5f5cf/module/web/static/css/fontawesome.css">\u000a            module/web/static/css/fontawesome.css\u000a          </a>\u000a        </li>\u000a      \u000a        \u000a        <li>\u000a          <a href="https://bitbucket.org/spoob/pyload/src/f5c4c8e5f5cf/module/web/static/fonts/fontawesome-webfont.eot">\u000a            module/web/static/fonts/fontawesome-webfont.eot\u000a          </a>\u000a        </li>\u000a      \u000a        \u000a        <li>\u000a          <a href="https://bitbucket.org/spoob/pyload/src/f5c4c8e5f5cf/module/web/static/fonts/fontawesome-webfont.ttf">\u000a            module/web/static/fonts/fontawesome-webfont.ttf\u000a          </a>\u000a        </li>\u000a      \u000a        \u000a        <li>\u000a          <a href="https://bitbucket.org/spoob/pyload/src/f5c4c8e5f5cf/module/web/static/fonts/fontawesome-webfont.woff">\u000a            module/web/static/fonts/fontawesome-webfont.woff\u000a          </a>\u000a        </li>\u000a      \u000a        \u000a        <li>\u000a          <a href="https://bitbucket.org/spoob/pyload/src/f5c4c8e5f5cf/module/web/static/fonts/fontawesome.txt">\u000a            module/web/static/fonts/fontawesome.txt\u000a          </a>\u000a        </li>\u000a      \u000a        \u000a        <li>\u000a          <a href="https://bitbucket.org/spoob/pyload/src/f5c4c8e5f5cf/module/web/templates/default/base.html">\u000a            module/web/templates/default/base.html\u000a          </a>\u000a        </li>\u000a      \u000a        \u000a        <li>\u000a          <a href="https://bitbucket.org/spoob/pyload/src/f5c4c8e5f5cf/module/web/templates/default/dashboard.html">\u000a            module/web/templates/default/dashboard.html\u000a          </a>\u000a        </li>\u000a      \u000a        \u000a        <li>\u000a          <a href="https://bitbucket.org/spoob/pyload/src/f5c4c8e5f5cf/pavement.py">\u000a            pavement.py\u000a          </a>\u000a        </li>\u000a      \u000a      </ul>
p215
stRp216
sg9
(lp217
g1
(g2
g3
(dp218
g12
Vhttps://bitbucket.org/spoob/pyload/commits/f5c4c8e5f5cf
p219
sg14
g15
sg16
g17
stRp220
asg81
g63
((I2013
I1
I31
I22
I3
I40
I3
I31
I0
t(dtRp221
sg34
Vadded some icons, placeholder for left menu
p222
sg84
Vranan
p223
sg86
g215
sg87
I00
sS'title_detail'
p224
g1
(g2
g3
(dp225
g44
Vhttps://bitbucket.org/spoob/pyload/rss
p226
sg14
g46
sg32
g47
sg48
g222
stRp227
sg50
g219
sg92
(lp228
g1
(g2
g3
(dtRp229
asg95
(lp230
g97
aV*
ag98
asS'author_detail'
p231
g1
(g2
g3
(dp232
g40
g223
stRp233
sg102
Vhttps://bitbucket.org/spoob/pyload/commits/f5c4c8e5f5cf
p234
sg104
VThu, 31 Jan 2013 22:03:40 +0000
p235
stRp236
ag1
(g2
g3
(dp237
S'summary_detail'
p238
g1
(g2
g3
(dp239
g44
Vhttps://bitbucket.org/spoob/pyload/rss
p240
sg14
g74
sg32
g47
sg48
Vadded actionbar, two-column dashboard\u000a    \u000a    \u000a      \u000a      <ul>\u000a      \u000a        \u000a        <li>\u000a          <a href="https://bitbucket.org/spoob/pyload/src/0a7b5d08975f/docs/resources/pyload_logo.svg">\u000a            docs/resources/pyload_logo.svg\u000a          </a>\u000a        </li>\u000a      \u000a        \u000a        <li>\u000a          <a href="https://bitbucket.org/spoob/pyload/src/0a7b5d08975f/module/web/static/css/default/admin.less">\u000a            module/web/static/css/default/admin.less\u000a          </a>\u000a        </li>\u000a      \u000a        \u000a        <li>\u000a          <a href="https://bitbucket.org/spoob/pyload/src/0a7b5d08975f/module/web/static/css/default/common.less">\u000a            module/web/static/css/default/common.less\u000a          </a>\u000a        </li>\u000a      \u000a        \u000a        <li>\u000a          <a href="https://bitbucket.org/spoob/pyload/src/0a7b5d08975f/module/web/static/css/default/dashboard.less">\u000a            module/web/static/css/default/dashboard.less\u000a          </a>\u000a        </li>\u000a      \u000a        \u000a        <li>\u000a          <a href="https://bitbucket.org/spoob/pyload/src/0a7b5d08975f/module/web/static/css/default/settings.less">\u000a            module/web/static/css/default/settings.less\u000a          </a>\u000a        </li>\u000a      \u000a        \u000a        <li>\u000a          <a href="https://bitbucket.org/spoob/pyload/src/0a7b5d08975f/module/web/static/css/default/style.less">\u000a            module/web/static/css/default/style.less\u000a          </a>\u000a        </li>\u000a      \u000a        \u000a        <li>\u000a          <a href="https://bitbucket.org/spoob/pyload/src/0a7b5d08975f/module/web/templates/default/base.html">\u000a            module/web/templates/default/base.html\u000a          </a>\u000a        </li>\u000a      \u000a        \u000a        <li>\u000a          <a href="https://bitbucket.org/spoob/pyload/src/0a7b5d08975f/module/web/templates/default/dashboard.html">\u000a            module/web/templates/default/dashboard.html\u000a          </a>\u000a        </li>\u000a      \u000a      </ul>
p241
stRp242
sg9
(lp243
g1
(g2
g3
(dp244
g12
Vhttps://bitbucket.org/spoob/pyload/commits/0a7b5d08975f
p245
sg14
g15
sg16
g17
stRp246
asg81
g63
((I2013
I1
I30
I21
I11
I10
I2
I30
I0
t(dtRp247
sg34
Vadded actionbar, two-column dashboard
p248
sg84
Vranan
p249
sg86
g241
sg87
I00
sS'title_detail'
p250
g1
(g2
g3
(dp251
g44
Vhttps://bitbucket.org/spoob/pyload/rss
p252
sg14
g46
sg32
g47
sg48
g248
stRp253
sg50
g245
sg92
(lp254
g1
(g2
g3
(dtRp255
asg95
(lp256
g97
aV*
ag98
asS'author_detail'
p257
g1
(g2
g3
(dp258
g40
g249
stRp259
sg102
Vhttps://bitbucket.org/spoob/pyload/commits/0a7b5d08975f
p260
sg104
VWed, 30 Jan 2013 21:11:10 +0000
p261
stRp262
ag1
(g2
g3
(dp263
S'summary_detail'
p264
g1
(g2
g3
(dp265
g44
Vhttps://bitbucket.org/spoob/pyload/rss
p266
sg14
g74
sg32
g47
sg48
Vadded outline option for the logo\u000a    \u000a    \u000a      \u000a      <ul>\u000a      \u000a        \u000a        <li>\u000a          <a href="https://bitbucket.org/spoob/pyload/src/c8e59dcb5143/docs/resources/pyload_logo.svg">\u000a            docs/resources/pyload_logo.svg\u000a          </a>\u000a        </li>\u000a      \u000a      </ul>
p267
stRp268
sg9
(lp269
g1
(g2
g3
(dp270
g12
Vhttps://bitbucket.org/spoob/pyload/commits/c8e59dcb5143
p271
sg14
g15
sg16
g17
stRp272
asg81
g63
((I2013
I1
I28
I20
I37
I45
I0
I28
I0
t(dtRp273
sg34
Vadded outline option for the logo
p274
sg84
Vranan
p275
sg86
g267
sg87
I00
sS'title_detail'
p276
g1
(g2
g3
(dp277
g44
Vhttps://bitbucket.org/spoob/pyload/rss
p278
sg14
g46
sg32
g47
sg48
g274
stRp279
sg50
g271
sg92
(lp280
g1
(g2
g3
(dtRp281
asg95
(lp282
g97
aV*
ag98
asS'author_detail'
p283
g1
(g2
g3
(dp284
g40
g275
stRp285
sg102
Vhttps://bitbucket.org/spoob/pyload/commits/c8e59dcb5143
p286
sg104
VMon, 28 Jan 2013 20:37:45 +0000
p287
stRp288
ag1
(g2
g3
(dp289
S'summary_detail'
p290
g1
(g2
g3
(dp291
g44
Vhttps://bitbucket.org/spoob/pyload/rss
p292
sg14
g74
sg32
g47
sg48
Vadded shadow to logo, updated webui\u000a    \u000a    \u000a      \u000a      <ul>\u000a      \u000a        \u000a        <li>\u000a          <a href="https://bitbucket.org/spoob/pyload/src/14205d49393c/docs/resources/pyload_logo.svg">\u000a            docs/resources/pyload_logo.svg\u000a          </a>\u000a        </li>\u000a      \u000a        \u000a        <li>\u000a          <a href="https://bitbucket.org/spoob/pyload/src/14205d49393c/module/web/static/css/default/style.less">\u000a            module/web/static/css/default/style.less\u000a          </a>\u000a        </li>\u000a      \u000a        \u000a        <li>\u000a          <a href="https://bitbucket.org/spoob/pyload/src/14205d49393c/module/web/static/img/default/logo.png">\u000a            module/web/static/img/default/logo.png\u000a          </a>\u000a        </li>\u000a      \u000a        \u000a        <li>\u000a          <a href="https://bitbucket.org/spoob/pyload/src/14205d49393c/module/web/static/img/favicon.ico">\u000a            module/web/static/img/favicon.ico\u000a          </a>\u000a        </li>\u000a      \u000a      </ul>
p293
stRp294
sg9
(lp295
g1
(g2
g3
(dp296
g12
Vhttps://bitbucket.org/spoob/pyload/commits/14205d49393c
p297
sg14
g15
sg16
g17
stRp298
asg81
g63
((I2013
I1
I27
I15
I11
I37
I6
I27
I0
t(dtRp299
sg34
Vadded shadow to logo, updated webui
p300
sg84
Vranan
p301
sg86
g293
sg87
I00
sS'title_detail'
p302
g1
(g2
g3
(dp303
g44
Vhttps://bitbucket.org/spoob/pyload/rss
p304
sg14
g46
sg32
g47
sg48
g300
stRp305
sg50
g297
sg92
(lp306
g1
(g2
g3
(dtRp307
asg95
(lp308
g97
aV*
ag98
asS'author_detail'
p309
g1
(g2
g3
(dp310
g40
g301
stRp311
sg102
Vhttps://bitbucket.org/spoob/pyload/commits/14205d49393c
p312
sg104
VSun, 27 Jan 2013 15:11:37 +0000
p313
stRp314
ag1
(g2
g3
(dp315
S'summary_detail'
p316
g1
(g2
g3
(dp317
g44
Vhttps://bitbucket.org/spoob/pyload/rss
p318
sg14
g74
sg32
g47
sg48
Vlittle improvements to logo\u000a    \u000a    \u000a      \u000a      <ul>\u000a      \u000a        \u000a        <li>\u000a          <a href="https://bitbucket.org/spoob/pyload/src/fe8781852258/docs/resources/pyload_logo.svg">\u000a            docs/resources/pyload_logo.svg\u000a          </a>\u000a        </li>\u000a      \u000a      </ul>
p319
stRp320
sg9
(lp321
g1
(g2
g3
(dp322
g12
Vhttps://bitbucket.org/spoob/pyload/commits/fe8781852258
p323
sg14
g15
sg16
g17
stRp324
asg81
g63
((I2013
I1
I27
I13
I9
I25
I6
I27
I0
t(dtRp325
sg34
Vlittle improvements to logo
p326
sg84
Vranan
p327
sg86
g319
sg87
I00
sS'title_detail'
p328
g1
(g2
g3
(dp329
g44
Vhttps://bitbucket.org/spoob/pyload/rss
p330
sg14
g46
sg32
g47
sg48
g326
stRp331
sg50
g323
sg92
(lp332
g1
(g2
g3
(dtRp333
asg95
(lp334
g97
aV*
ag98
asS'author_detail'
p335
g1
(g2
g3
(dp336
g40
g327
stRp337
sg102
Vhttps://bitbucket.org/spoob/pyload/commits/fe8781852258
p338
sg104
VSun, 27 Jan 2013 13:09:25 +0000
p339
stRp340
ag1
(g2
g3
(dp341
S'summary_detail'
p342
g1
(g2
g3
(dp343
g44
Vhttps://bitbucket.org/spoob/pyload/rss
p344
sg14
g74
sg32
g47
sg48
Vlittle improvements to logo\u000a    \u000a    \u000a      \u000a      <ul>\u000a      \u000a        \u000a        <li>\u000a          <a href="https://bitbucket.org/spoob/pyload/src/9a9a20e1f1e3/docs/resources/pyload_logo.svg">\u000a            docs/resources/pyload_logo.svg\u000a          </a>\u000a        </li>\u000a      \u000a      </ul>
p345
stRp346
sg9
(lp347
g1
(g2
g3
(dp348
g12
Vhttps://bitbucket.org/spoob/pyload/commits/9a9a20e1f1e3
p349
sg14
g15
sg16
g17
stRp350
asg81
g63
((I2013
I1
I26
I23
I34
I32
I5
I26
I0
t(dtRp351
sg34
Vlittle improvements to logo
p352
sg84
Vranan
p353
sg86
g345
sg87
I00
sS'title_detail'
p354
g1
(g2
g3
(dp355
g44
Vhttps://bitbucket.org/spoob/pyload/rss
p356
sg14
g46
sg32
g47
sg48
g352
stRp357
sg50
g349
sg92
(lp358
g1
(g2
g3
(dtRp359
asg95
(lp360
g97
aV*
ag98
asS'author_detail'
p361
g1
(g2
g3
(dp362
g40
g353
stRp363
sg102
Vhttps://bitbucket.org/spoob/pyload/commits/9a9a20e1f1e3
p364
sg104
VSat, 26 Jan 2013 23:34:32 +0000
p365
stRp366
ag1
(g2
g3
(dp367
S'summary_detail'
p368
g1
(g2
g3
(dp369
g44
Vhttps://bitbucket.org/spoob/pyload/rss
p370
sg14
g74
sg32
g47
sg48
Vlittle fixes, added pyload logo as svg\u000a    \u000a    \u000a      \u000a      <ul>\u000a      \u000a        \u000a        <li>\u000a          <a href="https://bitbucket.org/spoob/pyload/src/acd66c5f440c/docs/resources/pyload_logo.svg">\u000a            docs/resources/pyload_logo.svg\u000a          </a>\u000a        </li>\u000a      \u000a        \u000a        <li>\u000a          <a href="https://bitbucket.org/spoob/pyload/src/acd66c5f440c/module/PluginManager.py">\u000a            module/PluginManager.py\u000a          </a>\u000a        </li>\u000a      \u000a        \u000a        <li>\u000a          <a href="https://bitbucket.org/spoob/pyload/src/acd66c5f440c/module/web/ServerThread.py">\u000a            module/web/ServerThread.py\u000a          </a>\u000a        </li>\u000a      \u000a        \u000a        <li>\u000a          <a href="https://bitbucket.org/spoob/pyload/src/acd66c5f440c/module/web/static/css/default/dashboard.less">\u000a            module/web/static/css/default/dashboard.less\u000a          </a>\u000a        </li>\u000a      \u000a        \u000a        <li>\u000a          <a href="https://bitbucket.org/spoob/pyload/src/acd66c5f440c/module/web/static/js/utils/animations.js">\u000a            module/web/static/js/utils/animations.js\u000a          </a>\u000a        </li>\u000a      \u000a        \u000a        <li>\u000a          <a href="https://bitbucket.org/spoob/pyload/src/acd66c5f440c/module/web/static/js/views/packageView.js">\u000a            module/web/static/js/views/packageView.js\u000a          </a>\u000a        </li>\u000a      \u000a      </ul>
p371
stRp372
sg9
(lp373
g1
(g2
g3
(dp374
g12
Vhttps://bitbucket.org/spoob/pyload/commits/acd66c5f440c
p375
sg14
g15
sg16
g17
stRp376
asg81
g63
((I2013
I1
I26
I22
I33
I55
I5
I26
I0
t(dtRp377
sg34
Vlittle fixes, added pyload logo as svg
p378
sg84
Vranan
p379
sg86
g371
sg87
I00
sS'title_detail'
p380
g1
(g2
g3
(dp381
g44
Vhttps://bitbucket.org/spoob/pyload/rss
p382
sg14
g46
sg32
g47
sg48
g378
stRp383
sg50
g375
sg92
(lp384
g1
(g2
g3
(dtRp385
asg95
(lp386
g97
aV*
ag98
asS'author_detail'
p387
g1
(g2
g3
(dp388
g40
g379
stRp389
sg102
Vhttps://bitbucket.org/spoob/pyload/commits/acd66c5f440c
p390
sg104
VSat, 26 Jan 2013 22:33:55 +0000
p391
stRp392
ag1
(g2
g3
(dp393
S'summary_detail'
p394
g1
(g2
g3
(dp395
g44
Vhttps://bitbucket.org/spoob/pyload/rss
p396
sg14
g74
sg32
g47
sg48
Vmega.co.nz hoster plugin\u000a    \u000a    \u000a      \u000a      <ul>\u000a      \u000a        \u000a        <li>\u000a          <a href="https://bitbucket.org/spoob/pyload/src/a4d03ecb078b/module/plugins/hoster/MegaNz.py">\u000a            module/plugins/hoster/MegaNz.py\u000a          </a>\u000a        </li>\u000a      \u000a      </ul>
p397
stRp398
sg9
(lp399
g1
(g2
g3
(dp400
g12
Vhttps://bitbucket.org/spoob/pyload/commits/a4d03ecb078b
p401
sg14
g15
sg16
g17
stRp402
asg81
g63
((I2013
I1
I26
I20
I50
I44
I5
I26
I0
t(dtRp403
sg34
Vmega.co.nz hoster plugin
p404
sg84
Vranan
p405
sg86
g397
sg87
I00
sS'title_detail'
p406
g1
(g2
g3
(dp407
g44
Vhttps://bitbucket.org/spoob/pyload/rss
p408
sg14
g46
sg32
g47
sg48
g404
stRp409
sg50
g401
sg92
(lp410
g1
(g2
g3
(dtRp411
asg95
(lp412
g97
aV*
ag98
asS'author_detail'
p413
g1
(g2
g3
(dp414
g40
g405
stRp415
sg102
Vhttps://bitbucket.org/spoob/pyload/commits/a4d03ecb078b
p416
sg104
VSat, 26 Jan 2013 20:50:44 +0000
p417
stRp418
ag1
(g2
g3
(dp419
S'summary_detail'
p420
g1
(g2
g3
(dp421
g44
Vhttps://bitbucket.org/spoob/pyload/rss
p422
sg14
g74
sg32
g47
sg48
Vfix ssl deactivation for server selector\u000a    \u000a    \u000a      \u000a      <ul>\u000a      \u000a        \u000a        <li>\u000a          <a href="https://bitbucket.org/spoob/pyload/src/47921ac0ed8e/module/web/ServerThread.py">\u000a            module/web/ServerThread.py\u000a          </a>\u000a        </li>\u000a      \u000a        \u000a        <li>\u000a          <a href="https://bitbucket.org/spoob/pyload/src/47921ac0ed8e/pyload.py">\u000a            pyload.py\u000a          </a>\u000a        </li>\u000a      \u000a      </ul>
p423
stRp424
sg9
(lp425
g1
(g2
g3
(dp426
g12
Vhttps://bitbucket.org/spoob/pyload/commits/47921ac0ed8e
p427
sg14
g15
sg16
g17
stRp428
asg81
g63
((I2013
I1
I25
I18
I47
I58
I4
I25
I0
t(dtRp429
sg34
Vfix ssl deactivation for server selector
p430
sg84
Vranan
p431
sg86
g423
sg87
I00
sS'title_detail'
p432
g1
(g2
g3
(dp433
g44
Vhttps://bitbucket.org/spoob/pyload/rss
p434
sg14
g46
sg32
g47
sg48
g430
stRp435
sg50
g427
sg92
(lp436
g1
(g2
g3
(dtRp437
asg95
(lp438
g97
aV*
ag98
asS'author_detail'
p439
g1
(g2
g3
(dp440
g40
g431
stRp441
sg102
Vhttps://bitbucket.org/spoob/pyload/commits/47921ac0ed8e
p442
sg104
VFri, 25 Jan 2013 18:47:58 +0000
p443
stRp444
ag1
(g2
g3
(dp445
S'summary_detail'
p446
g1
(g2
g3
(dp447
g44
Vhttps://bitbucket.org/spoob/pyload/rss
p448
sg14
g74
sg32
g47
sg48
Vfallback when no system locale can be retrieved\u000a    \u000a    \u000a      \u000a      <ul>\u000a      \u000a        \u000a        <li>\u000a          <a href="https://bitbucket.org/spoob/pyload/src/aa5207ac804b/pyload.py">\u000a            pyload.py\u000a          </a>\u000a        </li>\u000a      \u000a      </ul>
p449
stRp450
sg9
(lp451
g1
(g2
g3
(dp452
g12
Vhttps://bitbucket.org/spoob/pyload/commits/aa5207ac804b
p453
sg14
g15
sg16
g17
stRp454
asg81
g63
((I2013
I1
I25
I17
I43
I53
I4
I25
I0
t(dtRp455
sg34
Vfallback when no system locale can be retrieved
p456
sg84
Vranan
p457
sg86
g449
sg87
I00
sS'title_detail'
p458
g1
(g2
g3
(dp459
g44
Vhttps://bitbucket.org/spoob/pyload/rss
p460
sg14
g46
sg32
g47
sg48
g456
stRp461
sg50
g453
sg92
(lp462
g1
(g2
g3
(dtRp463
asg95
(lp464
g97
aV*
ag98
asS'author_detail'
p465
g1
(g2
g3
(dp466
g40
g457
stRp467
sg102
Vhttps://bitbucket.org/spoob/pyload/commits/aa5207ac804b
p468
sg104
VFri, 25 Jan 2013 17:43:53 +0000
p469
stRp470
asS'canto_update'
p471
F1364190828.3927341
sS'headers'
p472
(dp473
S'content-length'
p474
S'23721'
p475
sS'x-served-by'
p476
S'bitbucket23'
p477
sS'x-content-type-options'
p478
S'nosniff'
p479
sS'content-language'
p480
S'en'
p481
sS'content-type'
p482
S'application/rss+xml'
p483
sS'expires'
p484
S'Mon, 25 Mar 2013 05:53:42 GMT'
p485
sS'vary'
p486
S'Accept-Language, Cookie'
p487
sS'connection'
p488
S'close'
p489
sS'server'
p490
S'nginx/1.2.4'
p491
sS'last-modified'
p492
g61
sS'x-version'
p493
S'e0125b5a5ab1'
p494
sS'etag'
p495
S'"7aa5582747b4848841f5e80acb7fb9e7"'
p496
sS'strict-transport-security'
p497
S'max-age=2592000'
p498
sS'x-request-count'
p499
S'40'
p500
sS'cache-control'
p501
S'max-age=0'
p502
sS'date'
p503
S'Mon, 25 Mar 2013 05:53:42 GMT'
p504
sS'x-static-version'
p505
S'6c70d6d86a4d'
p506
ssS'etag'
p507
V"7aa5582747b4848841f5e80acb7fb9e7"
p508
sg95
(lp509
sg12
Vhttps://bitbucket.org/spoob/pyload/rss
p510
sS'version'
p511
Vrss20
p512
sS'canto_version'
p513
(I0
I7
I10
tp514
sS'namespaces'
p515
(dp516
S''
Vhttp://www.w3.org/2005/Atom
p517
sstRp518
.