ccopy_reg
_reconstructor
p1
(cfeedparser
FeedParserDict
p2
c__builtin__
dict
p3
(dp4
S'feed'
p5
g1
(g2
g3
(dp6
S'updated'
p7
VThu, 21 Mar 2013 21:09:25 -0700
p8
sS'subtitle'
p9
VGun show comics go off quick, like a gun in your hand, but you will be forever wounded and you can kill a deer with it as well.
p10
sS'links'
p11
(lp12
g1
(g2
g3
(dp13
S'href'
p14
Vhttp://gunshowcomic.com
p15
sS'type'
p16
Vtext/html
p17
sS'rel'
p18
Valternate
p19
stRp20
asS'language'
p21
Ven-us
p22
sS'title'
p23
VGun Show ~ ~ ~ ~
p24
sS'subtitle_detail'
p25
g1
(g2
g3
(dp26
S'base'
p27
Vhttp://www.rsspect.com/rss/gunshowcomic.xml
p28
sg16
Vtext/html
p29
sg21
NsS'value'
p30
g10
stRp31
sS'title_detail'
p32
g1
(g2
g3
(dp33
g27
Vhttp://www.rsspect.com/rss/gunshowcomic.xml
p34
sg16
Vtext/plain
p35
sg21
Nsg30
g24
stRp36
sS'link'
p37
g15
sS'updated_parsed'
p38
ctime
struct_time
p39
((I2013
I3
I22
I4
I9
I25
I4
I81
I0
t(dtRp40
stRp41
sS'status'
p42
I200
sg7
S'Fri, 22 Mar 2013 04:10:06 GMT'
p43
sg38
g39
((I2013
I3
I22
I4
I10
I6
I4
I81
I0
t(dtRp44
sS'encoding'
p45
Viso-8859-1
p46
sS'bozo'
p47
I0
sS'entries'
p48
(lp49
g1
(g2
g3
(dp50
S'summary_detail'
p51
g1
(g2
g3
(dp52
g27
Vhttp://www.rsspect.com/rss/gunshowcomic.xml
p53
sg16
g29
sg21
Nsg30
V<img class="strip" src="http://gunshowcomic.com/comics/20130322.png" title="slime cowboys." /><br /><br />\u000a<div style="font-size: large; font-family: georgia;"><br /></div><br /><br />\u000a<!--\u000agoogle_ad_client = "ca-pub-0053421091691182";\u000a/* GS 468x60 */\u000agoogle_ad_slot = "1866293955";\u000agoogle_ad_width = 468;\u000agoogle_ad_height = 60;\u000a//-->
p54
stRp55
sg11
(lp56
g1
(g2
g3
(dp57
g14
Vhttp://gunshowcomic.com/679
p58
sg16
g17
sg18
g19
stRp59
asS'published_parsed'
p60
g39
((I2013
I3
I22
I4
I9
I5
I4
I81
I0
t(dtRp61
sg23
VGraveyard Quest 19
p62
sS'summary'
p63
g54
sS'guidislink'
p64
I00
sS'title_detail'
p65
g1
(g2
g3
(dp66
g27
Vhttp://www.rsspect.com/rss/gunshowcomic.xml
p67
sg16
g35
sg21
Nsg30
g62
stRp68
sg37
g58
sS'published'
p69
VThu, 21 Mar 2013 21:09:05 -0700
p70
sS'canto_state'
p71
(lp72
VGun Show ~ ~ ~ ~
p73
aV*
aS'read'
p74
asS'id'
p75
Vhttp://www.rsspect.com/rss/RSSPECT-002160991
p76
stRp77
ag1
(g2
g3
(dp78
S'summary_detail'
p79
g1
(g2
g3
(dp80
g27
Vhttp://www.rsspect.com/rss/gunshowcomic.xml
p81
sg16
g29
sg21
Nsg30
V<img class="strip" src="http://gunshowcomic.com/comics/20130320.png" title="you dont use shovels like that ever" /><br /><br />\u000a<div style="font-size: large; font-family: georgia;"><br /></div><br /><br />\u000a<!--\u000agoogle_ad_client = "ca-pub-0053421091691182";\u000a/* GS 468x60 */\u000agoogle_ad_slot = "1866293955";\u000agoogle_ad_width = 468;\u000agoogle_ad_height = 60;\u000a//-->
p82
stRp83
sg11
(lp84
g1
(g2
g3
(dp85
g14
Vhttp://gunshowcomic.com/678
p86
sg16
g17
sg18
g19
stRp87
asg60
g39
((I2013
I3
I20
I5
I58
I32
I2
I79
I0
t(dtRp88
sg23
VGraveyard Quest 18
p89
sg63
g82
sg64
I00
sS'title_detail'
p90
g1
(g2
g3
(dp91
g27
Vhttp://www.rsspect.com/rss/gunshowcomic.xml
p92
sg16
g35
sg21
Nsg30
g89
stRp93
sg37
g86
sg69
VTue, 19 Mar 2013 22:58:32 -0700
p94
sg71
(lp95
g73
aV*
ag74
asg75
Vhttp://www.rsspect.com/rss/RSSPECT-002159174
p96
stRp97
ag1
(g2
g3
(dp98
S'summary_detail'
p99
g1
(g2
g3
(dp100
g27
Vhttp://www.rsspect.com/rss/gunshowcomic.xml
p101
sg16
g29
sg21
Nsg30
V<img class="strip" src="http://gunshowcomic.com/comics/20130318.png" title="thanks to both the mole for the shovel and for my dead father body for taking his hand off of the shovel" /><br /><br />\u000a<div style="font-size: large; font-family: georgia;"><br /></div><br /><br />\u000a<!--\u000agoogle_ad_client = "ca-pub-0053421091691182";\u000a/* GS 468x60 */\u000agoogle_ad_slot = "1866293955";\u000agoogle_ad_width = 468;\u000agoogle_ad_height = 60;\u000a//-->
p102
stRp103
sg11
(lp104
g1
(g2
g3
(dp105
g14
Vhttp://gunshowcomic.com/677
p106
sg16
g17
sg18
g19
stRp107
asg60
g39
((I2013
I3
I18
I8
I5
I47
I0
I77
I0
t(dtRp108
sg23
VGraveyard Quest 17
p109
sg63
g102
sg64
I00
sS'title_detail'
p110
g1
(g2
g3
(dp111
g27
Vhttp://www.rsspect.com/rss/gunshowcomic.xml
p112
sg16
g35
sg21
Nsg30
g109
stRp113
sg37
g106
sg69
VMon, 18 Mar 2013 01:05:47 -0700
p114
sg71
(lp115
g73
aV*
ag74
asg75
Vhttp://www.rsspect.com/rss/RSSPECT-002158213
p116
stRp117
ag1
(g2
g3
(dp118
S'summary_detail'
p119
g1
(g2
g3
(dp120
g27
Vhttp://www.rsspect.com/rss/gunshowcomic.xml
p121
sg16
g29
sg21
Nsg30
V<img class="strip" src="http://gunshowcomic.com/comics/20130315-01.png" title="dead dad body is embarrassing me in front of the other ghosts!!!!!" /><br /><img class="strip" src="http://gunshowcomic.com/comics/20130315-02.png" title="dead dad body is embarrassing me in front of the other ghosts!!!!!" /><br /><br />\u000a<div style="font-size: large; font-family: georgia;"><br /></div><br /><br />\u000a<!--\u000agoogle_ad_client = "ca-pub-0053421091691182";\u000a/* GS 468x60 */\u000agoogle_ad_slot = "1866293955";\u000agoogle_ad_width = 468;\u000agoogle_ad_height = 60;\u000a//-->
p122
stRp123
sg11
(lp124
g1
(g2
g3
(dp125
g14
Vhttp://gunshowcomic.com/676
p126
sg16
g17
sg18
g19
stRp127
asg60
g39
((I2013
I3
I15
I7
I51
I48
I4
I74
I0
t(dtRp128
sg23
VGraveyard Quest 16
p129
sg63
g122
sg64
I00
sS'title_detail'
p130
g1
(g2
g3
(dp131
g27
Vhttp://www.rsspect.com/rss/gunshowcomic.xml
p132
sg16
g35
sg21
Nsg30
g129
stRp133
sg37
g126
sg69
VFri, 15 Mar 2013 00:51:48 -0700
p134
sg71
(lp135
g73
aV*
ag74
asg75
Vhttp://www.rsspect.com/rss/RSSPECT-002156875
p136
stRp137
ag1
(g2
g3
(dp138
S'summary_detail'
p139
g1
(g2
g3
(dp140
g27
Vhttp://www.rsspect.com/rss/gunshowcomic.xml
p141
sg16
g29
sg21
Nsg30
V<img class="strip" src="http://gunshowcomic.com/comics/20130313-0001.png" title="hell train: the train to hell" /><br /><img class="strip" src="http://gunshowcomic.com/comics/20130313-0002.png" title="hell train: the train to hell" /><br /><br />\u000a<div style="font-size: large; font-family: georgia;"><br /></div><br /><br />\u000a<!--\u000agoogle_ad_client = "ca-pub-0053421091691182";\u000a/* GS 468x60 */\u000agoogle_ad_slot = "1866293955";\u000agoogle_ad_width = 468;\u000agoogle_ad_height = 60;\u000a//-->
p142
stRp143
sg11
(lp144
g1
(g2
g3
(dp145
g14
Vhttp://gunshowcomic.com/675
p146
sg16
g17
sg18
g19
stRp147
asg60
g39
((I2013
I3
I14
I21
I32
I53
I3
I73
I0
t(dtRp148
sg23
VGraveyard Quest 15
p149
sg63
g142
sg64
I00
sS'title_detail'
p150
g1
(g2
g3
(dp151
g27
Vhttp://www.rsspect.com/rss/gunshowcomic.xml
p152
sg16
g35
sg21
Nsg30
g149
stRp153
sg37
g146
sg69
VThu, 14 Mar 2013 14:32:53 -0700
p154
sg71
(lp155
g73
aV*
ag74
asg75
Vhttp://www.rsspect.com/rss/RSSPECT-002156556
p156
stRp157
ag1
(g2
g3
(dp158
S'summary_detail'
p159
g1
(g2
g3
(dp160
g27
Vhttp://www.rsspect.com/rss/gunshowcomic.xml
p161
sg16
g29
sg21
Nsg30
V<img class="strip" src="http://gunshowcomic.com/comics/20130311-0001.png" title="where are  you" /><br /><img class="strip" src="http://gunshowcomic.com/comics/20130311-0002.png" title="where are  you" /><br /><img class="strip" src="http://gunshowcomic.com/comics/20130311-0003.png" title="where are  you" /><br /><br />\u000a<div style="font-size: large; font-family: georgia;"><br /></div><br /><br />\u000a<!--\u000agoogle_ad_client = "ca-pub-0053421091691182";\u000a/* GS 468x60 */\u000agoogle_ad_slot = "1866293955";\u000agoogle_ad_width = 468;\u000agoogle_ad_height = 60;\u000a//-->
p162
stRp163
sg11
(lp164
g1
(g2
g3
(dp165
g14
Vhttp://gunshowcomic.com/674
p166
sg16
g17
sg18
g19
stRp167
asg60
g39
((I2013
I3
I11
I7
I52
I14
I0
I70
I0
t(dtRp168
sg23
VGraveyard Quest 14
p169
sg63
g162
sg64
I00
sS'title_detail'
p170
g1
(g2
g3
(dp171
g27
Vhttp://www.rsspect.com/rss/gunshowcomic.xml
p172
sg16
g35
sg21
Nsg30
g169
stRp173
sg37
g166
sg69
VMon, 11 Mar 2013 00:52:14 -0700
p174
sg71
(lp175
g73
aV*
ag74
asg75
Vhttp://www.rsspect.com/rss/RSSPECT-002154931
p176
stRp177
ag1
(g2
g3
(dp178
S'summary_detail'
p179
g1
(g2
g3
(dp180
g27
Vhttp://www.rsspect.com/rss/gunshowcomic.xml
p181
sg16
g29
sg21
Nsg30
V<img class="strip" src="http://gunshowcomic.com/comics/20130308-cleaning.png" title="clean from sin" /><br /><br />\u000a<div style="font-size: large; font-family: georgia;"><br /></div><br /><br />\u000a<!--\u000agoogle_ad_client = "ca-pub-0053421091691182";\u000a/* GS 468x60 */\u000agoogle_ad_slot = "1866293955";\u000agoogle_ad_width = 468;\u000agoogle_ad_height = 60;\u000a//-->
p182
stRp183
sg11
(lp184
g1
(g2
g3
(dp185
g14
Vhttp://gunshowcomic.com/673
p186
sg16
g17
sg18
g19
stRp187
asg60
g39
((I2013
I3
I8
I10
I1
I29
I4
I67
I0
t(dtRp188
sg23
VCleaning
p189
sg63
g182
sg64
I00
sS'title_detail'
p190
g1
(g2
g3
(dp191
g27
Vhttp://www.rsspect.com/rss/gunshowcomic.xml
p192
sg16
g35
sg21
Nsg30
g189
stRp193
sg37
g186
sg69
VFri, 08 Mar 2013 02:01:29 -0800
p194
sg71
(lp195
g73
aV*
ag74
asg75
Vhttp://www.rsspect.com/rss/RSSPECT-002154023
p196
stRp197
ag1
(g2
g3
(dp198
S'summary_detail'
p199
g1
(g2
g3
(dp200
g27
Vhttp://www.rsspect.com/rss/gunshowcomic.xml
p201
sg16
g29
sg21
Nsg30
V<img class="strip" src="http://gunshowcomic.com/comics/20130306.png" title="right now" /><br /><br />\u000a<div style="font-size: large; font-family: georgia;"><br /></div><br /><br />\u000a<!--\u000agoogle_ad_client = "ca-pub-0053421091691182";\u000a/* GS 468x60 */\u000agoogle_ad_slot = "1866293955";\u000agoogle_ad_width = 468;\u000agoogle_ad_height = 60;\u000a//-->
p202
stRp203
sg11
(lp204
g1
(g2
g3
(dp205
g14
Vhttp://gunshowcomic.com/672
p206
sg16
g17
sg18
g19
stRp207
asg60
g39
((I2013
I3
I6
I12
I0
I41
I2
I65
I0
t(dtRp208
sg23
VWorst Quality
p209
sg63
g202
sg64
I00
sS'title_detail'
p210
g1
(g2
g3
(dp211
g27
Vhttp://www.rsspect.com/rss/gunshowcomic.xml
p212
sg16
g35
sg21
Nsg30
g209
stRp213
sg37
g206
sg69
VWed, 06 Mar 2013 04:00:41 -0800
p214
sg71
(lp215
g73
aV*
ag74
asg75
Vhttp://www.rsspect.com/rss/RSSPECT-002153145
p216
stRp217
ag1
(g2
g3
(dp218
S'summary_detail'
p219
g1
(g2
g3
(dp220
g27
Vhttp://www.rsspect.com/rss/gunshowcomic.xml
p221
sg16
g29
sg21
Nsg30
V<img class="strip" src="http://gunshowcomic.com/comics/20130304.png" title="shoulda got car insurance from geico\u2122 " /><br /><br />\u000a<div style="font-size: large; font-family: georgia;"><br /></div><br /><br />\u000a<!--\u000agoogle_ad_client = "ca-pub-0053421091691182";\u000a/* GS 468x60 */\u000agoogle_ad_slot = "1866293955";\u000agoogle_ad_width = 468;\u000agoogle_ad_height = 60;\u000a//-->
p222
stRp223
sg11
(lp224
g1
(g2
g3
(dp225
g14
Vhttp://gunshowcomic.com/671
p226
sg16
g17
sg18
g19
stRp227
asg60
g39
((I2013
I3
I4
I12
I8
I11
I0
I63
I0
t(dtRp228
sg23
VPretend Car
p229
sg63
g222
sg64
I00
sS'title_detail'
p230
g1
(g2
g3
(dp231
g27
Vhttp://www.rsspect.com/rss/gunshowcomic.xml
p232
sg16
g35
sg21
Nsg30
g229
stRp233
sg37
g226
sg69
VMon, 04 Mar 2013 04:08:11 -0800
p234
sg71
(lp235
g73
aV*
ag74
asg75
Vhttp://www.rsspect.com/rss/RSSPECT-002152278
p236
stRp237
ag1
(g2
g3
(dp238
S'summary_detail'
p239
g1
(g2
g3
(dp240
g27
Vhttp://www.rsspect.com/rss/gunshowcomic.xml
p241
sg16
g29
sg21
Nsg30
V<img class="strip" src="http://gunshowcomic.com/comics/20130227.png" title="kenneth i forgot where i put the key" /><br /><br />\u000a<div style="font-size: large; font-family: georgia;"><br /></div><br /><br />\u000a<!--\u000agoogle_ad_client = "ca-pub-0053421091691182";\u000a/* GS 468x60 */\u000agoogle_ad_slot = "1866293955";\u000agoogle_ad_width = 468;\u000agoogle_ad_height = 60;\u000a//-->
p242
stRp243
sg11
(lp244
g1
(g2
g3
(dp245
g14
Vhttp://gunshowcomic.com/670
p246
sg16
g17
sg18
g19
stRp247
asg60
g39
((I2013
I3
I1
I12
I58
I34
I4
I60
I0
t(dtRp248
sg23
VI want to write a game
p249
sg63
g242
sg64
I00
sS'title_detail'
p250
g1
(g2
g3
(dp251
g27
Vhttp://www.rsspect.com/rss/gunshowcomic.xml
p252
sg16
g35
sg21
Nsg30
g249
stRp253
sg37
g246
sg69
VFri, 01 Mar 2013 04:58:34 -0800
p254
sg71
(lp255
g73
aV*
ag74
asg75
Vhttp://www.rsspect.com/rss/RSSPECT-002151179
p256
stRp257
ag1
(g2
g3
(dp258
S'summary_detail'
p259
g1
(g2
g3
(dp260
g27
Vhttp://www.rsspect.com/rss/gunshowcomic.xml
p261
sg16
g29
sg21
Nsg30
V<img class="strip" src="http://gunshowcomic.com/comics/20130301.png" title="i do not have time to deal with this" /><br /><br />\u000a<div style="font-size: large; font-family: georgia;"><br /></div><br /><br />\u000a<!--\u000agoogle_ad_client = "ca-pub-0053421091691182";\u000a/* GS 468x60 */\u000agoogle_ad_slot = "1866293955";\u000agoogle_ad_width = 468;\u000agoogle_ad_height = 60;\u000a//-->
p262
stRp263
sg11
(lp264
g1
(g2
g3
(dp265
g14
Vhttp://gunshowcomic.com/669
p266
sg16
g17
sg18
g19
stRp267
asg60
g39
((I2013
I2
I27
I15
I5
I22
I2
I58
I0
t(dtRp268
sg23
VWater off this duck
p269
sg63
g262
sg64
I00
sS'title_detail'
p270
g1
(g2
g3
(dp271
g27
Vhttp://www.rsspect.com/rss/gunshowcomic.xml
p272
sg16
g35
sg21
Nsg30
g269
stRp273
sg37
g266
sg69
VWed, 27 Feb 2013 07:05:22 -0800
p274
sg71
(lp275
g73
aV*
ag74
asg75
Vhttp://www.rsspect.com/rss/RSSPECT-002150298
p276
stRp277
ag1
(g2
g3
(dp278
S'summary_detail'
p279
g1
(g2
g3
(dp280
g27
Vhttp://www.rsspect.com/rss/gunshowcomic.xml
p281
sg16
g29
sg21
Nsg30
V<img class="strip" src="http://gunshowcomic.com/comics/20130225.png" title="BEING POLITE TO RATS" /><br /><br />\u000a<div style="font-size: large; font-family: georgia;"><br /></div><br /><br />\u000a<!--\u000agoogle_ad_client = "ca-pub-0053421091691182";\u000a/* GS 468x60 */\u000agoogle_ad_slot = "1866293955";\u000agoogle_ad_width = 468;\u000agoogle_ad_height = 60;\u000a//-->
p282
stRp283
sg11
(lp284
g1
(g2
g3
(dp285
g14
Vhttp://gunshowcomic.com/668
p286
sg16
g17
sg18
g19
stRp287
asg60
g39
((I2013
I2
I25
I13
I9
I2
I0
I56
I0
t(dtRp288
sg23
VBEING POLITE TO RATS
p289
sg63
g282
sg64
I00
sS'title_detail'
p290
g1
(g2
g3
(dp291
g27
Vhttp://www.rsspect.com/rss/gunshowcomic.xml
p292
sg16
g35
sg21
Nsg30
g289
stRp293
sg37
g286
sg69
VMon, 25 Feb 2013 05:09:02 -0800
p294
sg71
(lp295
g73
aV*
ag74
asg75
Vhttp://www.rsspect.com/rss/RSSPECT-002149256
p296
stRp297
ag1
(g2
g3
(dp298
S'summary_detail'
p299
g1
(g2
g3
(dp300
g27
Vhttp://www.rsspect.com/rss/gunshowcomic.xml
p301
sg16
g29
sg21
Nsg30
V<img class="strip" src="http://gunshowcomic.com/comics/20130222-sneakypig.png" title="pick up the flag!" /><br /><br />\u000a<div style="font-size: large; font-family: georgia;"><br /></div><br /><br />\u000a<!--\u000agoogle_ad_client = "ca-pub-0053421091691182";\u000a/* GS 468x60 */\u000agoogle_ad_slot = "1866293955";\u000agoogle_ad_width = 468;\u000agoogle_ad_height = 60;\u000a//-->
p302
stRp303
sg11
(lp304
g1
(g2
g3
(dp305
g14
Vhttp://gunshowcomic.com/667
p306
sg16
g17
sg18
g19
stRp307
asg60
g39
((I2013
I2
I22
I5
I14
I34
I4
I53
I0
t(dtRp308
sg23
VFind the Pig!
p309
sg63
g302
sg64
I00
sS'title_detail'
p310
g1
(g2
g3
(dp311
g27
Vhttp://www.rsspect.com/rss/gunshowcomic.xml
p312
sg16
g35
sg21
Nsg30
g309
stRp313
sg37
g306
sg69
VThu, 21 Feb 2013 21:14:34 -0800
p314
sg71
(lp315
g73
aV*
ag74
asg75
Vhttp://www.rsspect.com/rss/RSSPECT-002147569
p316
stRp317
ag1
(g2
g3
(dp318
S'summary_detail'
p319
g1
(g2
g3
(dp320
g27
Vhttp://www.rsspect.com/rss/gunshowcomic.xml
p321
sg16
g29
sg21
Nsg30
V<img class="strip" src="http://gunshowcomic.com/comics/20130220-0001.png" title="hail satan" /><br /><img class="strip" src="http://gunshowcomic.com/comics/20130220-0002.png" title="hail satan" /><br /><img class="strip" src="http://gunshowcomic.com/comics/20130220-0003.png" title="hail satan" /><br /><br />\u000a<div style="font-size: large; font-family: georgia;"><br /></div><br /><br />\u000a<!--\u000agoogle_ad_client = "ca-pub-0053421091691182";\u000a/* GS 468x60 */\u000agoogle_ad_slot = "1866293955";\u000agoogle_ad_width = 468;\u000agoogle_ad_height = 60;\u000a//-->
p322
stRp323
sg11
(lp324
g1
(g2
g3
(dp325
g14
Vhttp://gunshowcomic.com/666
p326
sg16
g17
sg18
g19
stRp327
asg60
g39
((I2013
I2
I20
I7
I12
I37
I2
I51
I0
t(dtRp328
sg23
Vgraveyard frasier
p329
sg63
g322
sg64
I00
sS'title_detail'
p330
g1
(g2
g3
(dp331
g27
Vhttp://www.rsspect.com/rss/gunshowcomic.xml
p332
sg16
g35
sg21
Nsg30
g329
stRp333
sg37
g326
sg69
VTue, 19 Feb 2013 23:12:37 -0800
p334
sg71
(lp335
g73
aV*
ag74
asg75
Vhttp://www.rsspect.com/rss/RSSPECT-002146405
p336
stRp337
ag1
(g2
g3
(dp338
S'summary_detail'
p339
g1
(g2
g3
(dp340
g27
Vhttp://www.rsspect.com/rss/gunshowcomic.xml
p341
sg16
g29
sg21
Nsg30
V<img class="strip" src="http://gunshowcomic.com/comics/20130218-0001.png" title="ah whoops" /><br /><img class="strip" src="http://gunshowcomic.com/comics/20130218-0002.png" title="ah whoops" /><br /><img class="strip" src="http://gunshowcomic.com/comics/20130218-0003.png" title="ah whoops" /><br /><br />\u000a<div style="font-size: large; font-family: georgia;"><br /></div><br /><br />\u000a<!--\u000agoogle_ad_client = "ca-pub-0053421091691182";\u000a/* GS 468x60 */\u000agoogle_ad_slot = "1866293955";\u000agoogle_ad_width = 468;\u000agoogle_ad_height = 60;\u000a//-->
p342
stRp343
sg11
(lp344
g1
(g2
g3
(dp345
g14
Vhttp://gunshowcomic.com/665
p346
sg16
g17
sg18
g19
stRp347
asg60
g39
((I2013
I2
I18
I15
I24
I12
I0
I49
I0
t(dtRp348
sg23
VGraveyard Quest 13
p349
sg63
g342
sg64
I00
sS'title_detail'
p350
g1
(g2
g3
(dp351
g27
Vhttp://www.rsspect.com/rss/gunshowcomic.xml
p352
sg16
g35
sg21
Nsg30
g349
stRp353
sg37
g346
sg69
VMon, 18 Feb 2013 07:24:12 -0800
p354
sg71
(lp355
g73
aV*
ag74
asg75
Vhttp://www.rsspect.com/rss/RSSPECT-002145525
p356
stRp357
asS'canto_update'
p358
F1364190821.604569
sS'headers'
p359
(dp360
S'content-length'
p361
S'13712'
p362
sS'accept-ranges'
p363
S'bytes'
p364
sS'server'
p365
S'Apache'
p366
sS'last-modified'
p367
g43
sS'connection'
p368
S'close'
p369
sS'etag'
p370
S'"3590-4d87ba1532380"'
p371
sS'date'
p372
S'Mon, 25 Mar 2013 05:54:20 GMT'
p373
sS'content-type'
p374
S'application/xml'
p375
ssS'etag'
p376
V"3590-4d87ba1532380"
p377
sg71
(lp378
sg14
Vhttp://www.rsspect.com/rss/gunshowcomic.xml
p379
sS'version'
p380
Vrss20
p381
sS'canto_version'
p382
(I0
I7
I10
tp383
sS'namespaces'
p384
(dp385
stRp386
.