ccopy_reg
_reconstructor
p1
(cfeedparser
FeedParserDict
p2
c__builtin__
dict
p3
(dp4
S'feed'
p5
g1
(g2
g3
(dp6
S'title_detail'
p7
g1
(g2
g3
(dp8
S'base'
p9
Vhttp://kerneltrap.org
p10
sS'type'
p11
Vtext/plain
p12
sS'value'
p13
VKernelTrap
p14
sS'language'
p15
NstRp16
sS'subtitle'
p17
VKernelTrap is a web community devoted to sharing the latest in kernel development news.
p18
sS'links'
p19
(lp20
g1
(g2
g3
(dp21
S'href'
p22
Vhttp://kerneltrap.org
p23
sg11
Vtext/html
p24
sS'rel'
p25
Valternate
p26
stRp27
asg15
Ven-local
p28
sS'title'
p29
g14
sS'link'
p30
g23
sS'subtitle_detail'
p31
g1
(g2
g3
(dp32
g9
Vhttp://kerneltrap.org
p33
sg11
Vtext/html
p34
sg13
g18
sg15
NstRp35
stRp36
sS'status'
p37
I200
sS'updated'
p38
S'Tue, 17 Apr 2012 01:08:51 GMT'
p39
sS'updated_parsed'
p40
ctime
struct_time
p41
((I2012
I4
I17
I1
I8
I51
I1
I108
I0
t(dtRp42
sS'encoding'
p43
Vutf-8
p44
sS'bozo'
p45
I0
sS'canto_version'
p46
(I0
I7
I10
tp47
sS'canto_update'
p48
F1364190762.673146
sS'headers'
p49
(dp50
S'x-powered-by'
p51
S'PHP/5.2.14-pl0-gentoo'
p52
sS'transfer-encoding'
p53
S'chunked'
p54
sS'set-cookie'
p55
S'SESSe477fe1e25deac28797ea38831485edd=194f1fa5ec7cdf8e5974db9678636394; expires=Wed, 17-Apr-2013 09:25:53 GMT; path=/; domain=.kerneltrap.org'
p56
sS'expires'
p57
S'Sun, 19 Nov 1978 05:00:00 GMT'
p58
sS'vary'
p59
S'Accept-encoding'
p60
sS'server'
p61
S'Apache'
p62
sS'last-modified'
p63
g39
sS'connection'
p64
S'close'
p65
sS'etag'
p66
S'"017d16cb1a6b74aaf09076bb58c19494"'
p67
sS'cache-control'
p68
S'must-revalidate'
p69
sS'date'
p70
S'Mon, 25 Mar 2013 05:52:33 GMT'
p71
sS'content-type'
p72
S'application/rss+xml; charset=utf-8'
p73
ssS'etag'
p74
V"017d16cb1a6b74aaf09076bb58c19494"
p75
sS'canto_state'
p76
(lp77
sg22
Vhttp://kerneltrap.org/node/feed
p78
sS'version'
p79
Vrss20
p80
sS'entries'
p81
(lp82
g1
(g2
g3
(dp83
S'summary_detail'
p84
g1
(g2
g3
(dp85
g9
Vhttp://kerneltrap.org
p86
sg11
g34
sg13
V<div class="taxonomy-images"><a class="taxonomy-image-links" href="http://kerneltrap.org/news/linux"><img alt="Linux news" height="75" src="http://kerneltrap.org/files/category_pictures/K-Linux.gif" title="Linux news" width="75" /></a></div><!-- google_ad_section_start --><p>"<em>It's been two weeks rather than the usual one, because we've been hunting a really annoying VM regression that not a lot of people seem to have seen, but I didn't want to release an -rc4 with it,</em>" <a href="http://kerneltrap.org/mailarchive/linux-kernel/2010/4/13/4558076">began Linux creator Linus Torvalds</a>, announcing the <a href="http://kerneltrap.org/mailarchive/git-commits-head/2010/4/13/31838">2.6.34-rc4</a> Linux kernel.  He explained, "<i>we had the choice of either reverting all the anon-vma scalability improvements, or finding out exactly what caused the regression and fixing it.  And we got pretty close to the point where I was going to just revert it all.</i>"  Linus continued:</p>\u000a<blockquote><p>"Absolutely _huge_ kudos to Borislav Petkov who reported the problem and was able to not just reliably reproduce it, but also test new patches to try to narrow things down at a moments notice. The thing took ten days of emails flying back and forth, and Borislav was there all the time, day and night, through several patches that tried to fix it (several real bugs, but not the one he hit) and lots of patches to just add instrumentation to get us nearer to the cause of the problem.  And finally, today, confirmation that we actually nailed the problem. So  if anybody has been seeing a oops (or sometimes a GP fault) in  page_referenced(), that should be gone now."</p></blockquote>\u000a<p>As for the rest of the changes, Linus noted, "<em>the bulk of the changes come from drivers - a new network driver (cxgb4), but also updates to the radeon and nouveau drivers.  And then there is the random updates everywhere.</em>"  Read on for the full changelog.</p>\u000a<!-- google_ad_section_end --><p><a href="http://kerneltrap.org/Linux/2.6.34-rc4_Hunting_A_Really_Annoying_VM_Regression" target="_blank">read more</a></p>
p87
sg15
NstRp88
sg19
(lp89
g1
(g2
g3
(dp90
g22
Vhttp://kerneltrap.org/Linux/2.6.34-rc4_Hunting_A_Really_Annoying_VM_Regression
p91
sg11
g24
sg25
g26
stRp92
asS'tags'
p93
(lp94
g1
(g2
g3
(dp95
S'term'
p96
V-rc
p97
sS'scheme'
p98
Vhttp://kerneltrap.org/-rc
p99
sS'label'
p100
NstRp101
ag1
(g2
g3
(dp102
g96
V-rc4
p103
sg98
Vhttp://kerneltrap.org/taxonomy/term/539
p104
sg100
NstRp105
ag1
(g2
g3
(dp106
g96
V2.6.34
p107
sg98
Vhttp://kerneltrap.org/taxonomy/term/4263
p108
sg100
NstRp109
ag1
(g2
g3
(dp110
g96
VBorislav Petkov
p111
sg98
Vhttp://kerneltrap.org/taxonomy/term/4253
p112
sg100
NstRp113
ag1
(g2
g3
(dp114
g96
Vcxgb4
p115
sg98
Vhttp://kerneltrap.org/taxonomy/term/4273
p116
sg100
NstRp117
ag1
(g2
g3
(dp118
g96
VLinus Torvalds
p119
sg98
Vhttp://kerneltrap.org/Linus_Torvalds
p120
sg100
NstRp121
ag1
(g2
g3
(dp122
g96
VLinux
p123
sg98
Vhttp://kerneltrap.org/Linux
p124
sg100
NstRp125
ag1
(g2
g3
(dp126
g96
Vnouveau
p127
sg98
Vhttp://kerneltrap.org/taxonomy/term/4293
p128
sg100
NstRp129
ag1
(g2
g3
(dp130
g96
Vradeon
p131
sg98
Vhttp://kerneltrap.org/taxonomy/term/4283
p132
sg100
NstRp133
ag1
(g2
g3
(dp134
g96
Vregressions
p135
sg98
Vhttp://kerneltrap.org/taxonomy/term/278
p136
sg100
NstRp137
ag1
(g2
g3
(dp138
g96
Vvm
p139
sg98
Vhttp://kerneltrap.org/taxonomy/term/456
p140
sg100
NstRp141
ag1
(g2
g3
(dp142
g96
VLinux news
p143
sg98
Vhttp://kerneltrap.org/news/linux
p144
sg100
NstRp145
asg30
g91
sS'authors'
p146
(lp147
g1
(g2
g3
(dtRp148
asS'author_detail'
p149
g1
(g2
g3
(dp150
S'name'
p151
VJeremy
p152
stRp153
sS'id'
p154
Vhttp://kerneltrap.org/56443 at http://kerneltrap.org
p155
sS'published_parsed'
p156
g41
((I2010
I4
I13
I5
I16
I30
I1
I103
I0
t(dtRp157
sg29
VLinux: 2.6.34-rc4, "Hunting A Really Annoying VM Regression"
p158
sS'author'
p159
g152
sS'comments'
p160
Vhttp://kerneltrap.org/Linux/2.6.34-rc4_Hunting_A_Really_Annoying_VM_Regression#comments
p161
sS'summary'
p162
g87
sS'guidislink'
p163
I00
sS'title_detail'
p164
g1
(g2
g3
(dp165
g9
Vhttp://kerneltrap.org
p166
sg11
g12
sg13
g158
sg15
NstRp167
sS'published'
p168
VTue, 13 Apr 2010 05:16:30 +0000
p169
sg76
(lp170
VKernelTrap
p171
aV*
aS'read'
p172
astRp173
ag1
(g2
g3
(dp174
S'summary_detail'
p175
g1
(g2
g3
(dp176
g9
Vhttp://kerneltrap.org
p177
sg11
g34
sg13
V<div class="taxonomy-images"><a class="taxonomy-image-links" href="http://kerneltrap.org/news/linux"><img alt="Linux news" height="75" src="http://kerneltrap.org/files/category_pictures/K-Linux.gif" title="Linux news" width="75" /></a></div><!-- google_ad_section_start --><p>"<i>If you're wondering why I'm taking a long time to respond to your patches,</i>", began <a href="http://kerneltrap.org/Theodore_Tso">Theodore Ts'o</a> on the linux-ext4 mailing list, <a href="http://kerneltrap.org/mailarchive/linux-ext4/2010/4/6/6884054/thread">in a thread</a> that offered much insight into how and why to properly submit and test patches. "<i>Patches that are accepted into mainline should do one and only one thing,</i>" Ted continued, "<i>so if someone suggests that you make changes to your submitted patch, ideally what you should do is to resubmit the patch with the fixes --- and not submit a patch which is a delta to the previous one.</i>"  He also noted that patch submitters often greatly outnumber maintainers dictating a higher standard of quality, "<i>consider that for some maintainers, there may be 10 or 20 or 30 or more patch submitters in their subsystem.  With that kind of submitter-to-maintainer ratio, the patch submitter simply has to do much more of the work, since otherwise the subsystem maintainer simply can't keep up.</i>"</p>\u000a<p>Ted went on to acknowledge, "<i>I happen to believe that we need to encourage newcomers to the kernel developer community, and so I spend more time mentoring people who are new to the process.</i>"  He noted that his time was finite however, and that patches are accepted more quickly when they are easy to review and integrate.  Regarding the filesystem for which the patches had been submitted, he added, "<i><a href="http://kerneltrap.org/ext4">Ext4</a> is actually quite stable at this point.  Very large numbers of people are using it, and most users are quite happy.</i>"  For this reason, he pointed out that it is even more critical that the patches merged be of high quality.  That said, he continued, "<i>there is no such thing as code which is not buggy.  For any non-trivial program, it's almost certain there are bugs. [...] Ext4 is not exempt from these fundamental laws of software engineering.  'Code is always buggy until the last user of the program dies'.</i>"  He tied this back to the importance of testing patches before submitting, "<i>keep in mind that the maxim that code which is not buggy also applies to your patches.</i>"</p>\u000a<!-- google_ad_section_end --><p><a href="http://kerneltrap.org/Linux/Properly_Creating_And_Testing_Patches" target="_blank">read more</a></p>
p178
sg15
NstRp179
sg19
(lp180
g1
(g2
g3
(dp181
g22
Vhttp://kerneltrap.org/Linux/Properly_Creating_And_Testing_Patches
p182
sg11
g24
sg25
g26
stRp183
asg93
(lp184
g1
(g2
g3
(dp185
g96
Vbugs
p186
sg98
Vhttp://kerneltrap.org/bugs
p187
sg100
NstRp188
ag1
(g2
g3
(dp189
g96
Vdevelopment process
p190
sg98
Vhttp://kerneltrap.org/development_process
p191
sg100
NstRp192
ag1
(g2
g3
(dp193
g96
Vext4
p194
sg98
Vhttp://kerneltrap.org/ext4
p195
sg100
NstRp196
ag1
(g2
g3
(dp197
g96
VHOWTO
p198
sg98
Vhttp://kerneltrap.org/HOWTO
p199
sg100
NstRp200
ag1
(g2
g3
(dp201
g96
Vpatch
p202
sg98
Vhttp://kerneltrap.org/taxonomy/term/583
p203
sg100
NstRp204
ag1
(g2
g3
(dp205
g96
VTheodore Ts'o
p206
sg98
Vhttp://kerneltrap.org/Theodore_Tso
p207
sg100
NstRp208
ag1
(g2
g3
(dp209
g96
VLinux news
p210
sg98
Vhttp://kerneltrap.org/news/linux
p211
sg100
NstRp212
asg30
g182
sg146
(lp213
g1
(g2
g3
(dtRp214
asS'author_detail'
p215
g1
(g2
g3
(dp216
g151
VJeremy
p217
stRp218
sg154
Vhttp://kerneltrap.org/56223 at http://kerneltrap.org
p219
sg156
g41
((I2010
I4
I9
I20
I18
I27
I4
I99
I0
t(dtRp220
sg29
VLinux: Properly Creating And Testing Patches
p221
sg159
g217
sS'comments'
p222
Vhttp://kerneltrap.org/Linux/Properly_Creating_And_Testing_Patches#comments
p223
sg162
g178
sg163
I00
sS'title_detail'
p224
g1
(g2
g3
(dp225
g9
Vhttp://kerneltrap.org
p226
sg11
g12
sg13
g221
sg15
NstRp227
sg168
VFri, 09 Apr 2010 20:18:27 +0000
p228
sg76
(lp229
g171
aV*
ag172
astRp230
ag1
(g2
g3
(dp231
S'summary_detail'
p232
g1
(g2
g3
(dp233
g9
Vhttp://kerneltrap.org
p234
sg11
g34
sg13
V<div class="taxonomy-images"><a class="taxonomy-image-links" href="http://kerneltrap.org/news/linux"><img alt="Linux news" height="75" src="http://kerneltrap.org/files/category_pictures/K-Linux.gif" title="Linux news" width="75" /></a></div><!-- google_ad_section_start --><p><a href="http://kerneltrap.org/Mel_Gorman">Mel Gorman</a> posted the <a href="http://kerneltrap.org/mailarchive/linux-kernel/2010/4/2/4554850">seventh version</a> of his Memory Compaction patches asking, "<i>are there any further obstacles to merging?</i>"  The patches, <a href="http://kerneltrap.org/node/8292">first posted</a> in May of 2007, provide a mechanism for moving GFP_MOVABLE pages into a smaller number of pageblocks, reducing externally fragmented memory.  Mel explains that 'compaction' is another method of defragmenting memory, "<i>for example, lumpy reclaim is a form of defragmentation as was slub 'defragmentation' (really a form of targeted reclaim). Hence, this is called 'compaction' to distinguish it from other forms of defragmentation.</i>"</p>\u000a<p>The core compaction patch explains that memory is compacted in a zone by relocating movable pages towards the end of the zone:</p>\u000a<blockquote><p>"A single compaction run involves a migration scanner and a free scanner.  Both scanners operate on pageblock-sized areas in the zone. The migration scanner starts at the bottom of the zone and searches for all movable pages within each area, isolating them onto a private list called migratelist.  The free scanner starts at the top of the zone and searches for suitable areas and consumes the free pages within making them available for the migration scanner. The pages isolated for migration are then migrated to the newly isolated free pages."</p></blockquote>\u000a<!-- google_ad_section_end --><p><a href="http://kerneltrap.org/Linux/Memory_Compaction" target="_blank">read more</a></p>
p235
sg15
NstRp236
sg19
(lp237
g1
(g2
g3
(dp238
g22
Vhttp://kerneltrap.org/Linux/Memory_Compaction
p239
sg11
g24
sg25
g26
stRp240
asg93
(lp241
g1
(g2
g3
(dp242
g96
Vcompacting memory
p243
sg98
Vhttp://kerneltrap.org/taxonomy/term/251
p244
sg100
NstRp245
ag1
(g2
g3
(dp246
g96
Vdefragmentation
p247
sg98
Vhttp://kerneltrap.org/taxonomy/term/866
p248
sg100
NstRp249
ag1
(g2
g3
(dp250
g96
VLinux
p251
sg98
Vhttp://kerneltrap.org/Linux
p252
sg100
NstRp253
ag1
(g2
g3
(dp254
g96
VMel Gorman
p255
sg98
Vhttp://kerneltrap.org/mel_gorman
p256
sg100
NstRp257
ag1
(g2
g3
(dp258
g96
Vmemory
p259
sg98
Vhttp://kerneltrap.org/memory
p260
sg100
NstRp261
ag1
(g2
g3
(dp262
g96
Vpatch
p263
sg98
Vhttp://kerneltrap.org/taxonomy/term/583
p264
sg100
NstRp265
ag1
(g2
g3
(dp266
g96
VRAM
p267
sg98
Vhttp://kerneltrap.org/taxonomy/term/477
p268
sg100
NstRp269
ag1
(g2
g3
(dp270
g96
VLinux news
p271
sg98
Vhttp://kerneltrap.org/news/linux
p272
sg100
NstRp273
asg30
g239
sg146
(lp274
g1
(g2
g3
(dtRp275
asS'author_detail'
p276
g1
(g2
g3
(dp277
g151
VJeremy
p278
stRp279
sg154
Vhttp://kerneltrap.org/55793 at http://kerneltrap.org
p280
sg156
g41
((I2010
I4
I3
I0
I11
I38
I5
I93
I0
t(dtRp281
sg29
VLinux: Memory Compaction
p282
sg159
g278
sS'comments'
p283
Vhttp://kerneltrap.org/Linux/Memory_Compaction#comments
p284
sg162
g235
sg163
I00
sS'title_detail'
p285
g1
(g2
g3
(dp286
g9
Vhttp://kerneltrap.org
p287
sg11
g12
sg13
g282
sg15
NstRp288
sg168
VSat, 03 Apr 2010 00:11:38 +0000
p289
sg76
(lp290
g171
aV*
ag172
astRp291
ag1
(g2
g3
(dp292
S'summary_detail'
p293
g1
(g2
g3
(dp294
g9
Vhttp://kerneltrap.org
p295
sg11
g34
sg13
V<div class="taxonomy-images"><a class="taxonomy-image-links" href="http://kerneltrap.org/news/linux"><img alt="Linux news" height="75" src="http://kerneltrap.org/files/category_pictures/K-Linux.gif" title="Linux news" width="75" /></a></div><!-- google_ad_section_start --><p>Arnd Bergmann noted that he's working on removing the <a href="http://kerneltrap.org/BKL">BKL</a> from the <a href="http://kerneltrap.org/Linux">Linux</a> kernel, "<i>I've spent some time continuing the work of the people on Cc and many others to remove the big kernel lock from Linux and I now have [a] bkl-removal branch in my git tree</i>".  He went on to explain that his branch is working, and lets him run the Linux kernel, "<i>on [a] quad-core machine with the only users of the BKL being mostly obscure device driver modules.</i>"  Arnd noted that this effort has a long history, "<i>the oldest patch in this series is roughly eight years old and is Willy's patch to remove the BKL from fs/locks.c, and I took a series of patches from Jan that removes it from most of the VFS.</i>"</p>\u000a<p>Arnd noted that his patch adds a global mutex to the TTY layer, which he called the 'Big TTY Mutex' and described as, "the basic idea here is to make recursive locking and the release-on-sleep explicit, so every mutex_lock, wait_event, workqueue_flush and schedule in the TTY layer now explicitly releases the BTM before blocking."  <a href="http://kerneltrap.org/Alan_Cox">Alan Cox</a> suggested that this portion of the patch was best dropped for now, "<i>it would be nice to get the other bits in first removing BKL from most of the kernel and building kernels which are non BKL except for the tty layer. That (after <a href="http://kerneltrap.org/Ingo_Molnar">Ingo</a>'s box from hell has run it a bit) would reasonably test the assertion that the tty layer has no BKL requirements that are driven by [code] external to tty layer code.</i>"  <a href="http://kerneltrap.org/Andrew_Morton">Andrew Morton</a> suggested that the patches be pushed upstream to their appropriate maintainers for an additional sanity check, "<i>Seems that there might be a few tricksy bits in here.  Please do push at least the non-obvious parts out to the relevant people.</i>"</p>\u000a<!-- google_ad_section_end --><p><a href="http://kerneltrap.org/Linux/Removing_The_Big_Kernel_Lock2" target="_blank">read more</a></p>
p296
sg15
NstRp297
sg19
(lp298
g1
(g2
g3
(dp299
g22
Vhttp://kerneltrap.org/Linux/Removing_The_Big_Kernel_Lock2
p300
sg11
g24
sg25
g26
stRp301
asg93
(lp302
g1
(g2
g3
(dp303
g96
VAlan Cox
p304
sg98
Vhttp://kerneltrap.org/Alan_Cox
p305
sg100
NstRp306
ag1
(g2
g3
(dp307
g96
VAndrew Morton
p308
sg98
Vhttp://kerneltrap.org/Andrew_Morton
p309
sg100
NstRp310
ag1
(g2
g3
(dp311
g96
VArnd Bergmann
p312
sg98
Vhttp://kerneltrap.org/taxonomy/term/1274
p313
sg100
NstRp314
ag1
(g2
g3
(dp315
g96
VBKL
p316
sg98
Vhttp://kerneltrap.org/BKL
p317
sg100
NstRp318
ag1
(g2
g3
(dp319
g96
VIngo Molnar
p320
sg98
Vhttp://kerneltrap.org/Ingo_Molnar
p321
sg100
NstRp322
ag1
(g2
g3
(dp323
g96
VLinux
p324
sg98
Vhttp://kerneltrap.org/Linux
p325
sg100
NstRp326
ag1
(g2
g3
(dp327
g96
VLinux news
p328
sg98
Vhttp://kerneltrap.org/news/linux
p329
sg100
NstRp330
asg30
g300
sg146
(lp331
g1
(g2
g3
(dtRp332
asS'author_detail'
p333
g1
(g2
g3
(dp334
g151
VJeremy
p335
stRp336
sg154
Vhttp://kerneltrap.org/55703 at http://kerneltrap.org
p337
sg156
g41
((I2010
I4
I1
I14
I52
I12
I3
I91
I0
t(dtRp338
sg29
VLinux: Removing The Big Kernel Lock
p339
sg159
g335
sS'comments'
p340
Vhttp://kerneltrap.org/Linux/Removing_The_Big_Kernel_Lock2#comments
p341
sg162
g296
sg163
I00
sS'title_detail'
p342
g1
(g2
g3
(dp343
g9
Vhttp://kerneltrap.org
p344
sg11
g12
sg13
g339
sg15
NstRp345
sg168
VThu, 01 Apr 2010 14:52:12 +0000
p346
sg76
(lp347
g171
aV*
ag172
astRp348
ag1
(g2
g3
(dp349
S'summary_detail'
p350
g1
(g2
g3
(dp351
g9
Vhttp://kerneltrap.org
p352
sg11
g34
sg13
V<div class="taxonomy-images"><a class="taxonomy-image-links" href="http://kerneltrap.org/taxonomy/term/182"><img alt="KernelTrap Changes and News" height="75" src="http://kerneltrap.org/files/category_pictures/K-trap.gif" title="KernelTrap changes and news." width="75" /></a></div><!-- google_ad_section_start --><p>KernelTrap has been updated to Drupal 6.  We're running a fair bit of custom code, so please let me know if you find anything broken or if any of your favorite features are missing.  And yes, this upgrade is the first step toward getting regular posts on the website again.</p>\u000a<!-- google_ad_section_end --><p><a href="http://kerneltrap.org/forum/website_updated" target="_blank">read more</a></p>
p353
sg15
NstRp354
sg19
(lp355
g1
(g2
g3
(dp356
g22
Vhttp://kerneltrap.org/forum/website_updated
p357
sg11
g24
sg25
g26
stRp358
asg93
(lp359
g1
(g2
g3
(dp360
g96
VDrupal
p361
sg98
Vhttp://kerneltrap.org/taxonomy/term/303
p362
sg100
NstRp363
ag1
(g2
g3
(dp364
g96
VKernelTrap
p365
sg98
Vhttp://kerneltrap.org/taxonomy/term/295
p366
sg100
NstRp367
ag1
(g2
g3
(dp368
g96
VKernelTrap Changes and News
p369
sg98
Vhttp://kerneltrap.org/taxonomy/term/182
p370
sg100
NstRp371
asg30
g357
sg146
(lp372
g1
(g2
g3
(dtRp373
asS'author_detail'
p374
g1
(g2
g3
(dp375
g151
VJeremy
p376
stRp377
sg154
Vhttp://kerneltrap.org/17273 at http://kerneltrap.org
p378
sg156
g41
((I2009
I7
I22
I4
I44
I1
I2
I203
I0
t(dtRp379
sg29
VWebsite Updated
p380
sg159
g376
sS'comments'
p381
Vhttp://kerneltrap.org/forum/website_updated#comments
p382
sg162
g353
sg163
I00
sS'title_detail'
p383
g1
(g2
g3
(dp384
g9
Vhttp://kerneltrap.org
p385
sg11
g12
sg13
g380
sg15
NstRp386
sg168
VWed, 22 Jul 2009 04:44:01 +0000
p387
sg76
(lp388
g171
aV*
ag172
astRp389
ag1
(g2
g3
(dp390
S'summary_detail'
p391
g1
(g2
g3
(dp392
g9
Vhttp://kerneltrap.org
p393
sg11
g34
sg13
V<div class="taxonomy-images"><a class="taxonomy-image-links" href="http://kerneltrap.org/news/linux"><img alt="Linux news" height="75" src="http://kerneltrap.org/files/category_pictures/K-Linux.gif" title="Linux news" width="75" /></a></div><!-- google_ad_section_start --><p><a href="http://git.kernel.org/?p=linux/kernel/git/torvalds/linux-2.6.git;a=blob;f=MAINTAINERS;h=3d29fa3898883a51626b527ab0f0b21badb815ce;hb=HEAD#l3859">Netfilter maintainer</a> Patrick McHardy <a href="http://kerneltrap.org/mailarchive/linux-netdev/2009/3/18/5188334">recently announced</a> a first alpha-release of nftables, slated to eventually replace iptables as the standard Linux packet filtering engine.  Nftables aims to simplify the kernel ABI, reduce code duplication, improve error reporting, and provide more efficient execution, storage and updates of filtering rules.  Patrick began with a high level overview of the three pieces that comprise the firewall, "<i>the kernel provides a netlink configuration interface, as well as runtime ruleset evaluation using a small classification language interpreter. libnl contains the low-level functions for communicating with the kernel, the nftables frontend is what the user interacts with.</i>"  An <a href="http://lwn.net/Articles/324989/">insightful overview</a> can be found on lwn.net.</p>\u000a<p>Patrick explained that data is represented internally in a generic fashion, "<i>meaning it's possible to use any matching feature (ranges, masks, set lookups etc.) with any kind of data.</i>"  He went on to add, "<i>the kernel doesn't have a distinction between matches and targets anymore, operations can be arbitrarily chained, fixing a common complaint that multiple rules are required to f.i. log and drop a packet. Terminal operations will stop evaluation of a rule, even if further operations are specified.</i>"  Speaking about the the userspace frontend, he noted, "<i>the classification language is based on a real grammar that is parsed by a bison-generated parser (currently, it might have to be replaced) and converted to a syntax tree.</i>"  Patrick continued, "<i>the frontend supports both dealing with only a single rule at a time for incremental operations, as well as parsing entire files. In the later case verification is performed on all rules and changes are only made after full validation. Currently not implemented, but planned, is transactional semantic where changes are rolled back when the kernel reports an error.</i>"</p>\u000a<!-- google_ad_section_end --><p><a href="http://kerneltrap.org/Linux/First_Release_Of_nftables" target="_blank">read more</a></p>
p394
sg15
NstRp395
sg19
(lp396
g1
(g2
g3
(dp397
g22
Vhttp://kerneltrap.org/Linux/First_Release_Of_nftables
p398
sg11
g24
sg25
g26
stRp399
asg93
(lp400
g1
(g2
g3
(dp401
g96
Viptables
p402
sg98
Vhttp://kerneltrap.org/taxonomy/term/488
p403
sg100
NstRp404
ag1
(g2
g3
(dp405
g96
VLinux
p406
sg98
Vhttp://kerneltrap.org/Linux
p407
sg100
NstRp408
ag1
(g2
g3
(dp409
g96
Vnftables
p410
sg98
Vhttp://kerneltrap.org/taxonomy/term/4163
p411
sg100
NstRp412
ag1
(g2
g3
(dp413
g96
Vpacket filter
p414
sg98
Vhttp://kerneltrap.org/packet_filter
p415
sg100
NstRp416
ag1
(g2
g3
(dp417
g96
VPatrick McHardy
p418
sg98
Vhttp://kerneltrap.org/taxonomy/term/4173
p419
sg100
NstRp420
ag1
(g2
g3
(dp421
g96
Vsecurity
p422
sg98
Vhttp://kerneltrap.org/security
p423
sg100
NstRp424
ag1
(g2
g3
(dp425
g96
VLinux news
p426
sg98
Vhttp://kerneltrap.org/news/linux
p427
sg100
NstRp428
asg30
g398
sg146
(lp429
g1
(g2
g3
(dtRp430
asS'author_detail'
p431
g1
(g2
g3
(dp432
g151
VJeremy
p433
stRp434
sg154
Vhttp://kerneltrap.org/55723 at http://kerneltrap.org
p435
sg156
g41
((I2009
I4
I1
I21
I5
I48
I2
I91
I0
t(dtRp436
sg29
VLinux: First Release Of nftables
p437
sg159
g433
sS'comments'
p438
Vhttp://kerneltrap.org/Linux/First_Release_Of_nftables#comments
p439
sg162
g394
sg163
I00
sS'title_detail'
p440
g1
(g2
g3
(dp441
g9
Vhttp://kerneltrap.org
p442
sg11
g12
sg13
g437
sg15
NstRp443
sg168
VWed, 01 Apr 2009 21:05:48 +0000
p444
sg76
(lp445
g171
aV*
ag172
astRp446
ag1
(g2
g3
(dp447
S'summary_detail'
p448
g1
(g2
g3
(dp449
g9
Vhttp://kerneltrap.org
p450
sg11
g34
sg13
V<div class="taxonomy-images"><a class="taxonomy-image-links" href="http://kerneltrap.org/news/linux"><img alt="Linux news" height="75" src="http://kerneltrap.org/files/category_pictures/K-Linux.gif" title="Linux news" width="75" /></a></div><!-- google_ad_section_start --><p>"<i>So yet another week, another -rc,</i>" began Linux creator, Linus Torvalds, <a href="http://kerneltrap.org/mailarchive/linux-kernel/2008/9/29/3450454">announcing the 2.6.27-rc8 Linux kernel</a>.  He continued, "<i>this one should be the last one: we're certainly not running out of regressions, but at the same time, at some point I just have to pick some point, and on the whole the regressions don't look _too_ scary. And -rc8 obviously does fix more of them.</i>"  Linus went on to note that most of the changes since -rc7 are small, "<i>and there aren't even a whole lot of them.</i>"</p>\u000a<p>Jiri Kosina cautioned that there is still an unknown bug affecting the e1000e driver currently in the 2.6.27 kernel, "<i>rendering the cards unusable for most of the i-am-not-a-hacker users (and remember, even Dave Airlie bricked his laptop completely to death, when trying to restore eeprom contents)</i>"  When asked how to duplicate the bug, Jiri noted that the inability to reliably reproduce the bug added to the difficulty in debugging the problem, "<i>apparently it is some kind of race, as it usually takes multiple cycles to trigger</i>".</p>\u000a<!-- google_ad_section_end --><p><a href="http://kerneltrap.org/Linux/2.6.27-rc8_This_One_Should_Be_The_Last_One" target="_blank">read more</a></p>
p451
sg15
NstRp452
sg19
(lp453
g1
(g2
g3
(dp454
g22
Vhttp://kerneltrap.org/Linux/2.6.27-rc8_This_One_Should_Be_The_Last_One
p455
sg11
g24
sg25
g26
stRp456
asg93
(lp457
g1
(g2
g3
(dp458
g96
V-rc
p459
sg98
Vhttp://kerneltrap.org/-rc
p460
sg100
NstRp461
ag1
(g2
g3
(dp462
g96
V-rc8
p463
sg98
Vhttp://kerneltrap.org/-rc8
p464
sg100
NstRp465
ag1
(g2
g3
(dp466
g96
V2.6.27
p467
sg98
Vhttp://kerneltrap.org/taxonomy/term/1305
p468
sg100
NstRp469
ag1
(g2
g3
(dp470
g96
V2.6.27-rc8
p471
sg98
Vhttp://kerneltrap.org/taxonomy/term/1327
p472
sg100
NstRp473
ag1
(g2
g3
(dp474
g96
VLinux
p475
sg98
Vhttp://kerneltrap.org/Linux
p476
sg100
NstRp477
ag1
(g2
g3
(dp478
g96
VLinux news
p479
sg98
Vhttp://kerneltrap.org/news/linux
p480
sg100
NstRp481
asg30
g455
sg146
(lp482
g1
(g2
g3
(dtRp483
asS'author_detail'
p484
g1
(g2
g3
(dp485
g151
VJeremy
p486
stRp487
sg154
Vhttp://kerneltrap.org/16626 at http://kerneltrap.org
p488
sg156
g41
((I2008
I9
I30
I15
I55
I51
I1
I274
I0
t(dtRp489
sg29
V2.6.27-rc8, "This One Should Be The Last One"
p490
sg159
g486
sS'comments'
p491
Vhttp://kerneltrap.org/Linux/2.6.27-rc8_This_One_Should_Be_The_Last_One#comments
p492
sg162
g451
sg163
I00
sS'title_detail'
p493
g1
(g2
g3
(dp494
g9
Vhttp://kerneltrap.org
p495
sg11
g12
sg13
g490
sg15
NstRp496
sg168
VTue, 30 Sep 2008 15:55:51 +0000
p497
sg76
(lp498
g171
aV*
ag172
astRp499
ag1
(g2
g3
(dp500
S'summary_detail'
p501
g1
(g2
g3
(dp502
g9
Vhttp://kerneltrap.org
p503
sg11
g34
sg13
V<!-- google_ad_section_start --><p>"The _real_ bug is clearly in the hardware design that allows you to brick those things without apparently even having a lock bit.  I'm hoping Intel doesn't treat this as just a software bug. Some hw designer should be thinking hard about which orifice they put their head up in."</p>\u000a<!-- google_ad_section_end -->
p504
sg15
NstRp505
sg19
(lp506
g1
(g2
g3
(dp507
g22
Vhttp://kerneltrap.org/Quote/The_Real_Bug
p508
sg11
g24
sg25
g26
stRp509
asg93
(lp510
g1
(g2
g3
(dp511
g96
Vbugs
p512
sg98
Vhttp://kerneltrap.org/bugs
p513
sg100
NstRp514
ag1
(g2
g3
(dp515
g96
VIntel
p516
sg98
Vhttp://kerneltrap.org/Intel
p517
sg100
NstRp518
ag1
(g2
g3
(dp519
g96
VLinus Torvalds
p520
sg98
Vhttp://kerneltrap.org/Linus_Torvalds
p521
sg100
NstRp522
ag1
(g2
g3
(dp523
g96
VLinux
p524
sg98
Vhttp://kerneltrap.org/Linux
p525
sg100
NstRp526
ag1
(g2
g3
(dp527
g96
Vquote
p528
sg98
Vhttp://kerneltrap.org/quote
p529
sg100
NstRp530
ag1
(g2
g3
(dp531
g96
VLinus Torvalds
p532
sg98
Vhttp://kerneltrap.org/taxonomy/term/1092
p533
sg100
NstRp534
ag1
(g2
g3
(dp535
g96
Vlinux-kernel
p536
sg98
Vhttp://kerneltrap.org/taxonomy/term/1094
p537
sg100
NstRp538
asg30
g508
sg146
(lp539
g1
(g2
g3
(dtRp540
asS'author_detail'
p541
g1
(g2
g3
(dp542
g151
VJeremy
p543
stRp544
sg154
Vhttp://kerneltrap.org/16625 at http://kerneltrap.org
p545
sg156
g41
((I2008
I9
I30
I15
I38
I36
I1
I274
I0
t(dtRp546
sg29
VQuote: The Real Bug
p547
sg159
g543
sS'comments'
p548
Vhttp://kerneltrap.org/Quote/The_Real_Bug#comments
p549
sg162
g504
sg163
I00
sS'title_detail'
p550
g1
(g2
g3
(dp551
g9
Vhttp://kerneltrap.org
p552
sg11
g12
sg13
g547
sg15
NstRp553
sg168
VTue, 30 Sep 2008 15:38:36 +0000
p554
sg76
(lp555
g171
aV*
ag172
astRp556
ag1
(g2
g3
(dp557
S'summary_detail'
p558
g1
(g2
g3
(dp559
g9
Vhttp://kerneltrap.org
p560
sg11
g34
sg13
V<div class="taxonomy-images"><a class="taxonomy-image-links" href="http://kerneltrap.org/news/linux"><img alt="Linux news" height="75" src="http://kerneltrap.org/files/category_pictures/K-Linux.gif" title="Linux news" width="75" /></a></div><!-- google_ad_section_start --><p>"<i>The patches most people hopefully care about tend to be small details,</i>" noted Linus Torvalds, announcing the 2.6.27-rc6 kernel.  He continued, "<i>and so more regressions should hopefully be closed now, some by just reverting the commits that caused breakage.  I don't think anything special merits explicit comment, but you can get a flavor for things by scanning the appended shortlog.</i>"  Earlier in the <a href="http://kerneltrap.org/mailarchive/linux-kernel/2008/9/10/3249494">announcement email</a>, Linus did note some specifics about which drivers caused the bulk of the patch:</p>\u000a<blockquote><p>"Same old deal - except it's been almost two weeks since -rc5. That said, the diff is actually about the same size, so I guess that means things are calming down. Most of the diff (bulk-wise) is updates to the new gspca (standard USB webcam) driver, although some of it is also removal of the dead miropcm20* driver."</p></blockquote>\u000a<!-- google_ad_section_end --><p><a href="http://kerneltrap.org/node/16577" target="_blank">read more</a></p>
p561
sg15
NstRp562
sg19
(lp563
g1
(g2
g3
(dp564
g22
Vhttp://kerneltrap.org/node/16577
p565
sg11
g24
sg25
g26
stRp566
asg93
(lp567
g1
(g2
g3
(dp568
g96
V-rc
p569
sg98
Vhttp://kerneltrap.org/-rc
p570
sg100
NstRp571
ag1
(g2
g3
(dp572
g96
V-rc6
p573
sg98
Vhttp://kerneltrap.org/-rc6
p574
sg100
NstRp575
ag1
(g2
g3
(dp576
g96
V2.6.27
p577
sg98
Vhttp://kerneltrap.org/taxonomy/term/1305
p578
sg100
NstRp579
ag1
(g2
g3
(dp580
g96
V2.6.27-rc6
p581
sg98
Vhttp://kerneltrap.org/taxonomy/term/1326
p582
sg100
NstRp583
ag1
(g2
g3
(dp584
g96
VLinus Torvalds
p585
sg98
Vhttp://kerneltrap.org/Linus_Torvalds
p586
sg100
NstRp587
ag1
(g2
g3
(dp588
g96
VLinux
p589
sg98
Vhttp://kerneltrap.org/Linux
p590
sg100
NstRp591
ag1
(g2
g3
(dp592
g96
VLinux news
p593
sg98
Vhttp://kerneltrap.org/news/linux
p594
sg100
NstRp595
asg30
g565
sg146
(lp596
g1
(g2
g3
(dtRp597
asS'author_detail'
p598
g1
(g2
g3
(dp599
g151
VJeremy
p600
stRp601
sg154
Vhttp://kerneltrap.org/16577 at http://kerneltrap.org
p602
sg156
g41
((I2008
I9
I12
I22
I42
I58
I4
I256
I0
t(dtRp603
sg29
V2.6.27-rc6, "Things Are Calming Down"
p604
sg159
g600
sS'comments'
p605
Vhttp://kerneltrap.org/node/16577#comments
p606
sg162
g561
sg163
I00
sS'title_detail'
p607
g1
(g2
g3
(dp608
g9
Vhttp://kerneltrap.org
p609
sg11
g12
sg13
g604
sg15
NstRp610
sg168
VFri, 12 Sep 2008 22:42:58 +0000
p611
sg76
(lp612
g171
aV*
ag172
astRp613
ag1
(g2
g3
(dp614
S'summary_detail'
p615
g1
(g2
g3
(dp616
g9
Vhttp://kerneltrap.org
p617
sg11
g34
sg13
V<!-- google_ad_section_start --><p>"Some secure protocols like SSH send encrypted keystrokes as they're typed.  By doing timing analysis you can figure out which keys the user probably typed (keys that are physically close together on a keyboard can be typed faster).  A careful analysis can reveal the length of passwords and probably some of [the] password itself."</p>\u000a<!-- google_ad_section_end -->
p618
sg15
NstRp619
sg19
(lp620
g1
(g2
g3
(dp621
g22
Vhttp://kerneltrap.org/Quote/Careful_Analysis
p622
sg11
g24
sg25
g26
stRp623
asg93
(lp624
g1
(g2
g3
(dp625
g96
VKevin Neff
p626
sg98
Vhttp://kerneltrap.org/taxonomy/term/1324
p627
sg100
NstRp628
ag1
(g2
g3
(dp629
g96
VOpenSSH
p630
sg98
Vhttp://kerneltrap.org/OpenSSH
p631
sg100
NstRp632
ag1
(g2
g3
(dp633
g96
Vquote
p634
sg98
Vhttp://kerneltrap.org/quote
p635
sg100
NstRp636
ag1
(g2
g3
(dp637
g96
VKevin Neff
p638
sg98
Vhttp://kerneltrap.org/taxonomy/term/1325
p639
sg100
NstRp640
ag1
(g2
g3
(dp641
g96
Vopenbsd-misc
p642
sg98
Vhttp://kerneltrap.org/taxonomy/term/1100
p643
sg100
NstRp644
asg30
g622
sg146
(lp645
g1
(g2
g3
(dtRp646
asS'author_detail'
p647
g1
(g2
g3
(dp648
g151
VJeremy
p649
stRp650
sg154
Vhttp://kerneltrap.org/16576 at http://kerneltrap.org
p651
sg156
g41
((I2008
I9
I12
I22
I31
I29
I4
I256
I0
t(dtRp652
sg29
VQuote: Careful Analysis
p653
sg159
g649
sS'comments'
p654
Vhttp://kerneltrap.org/Quote/Careful_Analysis#comments
p655
sg162
g618
sg163
I00
sS'title_detail'
p656
g1
(g2
g3
(dp657
g9
Vhttp://kerneltrap.org
p658
sg11
g12
sg13
g653
sg15
NstRp659
sg168
VFri, 12 Sep 2008 22:31:29 +0000
p660
sg76
(lp661
g171
aV*
ag172
astRp662
asS'namespaces'
p663
(dp664
S'dc'
p665
Vhttp://purl.org/dc/elements/1.1/
p666
sstRp667
.