ccopy_reg
_reconstructor
p1
(cfeedparser
FeedParserDict
p2
c__builtin__
dict
p3
(dp4
S'feed'
p5
g1
(g2
g3
(dp6
S'info'
p7
VThis is an XML content feed. It is intended to be viewed in a newsreader or syndicated to another site, subject to copyright and fair use.
p8
sS'subtitle'
p9
VFlash Animations, Daily Comics and more!
p10
sS'published_parsed'
p11
ctime
struct_time
p12
((I2013
I3
I24
I22
I48
I17
I6
I83
I0
t(dtRp13
sS'generator'
p14
Vhttp://wordpress.org/?v=1.5.1.3
p15
sS'title'
p16
VExplosm.net
p17
sS'links'
p18
(lp19
g1
(g2
g3
(dp20
S'href'
p21
Vhttp://www.explosm.net
p22
sS'type'
p23
Vtext/html
p24
sS'rel'
p25
Valternate
p26
stRp27
ag1
(g2
g3
(dp28
S'href'
p29
Vhttp://feeds.feedburner.com/Explosm
p30
sS'type'
p31
Vapplication/rss+xml
p32
sS'rel'
p33
Vself
p34
stRp35
ag1
(g2
g3
(dp36
S'href'
p37
Vhttp://pubsubhubbub.appspot.com/
p38
sg23
g24
sS'rel'
p39
Vhub
p40
stRp41
asS'feedburner_info'
p42
(dp43
S'uri'
p44
Vexplosm
p45
ssS'generator_detail'
p46
g1
(g2
g3
(dp47
S'name'
p48
g15
stRp49
sS'language'
p50
Ven
p51
sS'title_detail'
p52
g1
(g2
g3
(dp53
S'base'
p54
Vhttp://feeds.feedburner.com/Explosm
p55
sg23
Vtext/plain
p56
sg50
NsS'value'
p57
g17
stRp58
sS'info_detail'
p59
g1
(g2
g3
(dp60
g54
Vhttp://feeds.feedburner.com/Explosm
p61
sg23
Vtext/plain
p62
sg50
Nsg57
g8
stRp63
sS'link'
p64
g22
sS'published'
p65
VSun, 24 Mar 2013 22:48:17 +0000
p66
sS'subtitle_detail'
p67
g1
(g2
g3
(dp68
g54
Vhttp://feeds.feedburner.com/Explosm
p69
sg23
Vtext/html
p70
sg50
Nsg57
g10
stRp71
stRp72
sS'status'
p73
I200
sS'updated'
p74
S'Mon, 25 Mar 2013 05:48:35 GMT'
p75
sS'updated_parsed'
p76
g12
((I2013
I3
I25
I5
I48
I35
I0
I84
I0
t(dtRp77
sS'encoding'
p78
VUTF-8
p79
sS'bozo'
p80
I0
sS'entries'
p81
(lp82
g1
(g2
g3
(dp83
S'summary_detail'
p84
g1
(g2
g3
(dp85
g54
Vhttp://feeds.feedburner.com/Explosm
p86
sg23
g70
sg50
Nsg57
VNew Cyanide and Happiness Comic.
p87
stRp88
sg11
g12
((I2013
I3
I24
I0
I0
I0
I6
I83
I0
t(dtRp89
sg18
(lp90
g1
(g2
g3
(dp91
g21
Vhttp://www.explosm.net/comics/3119/
p92
sg23
g24
sg25
g26
stRp93
asg16
V03.24.2013
p94
sS'tags'
p95
(lp96
g1
(g2
g3
(dp97
S'term'
p98
VComics
p99
sS'scheme'
p100
NsS'label'
p101
NstRp102
asS'summary'
p103
g87
sS'guidislink'
p104
I00
sS'title_detail'
p105
g1
(g2
g3
(dp106
g54
Vhttp://feeds.feedburner.com/Explosm
p107
sg23
g56
sg50
Nsg57
g94
stRp108
sg64
g92
sg65
VSun, 24 Mar 2013 00:00:00 +0000
p109
sS'canto_state'
p110
(lp111
VExplosm.net
p112
aV*
aS'read'
p113
asS'id'
p114
Vhttp://www.explosm.net/comics/3119/
p115
stRp116
ag1
(g2
g3
(dp117
S'summary_detail'
p118
g1
(g2
g3
(dp119
g54
Vhttp://feeds.feedburner.com/Explosm
p120
sg23
g70
sg50
Nsg57
VNew Cyanide and Happiness Comic.
p121
stRp122
sg11
g12
((I2013
I3
I23
I0
I0
I0
I5
I82
I0
t(dtRp123
sg18
(lp124
g1
(g2
g3
(dp125
g21
Vhttp://www.explosm.net/comics/3118/
p126
sg23
g24
sg25
g26
stRp127
asg16
V03.23.2013
p128
sg95
(lp129
g1
(g2
g3
(dp130
g98
VComics
p131
sg100
Nsg101
NstRp132
asg103
g121
sg104
I00
sS'title_detail'
p133
g1
(g2
g3
(dp134
g54
Vhttp://feeds.feedburner.com/Explosm
p135
sg23
g56
sg50
Nsg57
g128
stRp136
sg64
g126
sg65
VSat, 23 Mar 2013 00:00:00 +0000
p137
sg110
(lp138
g112
aV*
ag113
asg114
Vhttp://www.explosm.net/comics/3118/
p139
stRp140
ag1
(g2
g3
(dp141
S'summary_detail'
p142
g1
(g2
g3
(dp143
g54
Vhttp://feeds.feedburner.com/Explosm
p144
sg23
g70
sg50
Nsg57
VNew Cyanide and Happiness Comic.
p145
stRp146
sg11
g12
((I2013
I3
I22
I0
I0
I0
I4
I81
I0
t(dtRp147
sg18
(lp148
g1
(g2
g3
(dp149
g21
Vhttp://www.explosm.net/comics/3117/
p150
sg23
g24
sg25
g26
stRp151
asg16
V03.22.2013
p152
sg95
(lp153
g1
(g2
g3
(dp154
g98
VComics
p155
sg100
Nsg101
NstRp156
asg103
g145
sg104
I00
sS'title_detail'
p157
g1
(g2
g3
(dp158
g54
Vhttp://feeds.feedburner.com/Explosm
p159
sg23
g56
sg50
Nsg57
g152
stRp160
sg64
g150
sg65
VFri, 22 Mar 2013 00:00:00 +0000
p161
sg110
(lp162
g112
aV*
ag113
asg114
Vhttp://www.explosm.net/comics/3117/
p163
stRp164
ag1
(g2
g3
(dp165
S'summary_detail'
p166
g1
(g2
g3
(dp167
g54
Vhttp://feeds.feedburner.com/Explosm
p168
sg23
g70
sg50
Nsg57
VNew Cyanide and Happiness Comic.
p169
stRp170
sg11
g12
((I2013
I3
I21
I0
I0
I0
I3
I80
I0
t(dtRp171
sg18
(lp172
g1
(g2
g3
(dp173
g21
Vhttp://www.explosm.net/comics/3116/
p174
sg23
g24
sg25
g26
stRp175
asg16
V03.21.2013
p176
sg95
(lp177
g1
(g2
g3
(dp178
g98
VComics
p179
sg100
Nsg101
NstRp180
asg103
g169
sg104
I00
sS'title_detail'
p181
g1
(g2
g3
(dp182
g54
Vhttp://feeds.feedburner.com/Explosm
p183
sg23
g56
sg50
Nsg57
g176
stRp184
sg64
g174
sg65
VThu, 21 Mar 2013 00:00:00 +0000
p185
sg110
(lp186
g112
aV*
ag113
asg114
Vhttp://www.explosm.net/comics/3116/
p187
stRp188
ag1
(g2
g3
(dp189
S'summary_detail'
p190
g1
(g2
g3
(dp191
g54
Vhttp://feeds.feedburner.com/Explosm
p192
sg23
g70
sg50
Nsg57
VNew Cyanide and Happiness Comic.
p193
stRp194
sg11
g12
((I2013
I3
I20
I0
I0
I0
I2
I79
I0
t(dtRp195
sg18
(lp196
g1
(g2
g3
(dp197
g21
Vhttp://www.explosm.net/comics/3115/
p198
sg23
g24
sg25
g26
stRp199
asg16
V03.20.2013
p200
sg95
(lp201
g1
(g2
g3
(dp202
g98
VComics
p203
sg100
Nsg101
NstRp204
asg103
g193
sg104
I00
sS'title_detail'
p205
g1
(g2
g3
(dp206
g54
Vhttp://feeds.feedburner.com/Explosm
p207
sg23
g56
sg50
Nsg57
g200
stRp208
sg64
g198
sg65
VWed, 20 Mar 2013 00:00:00 +0000
p209
sg110
(lp210
g112
aV*
ag113
asg114
Vhttp://www.explosm.net/comics/3115/
p211
stRp212
ag1
(g2
g3
(dp213
S'summary_detail'
p214
g1
(g2
g3
(dp215
g54
Vhttp://feeds.feedburner.com/Explosm
p216
sg23
g70
sg50
Nsg57
VNew Cyanide and Happiness Comic.
p217
stRp218
sg11
g12
((I2013
I3
I19
I0
I0
I0
I1
I78
I0
t(dtRp219
sg18
(lp220
g1
(g2
g3
(dp221
g21
Vhttp://www.explosm.net/comics/3114/
p222
sg23
g24
sg25
g26
stRp223
asg16
V03.19.2013
p224
sg95
(lp225
g1
(g2
g3
(dp226
g98
VComics
p227
sg100
Nsg101
NstRp228
asg103
g217
sg104
I00
sS'title_detail'
p229
g1
(g2
g3
(dp230
g54
Vhttp://feeds.feedburner.com/Explosm
p231
sg23
g56
sg50
Nsg57
g224
stRp232
sg64
g222
sg65
VTue, 19 Mar 2013 00:00:00 +0000
p233
sg110
(lp234
g112
aV*
ag113
asg114
Vhttp://www.explosm.net/comics/3114/
p235
stRp236
ag1
(g2
g3
(dp237
S'summary_detail'
p238
g1
(g2
g3
(dp239
g54
Vhttp://feeds.feedburner.com/Explosm
p240
sg23
g70
sg50
Nsg57
VNew Cyanide and Happiness Comic.
p241
stRp242
sg11
g12
((I2013
I3
I18
I0
I0
I0
I0
I77
I0
t(dtRp243
sg18
(lp244
g1
(g2
g3
(dp245
g21
Vhttp://www.explosm.net/comics/3113/
p246
sg23
g24
sg25
g26
stRp247
asg16
V03.18.2013
p248
sg95
(lp249
g1
(g2
g3
(dp250
g98
VComics
p251
sg100
Nsg101
NstRp252
asg103
g241
sg104
I00
sS'title_detail'
p253
g1
(g2
g3
(dp254
g54
Vhttp://feeds.feedburner.com/Explosm
p255
sg23
g56
sg50
Nsg57
g248
stRp256
sg64
g246
sg65
VMon, 18 Mar 2013 00:00:00 +0000
p257
sg110
(lp258
g112
aV*
ag113
asg114
Vhttp://www.explosm.net/comics/3113/
p259
stRp260
ag1
(g2
g3
(dp261
S'summary_detail'
p262
g1
(g2
g3
(dp263
g54
Vhttp://feeds.feedburner.com/Explosm
p264
sg23
g70
sg50
Nsg57
VNews
p265
stRp266
sg11
g12
((I2013
I3
I17
I9
I53
I18
I6
I76
I0
t(dtRp267
sg18
(lp268
g1
(g2
g3
(dp269
g21
Vhttp://www.explosm.net/#20130317
p270
sg23
g24
sg25
g26
stRp271
asg16
VNEWS: We did it? We did it!!
p272
sg95
(lp273
g1
(g2
g3
(dp274
g98
VExplosm
p275
sg100
Nsg101
NstRp276
asg103
g265
sg104
I00
sS'title_detail'
p277
g1
(g2
g3
(dp278
g54
Vhttp://feeds.feedburner.com/Explosm
p279
sg23
g56
sg50
Nsg57
g272
stRp280
sg64
g270
sg65
VSun, 17 Mar 2013 09:53:18 +0000
p281
sg110
(lp282
g112
aV*
ag113
asg114
Vhttp://www.explosm.net/#20130317
p283
stRp284
ag1
(g2
g3
(dp285
S'summary_detail'
p286
g1
(g2
g3
(dp287
g54
Vhttp://feeds.feedburner.com/Explosm
p288
sg23
g70
sg50
Nsg57
VNew Cyanide and Happiness Comic.
p289
stRp290
sg11
g12
((I2013
I3
I17
I0
I0
I0
I6
I76
I0
t(dtRp291
sg18
(lp292
g1
(g2
g3
(dp293
g21
Vhttp://www.explosm.net/comics/3112/
p294
sg23
g24
sg25
g26
stRp295
asg16
V03.17.2013
p296
sg95
(lp297
g1
(g2
g3
(dp298
g98
VComics
p299
sg100
Nsg101
NstRp300
asg103
g289
sg104
I00
sS'title_detail'
p301
g1
(g2
g3
(dp302
g54
Vhttp://feeds.feedburner.com/Explosm
p303
sg23
g56
sg50
Nsg57
g296
stRp304
sg64
g294
sg65
VSun, 17 Mar 2013 00:00:00 +0000
p305
sg110
(lp306
g112
aV*
ag113
asg114
Vhttp://www.explosm.net/comics/3112/
p307
stRp308
ag1
(g2
g3
(dp309
S'summary_detail'
p310
g1
(g2
g3
(dp311
g54
Vhttp://feeds.feedburner.com/Explosm
p312
sg23
g70
sg50
Nsg57
VNew Cyanide and Happiness Comic.
p313
stRp314
sg11
g12
((I2013
I3
I16
I0
I0
I0
I5
I75
I0
t(dtRp315
sg18
(lp316
g1
(g2
g3
(dp317
g21
Vhttp://www.explosm.net/comics/3111/
p318
sg23
g24
sg25
g26
stRp319
asg16
V03.16.2013
p320
sg95
(lp321
g1
(g2
g3
(dp322
g98
VComics
p323
sg100
Nsg101
NstRp324
asg103
g313
sg104
I00
sS'title_detail'
p325
g1
(g2
g3
(dp326
g54
Vhttp://feeds.feedburner.com/Explosm
p327
sg23
g56
sg50
Nsg57
g320
stRp328
sg64
g318
sg65
VSat, 16 Mar 2013 00:00:00 +0000
p329
sg110
(lp330
g112
aV*
ag113
asg114
Vhttp://www.explosm.net/comics/3111/
p331
stRp332
asS'canto_update'
p333
F1364190820.275532
sS'headers'
p334
(dp335
S'x-xss-protection'
p336
S'1; mode=block'
p337
sS'x-content-type-options'
p338
S'nosniff'
p339
sS'expires'
p340
S'Mon, 25 Mar 2013 05:53:38 GMT'
p341
sS'server'
p342
S'GSE'
p343
sS'last-modified'
p344
g75
sS'connection'
p345
S'close'
p346
sS'etag'
p347
S'r/wTiwOKbzKn0rwWZwxtYWiWw1o'
p348
sS'cache-control'
p349
S'private, max-age=0'
p350
sS'date'
p351
S'Mon, 25 Mar 2013 05:53:38 GMT'
p352
sS'content-type'
p353
S'text/xml; charset=UTF-8'
p354
ssS'etag'
p355
Vr/wTiwOKbzKn0rwWZwxtYWiWw1o
p356
sg110
(lp357
sg21
Vhttp://feeds.feedburner.com/Explosm
p358
sS'version'
p359
Vrss20
p360
sS'canto_version'
p361
(I0
I7
I10
tp362
sS'namespaces'
p363
(dp364
S''
Vhttp://www.w3.org/2005/Atom
p365
sS'feedburner'
p366
Vhttp://rssnamespace.org/feedburner/ext/1.0
p367
sstRp368
.