ccopy_reg
_reconstructor
p1
(cfeedparser
FeedParserDict
p2
c__builtin__
dict
p3
(dp4
S'feed'
p5
g1
(g2
g3
(dp6
S'updated'
p7
V2013-03-22T12:10:33Z
p8
sS'subtitle'
p9
VLinuxInsider -- "Linux News & Information from Around the World"
p10
sS'updated_parsed'
p11
ctime
struct_time
p12
((I2013
I3
I22
I12
I10
I33
I4
I81
I0
t(dtRp13
sS'links'
p14
(lp15
g1
(g2
g3
(dp16
S'href'
p17
Vhttp://www.linuxinsider.com
p18
sS'type'
p19
Vtext/html
p20
sS'rel'
p21
Valternate
p22
stRp23
asS'tags'
p24
(lp25
g1
(g2
g3
(dp26
S'term'
p27
VLinuxInsider -- "Linux News & Information from Around the World"
p28
sS'scheme'
p29
NsS'label'
p30
NstRp31
asS'image'
p32
g1
(g2
g3
(dp33
S'title_detail'
p34
g1
(g2
g3
(dp35
S'base'
p36
Vhttp://ectnews.com.feedsportal.com/c/34520/f/632001/index.rss
p37
sg19
Vtext/plain
p38
sS'language'
p39
NsS'value'
p40
VLinuxInsider
p41
stRp42
sg17
Vhttp://www.linuxinsider.com/images/rss/lni_100x36.jpg
p43
sS'link'
p44
Vhttp://www.linuxinsider.com
p45
sg14
(lp46
g1
(g2
g3
(dp47
g17
g45
sg19
g20
sg21
g22
stRp48
asS'title'
p49
g41
stRp50
sS'ttl'
p51
V2
sg44
g18
sS'authors'
p52
(lp53
g1
(g2
g3
(dtRp54
asS'rights_detail'
p55
g1
(g2
g3
(dp56
g36
Vhttp://ectnews.com.feedsportal.com/c/34520/f/632001/index.rss
p57
sg19
Vtext/plain
p58
sg39
Nsg40
VCopyright 2009
p59
stRp60
sS'publisher_detail'
p61
g1
(g2
g3
(dp62
S'name'
p63
VECT News Network
p64
stRp65
sS'author_detail'
p66
g1
(g2
g3
(dp67
g63
VECT News Network
p68
stRp69
sS'sy_updatebase'
p70
V2013-03-22T12:10:33Z
p71
sS'publisher'
p72
g64
sS'published_parsed'
p73
g12
((I2013
I3
I22
I12
I10
I33
I4
I81
I0
t(dtRp74
sg39
Ven-us
p75
sS'author'
p76
g68
sS'rights'
p77
g59
sS'subtitle_detail'
p78
g1
(g2
g3
(dp79
g36
Vhttp://ectnews.com.feedsportal.com/c/34520/f/632001/index.rss
p80
sg19
Vtext/html
p81
sg39
Nsg40
g10
stRp82
sS'title_detail'
p83
g1
(g2
g3
(dp84
g36
Vhttp://ectnews.com.feedsportal.com/c/34520/f/632001/index.rss
p85
sg19
g38
sg39
Nsg40
VLinuxInsider
p86
stRp87
sS'published'
p88
VFri, 22 Mar 2013 12:10:33 GMT
p89
sS'sy_updateperiod'
p90
Vhourly
p91
sg49
g86
sS'sy_updatefrequency'
p92
V1
stRp93
sS'status'
p94
I200
sg7
S'Fri, 22 Mar 2013 12:00:00 GMT'
p95
sg11
g12
((I2013
I3
I22
I12
I0
I0
I4
I81
I0
t(dtRp96
sS'encoding'
p97
VUTF-8
p98
sS'bozo'
p99
I0
sS'entries'
p100
(lp101
g1
(g2
g3
(dp102
S'summary_detail'
p103
g1
(g2
g3
(dp104
g36
Vhttp://ectnews.com.feedsportal.com/c/34520/f/632001/index.rss
p105
sg19
g81
sg39
Nsg40
VThe early-90s Windows 3.11 operating system offered a graphical user interface that was a breakthrough for me. It was, in fact, my first GUI. I'd been using command-line, error-prone MS-DOS for two or three years before that, and it was a delight to suddenly be able to maximize screens, switch programs, and point around with a mouse, after living with the syntactically regimented MS-DOS.<img border="0" height="1" src="http://ectnews.com.feedsportal.com/c/34520/f/632001/s/29de82b7/mf.gif" width="1" /><br /><br /><a href="http://da.feedsportal.com/r/161393889112/u/0/f/632001/c/34520/s/29de82b7/kg/355/a2.htm"><img border="0" src="http://da.feedsportal.com/r/161393889112/u/0/f/632001/c/34520/s/29de82b7/kg/355/a2.img" /></a><img border="0" height="1" src="http://pi.feedsportal.com/r/161393889112/u/0/f/632001/c/34520/s/29de82b7/kg/355/a2t.img" width="1" />
p106
stRp107
sg11
g12
((I2013
I3
I22
I12
I0
I0
I4
I81
I0
t(dtRp108
sg14
(lp109
g1
(g2
g3
(dp110
g17
Vhttp://ectnews.com.feedsportal.com/c/34520/f/632001/s/29de82b7/l/0L0Slinuxinsider0N0Crsstory0C775970Bhtml/story01.htm
p111
sg19
g20
sg21
g22
stRp112
asg24
(lp113
g1
(g2
g3
(dp114
g27
VReviews
p115
sg29
Nsg30
NstRp116
asg7
V2013-03-22T12:00:00Z
p117
sg44
g111
sg52
(lp118
g1
(g2
g3
(dtRp119
asS'author_detail'
p120
g1
(g2
g3
(dp121
g63
VPatrick Nelson
p122
stRp123
sS'id'
p124
Vhttp://ectnews.com.feedsportal.com/c/34520/f/632001/s/29de82b7/l/0L0Slinuxinsider0N0Crsstory0C775970Bhtml/story01.htm
p125
sg73
g12
((I2013
I3
I22
I12
I0
I0
I4
I81
I0
t(dtRp126
sg49
VPie Control Pro Is a GUI Delight
p127
sg76
g122
sS'summary'
p128
g106
sS'content'
p129
(lp130
g1
(g2
g3
(dp131
g36
Vhttp://ectnews.com.feedsportal.com/c/34520/f/632001/index.rss
p132
sg19
Vtext/html
p133
sg39
Nsg40
V<a href="http://www.linuxinsider.com/rsstory/77597.html"><img align="left" alt="" border="0" hspace="7" src="http://www.linuxinsider.com/images/rw285827/graphical-user-interface" /></a> The early-90s Windows 3.11 operating system offered a graphical user interface that was a breakthrough for me. It was, in fact, my first GUI. I'd been using command-line, error-prone MS-DOS for two or three years before that, and it was a delight to suddenly be able to maximize screens, switch programs, and point around with a mouse, after living with the syntactically regimented MS-DOS. I bought a new laptop then to coddle this exciting visual operating system, junking my aging, redundant command-line clamshell. <img border="0" height="1" src="http://ectnews.com.feedsportal.com/c/34520/f/632001/s/29de82b7/mf.gif" width="1" /><br /><br /><a href="http://da.feedsportal.com/r/161393889112/u/0/f/632001/c/34520/s/29de82b7/kg/355/a2.htm"><img border="0" src="http://da.feedsportal.com/r/161393889112/u/0/f/632001/c/34520/s/29de82b7/kg/355/a2.img" /></a><img border="0" height="1" src="http://pi.feedsportal.com/r/161393889112/u/0/f/632001/c/34520/s/29de82b7/kg/355/a2t.img" width="1" />
p134
stRp135
asS'guidislink'
p136
I00
sS'title_detail'
p137
g1
(g2
g3
(dp138
g36
Vhttp://ectnews.com.feedsportal.com/c/34520/f/632001/index.rss
p139
sg19
g38
sg39
Nsg40
g127
stRp140
sg88
VFri, 22 Mar 2013 12:00:00 GMT
p141
sS'canto_state'
p142
(lp143
VLinuxInsider
p144
aV*
aS'read'
p145
astRp146
ag1
(g2
g3
(dp147
S'summary_detail'
p148
g1
(g2
g3
(dp149
g36
Vhttp://ectnews.com.feedsportal.com/c/34520/f/632001/index.rss
p150
sg19
g81
sg39
Nsg40
VThere's no denying that those of us here in the Linux community see our fair share of ups and downs in any given week or month, as events unfold that either advance or set back our favorite operating system. Sometimes, though, it's difficult not to be amazed by the way things often balance out "Even Steven" -- much the way they did for Jerry Seinfeld way back when.<img border="0" height="1" src="http://ectnews.com.feedsportal.com/c/34520/f/632001/s/29d32fe5/mf.gif" width="1" /><br /><br /><a href="http://da.feedsportal.com/r/161393892858/u/0/f/632001/c/34520/s/29d32fe5/kg/355/a2.htm"><img border="0" src="http://da.feedsportal.com/r/161393892858/u/0/f/632001/c/34520/s/29d32fe5/kg/355/a2.img" /></a><img border="0" height="1" src="http://pi.feedsportal.com/r/161393892858/u/0/f/632001/c/34520/s/29d32fe5/kg/355/a2t.img" width="1" />
p151
stRp152
sg11
g12
((I2013
I3
I21
I12
I0
I0
I3
I80
I0
t(dtRp153
sg14
(lp154
g1
(g2
g3
(dp155
g17
Vhttp://ectnews.com.feedsportal.com/c/34520/f/632001/s/29d32fe5/l/0L0Slinuxinsider0N0Crsstory0C775950Bhtml/story01.htm
p156
sg19
g20
sg21
g22
stRp157
asg24
(lp158
g1
(g2
g3
(dp159
g27
VCommunity
p160
sg29
Nsg30
NstRp161
asg7
V2013-03-21T12:00:00Z
p162
sg44
g156
sg52
(lp163
g1
(g2
g3
(dtRp164
asS'author_detail'
p165
g1
(g2
g3
(dp166
g63
VKatherine Noyes
p167
stRp168
sg124
Vhttp://ectnews.com.feedsportal.com/c/34520/f/632001/s/29d32fe5/l/0L0Slinuxinsider0N0Crsstory0C775950Bhtml/story01.htm
p169
sg73
g12
((I2013
I3
I21
I12
I0
I0
I3
I80
I0
t(dtRp170
sg49
VMac and Back Again
p171
sg76
g167
sg128
g151
sg129
(lp172
g1
(g2
g3
(dp173
g36
Vhttp://ectnews.com.feedsportal.com/c/34520/f/632001/index.rss
p174
sg19
g133
sg39
Nsg40
V<a href="http://www.linuxinsider.com/rsstory/77595.html"><img align="left" alt="" border="0" hspace="7" src="http://www.linuxinsider.com/images/rw82013/mac-linux-desktop" /></a> There's no denying that those of us here in the Linux community see our fair share of ups and downs in any given week or month, as events unfold that either advance or set back our favorite operating system. Sometimes, though, it's difficult not to be amazed by the way things often balance out "Even Steven" -- much the way they did for Jerry Seinfeld way back when. Case in point? Just the other week, we were bemoaning the departure of GNOME cofounder Miguel de Icaza, who recently announced that he had abandoned desktop Linux in favor of Apple's Mac platform. Now, what should we see just days later? <img border="0" height="1" src="http://ectnews.com.feedsportal.com/c/34520/f/632001/s/29d32fe5/mf.gif" width="1" /><br /><br /><a href="http://da.feedsportal.com/r/161393892858/u/0/f/632001/c/34520/s/29d32fe5/kg/355/a2.htm"><img border="0" src="http://da.feedsportal.com/r/161393892858/u/0/f/632001/c/34520/s/29d32fe5/kg/355/a2.img" /></a><img border="0" height="1" src="http://pi.feedsportal.com/r/161393892858/u/0/f/632001/c/34520/s/29d32fe5/kg/355/a2t.img" width="1" />
p175
stRp176
asg136
I00
sS'title_detail'
p177
g1
(g2
g3
(dp178
g36
Vhttp://ectnews.com.feedsportal.com/c/34520/f/632001/index.rss
p179
sg19
g38
sg39
Nsg40
g171
stRp180
sg88
VThu, 21 Mar 2013 12:00:00 GMT
p181
sg142
(lp182
g144
aV*
ag145
astRp183
ag1
(g2
g3
(dp184
S'summary_detail'
p185
g1
(g2
g3
(dp186
g36
Vhttp://ectnews.com.feedsportal.com/c/34520/f/632001/index.rss
p187
sg19
g81
sg39
Nsg40
VIf you package e-books in the EPUB format, one of the handiest editing tools available is Sigil. The growing interest in mobile apps and e-reader devices such as Amazon's Kindle Fire and Barnes & Noble's Nook is fueling the e-book business for both reading consumers and authors.<img border="0" height="1" src="http://ectnews.com.feedsportal.com/c/34520/f/632001/s/29c7f65c/mf.gif" width="1" /><br /><br /><a href="http://da.feedsportal.com/r/161393673676/u/0/f/632001/c/34520/s/29c7f65c/a2.htm"><img border="0" src="http://da.feedsportal.com/r/161393673676/u/0/f/632001/c/34520/s/29c7f65c/a2.img" /></a><img border="0" height="1" src="http://pi.feedsportal.com/r/161393673676/u/0/f/632001/c/34520/s/29c7f65c/a2t.img" width="1" />
p188
stRp189
sg11
g12
((I2013
I3
I20
I12
I0
I0
I2
I79
I0
t(dtRp190
sg14
(lp191
g1
(g2
g3
(dp192
g17
Vhttp://ectnews.com.feedsportal.com/c/34520/f/632001/s/29c7f65c/l/0L0Slinuxinsider0N0Crsstory0C775730Bhtml/story01.htm
p193
sg19
g20
sg21
g22
stRp194
asg24
(lp195
g1
(g2
g3
(dp196
g27
VReviews
p197
sg29
Nsg30
NstRp198
asg7
V2013-03-20T12:00:00Z
p199
sg44
g193
sg52
(lp200
g1
(g2
g3
(dtRp201
asS'author_detail'
p202
g1
(g2
g3
(dp203
g63
VJack Germain
p204
stRp205
sg124
Vhttp://ectnews.com.feedsportal.com/c/34520/f/632001/s/29c7f65c/l/0L0Slinuxinsider0N0Crsstory0C775730Bhtml/story01.htm
p206
sg73
g12
((I2013
I3
I20
I12
I0
I0
I2
I79
I0
t(dtRp207
sg49
VSigil's E-Book Editor Is a Bestseller
p208
sg76
g204
sg128
g188
sg129
(lp209
g1
(g2
g3
(dp210
g36
Vhttp://ectnews.com.feedsportal.com/c/34520/f/632001/index.rss
p211
sg19
g133
sg39
Nsg40
V<a href="http://www.linuxinsider.com/rsstory/77573.html"><img align="left" alt="" border="0" hspace="7" src="http://www.linuxinsider.com/images/rw933658/linux" /></a> If you package e-books in the EPUB format, one of the handiest editing tools available is Sigil. The growing interest in mobile apps and e-reader devices such as Amazon's Kindle and Barnes and Noble's Nook is fueling the e-book business for both reading consumers and authors. Without a dedicated editing tool such as the Sigil E-Book Editor, setting up the embedded HTML coding and editing an e-book manuscript is often fraught with frustration and formatting errors. <img border="0" height="1" src="http://ectnews.com.feedsportal.com/c/34520/f/632001/s/29c7f65c/mf.gif" width="1" /><br /><br /><a href="http://da.feedsportal.com/r/161393673676/u/0/f/632001/c/34520/s/29c7f65c/a2.htm"><img border="0" src="http://da.feedsportal.com/r/161393673676/u/0/f/632001/c/34520/s/29c7f65c/a2.img" /></a><img border="0" height="1" src="http://pi.feedsportal.com/r/161393673676/u/0/f/632001/c/34520/s/29c7f65c/a2t.img" width="1" />
p212
stRp213
asg136
I00
sS'title_detail'
p214
g1
(g2
g3
(dp215
g36
Vhttp://ectnews.com.feedsportal.com/c/34520/f/632001/index.rss
p216
sg19
g38
sg39
Nsg40
g208
stRp217
sg88
VWed, 20 Mar 2013 12:00:00 GMT
p218
sg142
(lp219
g144
aV*
ag145
astRp220
ag1
(g2
g3
(dp221
S'summary_detail'
p222
g1
(g2
g3
(dp223
g36
Vhttp://ectnews.com.feedsportal.com/c/34520/f/632001/index.rss
p224
sg19
g81
sg39
Nsg40
VMentioning open source to a typical consumer will no doubt result in puzzled looks or a reference to that "free stuff." Even in some business circles, the open source concept may only be synonymous with an alternative computer operating system known as Linux. On the software development side of the computing industry, however, open source is known for much different reasons.<img border="0" height="1" src="http://ectnews.com.feedsportal.com/c/34520/f/632001/s/29bc9f92/mf.gif" width="1" /><br /><br /><a href="http://da.feedsportal.com/r/159490994341/u/0/f/632001/c/34520/s/29bc9f92/kg/355/a2.htm"><img border="0" src="http://da.feedsportal.com/r/159490994341/u/0/f/632001/c/34520/s/29bc9f92/kg/355/a2.img" /></a><img border="0" height="1" src="http://pi.feedsportal.com/r/159490994341/u/0/f/632001/c/34520/s/29bc9f92/kg/355/a2t.img" width="1" />
p225
stRp226
sg11
g12
((I2013
I3
I19
I12
I0
I0
I1
I78
I0
t(dtRp227
sg14
(lp228
g1
(g2
g3
(dp229
g17
Vhttp://ectnews.com.feedsportal.com/c/34520/f/632001/s/29bc9f92/l/0L0Slinuxinsider0N0Crsstory0C775580Bhtml/story01.htm
p230
sg19
g20
sg21
g22
stRp231
asg24
(lp232
g1
(g2
g3
(dp233
g27
VDevelopers
p234
sg29
Nsg30
NstRp235
asg7
V2013-03-19T12:00:00Z
p236
sg44
g230
sg52
(lp237
g1
(g2
g3
(dtRp238
asS'author_detail'
p239
g1
(g2
g3
(dp240
g63
VJack Germain
p241
stRp242
sg124
Vhttp://ectnews.com.feedsportal.com/c/34520/f/632001/s/29bc9f92/l/0L0Slinuxinsider0N0Crsstory0C775580Bhtml/story01.htm
p243
sg73
g12
((I2013
I3
I19
I12
I0
I0
I1
I78
I0
t(dtRp244
sg49
VBlack Duck's Dave Gruber and Peter Vescuso: Open Source Is Maturing
p245
sg76
g241
sg128
g225
sg129
(lp246
g1
(g2
g3
(dp247
g36
Vhttp://ectnews.com.feedsportal.com/c/34520/f/632001/index.rss
p248
sg19
g133
sg39
Nsg40
V<a href="http://www.linuxinsider.com/rsstory/77558.html"><img align="left" alt="" border="0" hspace="7" src="http://www.linuxinsider.com/images/rw391580/linux" /></a> Mentioning open source to a typical consumer will no doubt result in puzzled looks or a reference to that "free stuff." Even in some business circles, the open source concept may only be synonymous with an alternative computer operating system known as Linux. On the software development side of the computing industry, however, open source is known for much different reasons. Its practices have become a path to secure, rapid product development with many inherent cost-saving features. <img border="0" height="1" src="http://ectnews.com.feedsportal.com/c/34520/f/632001/s/29bc9f92/mf.gif" width="1" /><br /><br /><a href="http://da.feedsportal.com/r/159490994341/u/0/f/632001/c/34520/s/29bc9f92/kg/355/a2.htm"><img border="0" src="http://da.feedsportal.com/r/159490994341/u/0/f/632001/c/34520/s/29bc9f92/kg/355/a2.img" /></a><img border="0" height="1" src="http://pi.feedsportal.com/r/159490994341/u/0/f/632001/c/34520/s/29bc9f92/kg/355/a2t.img" width="1" />
p249
stRp250
asg136
I00
sS'title_detail'
p251
g1
(g2
g3
(dp252
g36
Vhttp://ectnews.com.feedsportal.com/c/34520/f/632001/index.rss
p253
sg19
g38
sg39
Nsg40
g245
stRp254
sg88
VTue, 19 Mar 2013 12:00:00 GMT
p255
sg142
(lp256
g144
aV*
ag145
astRp257
ag1
(g2
g3
(dp258
S'summary_detail'
p259
g1
(g2
g3
(dp260
g36
Vhttp://ectnews.com.feedsportal.com/c/34520/f/632001/index.rss
p261
sg19
g81
sg39
Nsg40
VOnce upon a time there was a modest young operating system named "Chrome OS." It tried to live a quiet life helping others, but its ancient roots made some in the mainstream computing world wary. Not only was it one of the first examples of a new type of OS, focused as it was on the browser, but it was also descended from Linux, the very name of which was still widely misunderstood among the masses.<img border="0" height="1" src="http://ectnews.com.feedsportal.com/c/34520/f/632001/s/29b1c35a/mf.gif" width="1" /><br /><br /><a href="http://da.feedsportal.com/r/159490755174/u/0/f/632001/c/34520/s/29b1c35a/kg/355/a2.htm"><img border="0" src="http://da.feedsportal.com/r/159490755174/u/0/f/632001/c/34520/s/29b1c35a/kg/355/a2.img" /></a><img border="0" height="1" src="http://pi.feedsportal.com/r/159490755174/u/0/f/632001/c/34520/s/29b1c35a/kg/355/a2t.img" width="1" />
p262
stRp263
sg11
g12
((I2013
I3
I18
I12
I0
I0
I0
I77
I0
t(dtRp264
sg14
(lp265
g1
(g2
g3
(dp266
g17
Vhttp://ectnews.com.feedsportal.com/c/34520/f/632001/s/29b1c35a/l/0L0Slinuxinsider0N0Crsstory0C775560Bhtml/story01.htm
p267
sg19
g20
sg21
g22
stRp268
asg24
(lp269
g1
(g2
g3
(dp270
g27
VCommunity
p271
sg29
Nsg30
NstRp272
asg7
V2013-03-18T12:00:00Z
p273
sg44
g267
sg52
(lp274
g1
(g2
g3
(dtRp275
asS'author_detail'
p276
g1
(g2
g3
(dp277
g63
VKatherine Noyes
p278
stRp279
sg124
Vhttp://ectnews.com.feedsportal.com/c/34520/f/632001/s/29b1c35a/l/0L0Slinuxinsider0N0Crsstory0C775560Bhtml/story01.htm
p280
sg73
g12
((I2013
I3
I18
I12
I0
I0
I0
I77
I0
t(dtRp281
sg49
VChrome OS and the Cloak of Unhackability
p282
sg76
g278
sg128
g262
sg129
(lp283
g1
(g2
g3
(dp284
g36
Vhttp://ectnews.com.feedsportal.com/c/34520/f/632001/index.rss
p285
sg19
g133
sg39
Nsg40
V<a href="http://www.linuxinsider.com/rsstory/77556.html"><img align="left" alt="" border="0" hspace="7" src="http://www.linuxinsider.com/images/rw696885/google-chrome" /></a> Once upon a time there was a modest young operating system named "Chrome OS." It tried to live a quiet life helping others, but its ancient roots made some in the mainstream computing world wary. Not only was it one of the first examples of a new type of OS, focused as it was on the browser, but it was also descended from Linux, the very name of which was still widely misunderstood among the masses. One day, however, young Chrome OS was given a chance to prove itself. It was invited to compete against the world's toughest hackers in the illustrious Pwnium 3 competition. <img border="0" height="1" src="http://ectnews.com.feedsportal.com/c/34520/f/632001/s/29b1c35a/mf.gif" width="1" /><br /><br /><a href="http://da.feedsportal.com/r/159490755174/u/0/f/632001/c/34520/s/29b1c35a/kg/355/a2.htm"><img border="0" src="http://da.feedsportal.com/r/159490755174/u/0/f/632001/c/34520/s/29b1c35a/kg/355/a2.img" /></a><img border="0" height="1" src="http://pi.feedsportal.com/r/159490755174/u/0/f/632001/c/34520/s/29b1c35a/kg/355/a2t.img" width="1" />
p286
stRp287
asg136
I00
sS'title_detail'
p288
g1
(g2
g3
(dp289
g36
Vhttp://ectnews.com.feedsportal.com/c/34520/f/632001/index.rss
p290
sg19
g38
sg39
Nsg40
g282
stRp291
sg88
VMon, 18 Mar 2013 12:00:00 GMT
p292
sg142
(lp293
g144
aV*
ag145
astRp294
ag1
(g2
g3
(dp295
S'summary_detail'
p296
g1
(g2
g3
(dp297
g36
Vhttp://ectnews.com.feedsportal.com/c/34520/f/632001/index.rss
p298
sg19
g81
sg39
Nsg40
VWe're seeing an entire genre of Twitter clients proliferating within the Android ecosystem -- each app with its own idea about the best way to interact with the monolithic, 500 million-strong social network. OneLouder's Slices Pro for Twitter is the latest client to grab my attention -- not least because it provides a way to browse Twitter directories by category to find the best Follows.<img border="0" height="1" src="http://ectnews.com.feedsportal.com/c/34520/f/632001/s/299b201a/mf.gif" width="1" /><br /><br /><a href="http://da.feedsportal.com/r/159490488082/u/0/f/632001/c/34520/s/299b201a/a2.htm"><img border="0" src="http://da.feedsportal.com/r/159490488082/u/0/f/632001/c/34520/s/299b201a/a2.img" /></a><img border="0" height="1" src="http://pi.feedsportal.com/r/159490488082/u/0/f/632001/c/34520/s/299b201a/a2t.img" width="1" />
p299
stRp300
sg11
g12
((I2013
I3
I15
I12
I0
I0
I4
I74
I0
t(dtRp301
sg14
(lp302
g1
(g2
g3
(dp303
g17
Vhttp://ectnews.com.feedsportal.com/c/34520/f/632001/s/299b201a/l/0L0Slinuxinsider0N0Crsstory0C775320Bhtml/story01.htm
p304
sg19
g20
sg21
g22
stRp305
asg24
(lp306
g1
(g2
g3
(dp307
g27
VReviews
p308
sg29
Nsg30
NstRp309
asg7
V2013-03-15T12:00:00Z
p310
sg44
g304
sg52
(lp311
g1
(g2
g3
(dtRp312
asS'author_detail'
p313
g1
(g2
g3
(dp314
g63
VPatrick Nelson
p315
stRp316
sg124
Vhttp://ectnews.com.feedsportal.com/c/34520/f/632001/s/299b201a/l/0L0Slinuxinsider0N0Crsstory0C775320Bhtml/story01.htm
p317
sg73
g12
((I2013
I3
I15
I12
I0
I0
I4
I74
I0
t(dtRp318
sg49
VSlices Pro for Twitter Cuts Through the Chaos
p319
sg76
g315
sg128
g299
sg129
(lp320
g1
(g2
g3
(dp321
g36
Vhttp://ectnews.com.feedsportal.com/c/34520/f/632001/index.rss
p322
sg19
g133
sg39
Nsg40
V<a href="http://www.linuxinsider.com/rsstory/77532.html"><img align="left" alt="" border="0" hspace="7" src="http://www.linuxinsider.com/images/rw770734/google-play-twitter" /></a> We're seeing an entire genre of Twitter clients proliferating within the Android ecosystem -- each app with its own idea about the best way to interact with the monolithic, 500 million-strong social network. OneLouder's Slices Pro for Twitter is the latest client to grab my attention -- not least because it provides a way to browse Twitter directories by category to find the best Follows. Does this mean it could possibly sift out some chaff? <img border="0" height="1" src="http://ectnews.com.feedsportal.com/c/34520/f/632001/s/299b201a/mf.gif" width="1" /><br /><br /><a href="http://da.feedsportal.com/r/159490488082/u/0/f/632001/c/34520/s/299b201a/a2.htm"><img border="0" src="http://da.feedsportal.com/r/159490488082/u/0/f/632001/c/34520/s/299b201a/a2.img" /></a><img border="0" height="1" src="http://pi.feedsportal.com/r/159490488082/u/0/f/632001/c/34520/s/299b201a/a2t.img" width="1" />
p323
stRp324
asg136
I00
sS'title_detail'
p325
g1
(g2
g3
(dp326
g36
Vhttp://ectnews.com.feedsportal.com/c/34520/f/632001/index.rss
p327
sg19
g38
sg39
Nsg40
g319
stRp328
sg88
VFri, 15 Mar 2013 12:00:00 GMT
p329
sg142
(lp330
g144
aV*
ag145
astRp331
ag1
(g2
g3
(dp332
S'summary_detail'
p333
g1
(g2
g3
(dp334
g36
Vhttp://ectnews.com.feedsportal.com/c/34520/f/632001/index.rss
p335
sg19
g81
sg39
Nsg40
VGiven all the legends surrounding Apple's widely mourned Steve Jobs, it's not entirely surprising that comparisons should be made any time another tech leader begins to resemble him in any way. Case in point: Mark Shuttleworth. The billionaire Canonical founder has actually been compared to Jobs on numerous occasions before, but lately the discussion was renewed afresh by a recent post on Linux Advocates.<img border="0" height="1" src="http://ectnews.com.feedsportal.com/c/34520/f/632001/s/298fcdca/mf.gif" width="1" /><br /><br /><a href="http://da.feedsportal.com/r/159490639126/u/0/f/632001/c/34520/s/298fcdca/a2.htm"><img border="0" src="http://da.feedsportal.com/r/159490639126/u/0/f/632001/c/34520/s/298fcdca/a2.img" /></a><img border="0" height="1" src="http://pi.feedsportal.com/r/159490639126/u/0/f/632001/c/34520/s/298fcdca/a2t.img" width="1" />
p336
stRp337
sg11
g12
((I2013
I3
I14
I12
I0
I0
I3
I73
I0
t(dtRp338
sg14
(lp339
g1
(g2
g3
(dp340
g17
Vhttp://ectnews.com.feedsportal.com/c/34520/f/632001/s/298fcdca/l/0L0Slinuxinsider0N0Crsstory0C775260Bhtml/story01.htm
p341
sg19
g20
sg21
g22
stRp342
asg24
(lp343
g1
(g2
g3
(dp344
g27
VCommunity
p345
sg29
Nsg30
NstRp346
asg7
V2013-03-14T12:00:00Z
p347
sg44
g341
sg52
(lp348
g1
(g2
g3
(dtRp349
asS'author_detail'
p350
g1
(g2
g3
(dp351
g63
VKatherine Noyes
p352
stRp353
sg124
Vhttp://ectnews.com.feedsportal.com/c/34520/f/632001/s/298fcdca/l/0L0Slinuxinsider0N0Crsstory0C775260Bhtml/story01.htm
p354
sg73
g12
((I2013
I3
I14
I12
I0
I0
I3
I73
I0
t(dtRp355
sg49
VCanonical: The Next Apple
p356
sg76
g352
sg128
g336
sg129
(lp357
g1
(g2
g3
(dp358
g36
Vhttp://ectnews.com.feedsportal.com/c/34520/f/632001/index.rss
p359
sg19
g133
sg39
Nsg40
V<a href="http://www.linuxinsider.com/rsstory/77526.html"><img align="left" alt="" border="0" hspace="7" src="http://www.linuxinsider.com/images/rw451910/canonical-shuttleworth" /></a> Given all the legends surrounding Apple's widely mourned Steve Jobs, it's not entirely surprising that comparisons should be made any time another tech leader begins to resemble him in any way. Case in point: Mark Shuttleworth. The billionaire Canonical founder has actually been compared to Jobs on numerous occasions before, but lately the discussion was renewed afresh by a recent post on Linux Advocates. "Is Canonical heading in Apple's direction?" is the title of said post, which was penned by none other than Muktware founder Swapnil Bhartiya. <img border="0" height="1" src="http://ectnews.com.feedsportal.com/c/34520/f/632001/s/298fcdca/mf.gif" width="1" /><br /><br /><a href="http://da.feedsportal.com/r/159490639126/u/0/f/632001/c/34520/s/298fcdca/a2.htm"><img border="0" src="http://da.feedsportal.com/r/159490639126/u/0/f/632001/c/34520/s/298fcdca/a2.img" /></a><img border="0" height="1" src="http://pi.feedsportal.com/r/159490639126/u/0/f/632001/c/34520/s/298fcdca/a2t.img" width="1" />
p360
stRp361
asg136
I00
sS'title_detail'
p362
g1
(g2
g3
(dp363
g36
Vhttp://ectnews.com.feedsportal.com/c/34520/f/632001/index.rss
p364
sg19
g38
sg39
Nsg40
g356
stRp365
sg88
VThu, 14 Mar 2013 12:00:00 GMT
p366
sg142
(lp367
g144
aV*
ag145
astRp368
ag1
(g2
g3
(dp369
S'summary_detail'
p370
g1
(g2
g3
(dp371
g36
Vhttp://ectnews.com.feedsportal.com/c/34520/f/632001/index.rss
p372
sg19
g81
sg39
Nsg40
VThe creators of Nirvana Editor, or NEdit for short, consider it paradise for writers. I found, however, that it's not yet the perfect text editor. NEdit is currently in version 5.5, so it is not a newcomer to the text editing scene. I tried it with the hope that it would bring a few new tricks to my aging collection of text editors<img border="0" height="1" src="http://ectnews.com.feedsportal.com/c/34520/f/632001/s/2984d980/mf.gif" width="1" /><br /><br /><a href="http://da.feedsportal.com/r/159490194786/u/0/f/632001/c/34520/s/2984d980/a2.htm"><img border="0" src="http://da.feedsportal.com/r/159490194786/u/0/f/632001/c/34520/s/2984d980/a2.img" /></a><img border="0" height="1" src="http://pi.feedsportal.com/r/159490194786/u/0/f/632001/c/34520/s/2984d980/a2t.img" width="1" />
p373
stRp374
sg11
g12
((I2013
I3
I13
I12
I0
I0
I2
I72
I0
t(dtRp375
sg14
(lp376
g1
(g2
g3
(dp377
g17
Vhttp://ectnews.com.feedsportal.com/c/34520/f/632001/s/2984d980/l/0L0Slinuxinsider0N0Crsstory0C7750A60Bhtml/story01.htm
p378
sg19
g20
sg21
g22
stRp379
asg24
(lp380
g1
(g2
g3
(dp381
g27
VReviews
p382
sg29
Nsg30
NstRp383
asg7
V2013-03-13T12:00:00Z
p384
sg44
g378
sg52
(lp385
g1
(g2
g3
(dtRp386
asS'author_detail'
p387
g1
(g2
g3
(dp388
g63
VJack M. Germain
p389
stRp390
sg124
Vhttp://ectnews.com.feedsportal.com/c/34520/f/632001/s/2984d980/l/0L0Slinuxinsider0N0Crsstory0C7750A60Bhtml/story01.htm
p391
sg73
g12
((I2013
I3
I13
I12
I0
I0
I2
I72
I0
t(dtRp392
sg49
VNEdit: With Great Power Comes Not-So-Hot Usability
p393
sg76
g389
sg128
g373
sg129
(lp394
g1
(g2
g3
(dp395
g36
Vhttp://ectnews.com.feedsportal.com/c/34520/f/632001/index.rss
p396
sg19
g133
sg39
Nsg40
V<a href="http://www.linuxinsider.com/rsstory/77506.html"><img align="left" alt="" border="0" hspace="7" src="http://www.linuxinsider.com/images/rw613433/linux" /></a> The cretors of Nirvana Editor, or NEdit for short, consider it paradise for writers. I found, however, that it's not yet the perfect text editor. NEdit is currently in version 5.5, so it is not a newcomer to the text editing scene. I tried it with the hope that it would bring a few new tricks to my aging collection of text editors. I spend almost as much time each day in text editors as I do in web browsers. I write words rather than programming code. <img border="0" height="1" src="http://ectnews.com.feedsportal.com/c/34520/f/632001/s/2984d980/mf.gif" width="1" /><br /><br /><a href="http://da.feedsportal.com/r/159490194786/u/0/f/632001/c/34520/s/2984d980/a2.htm"><img border="0" src="http://da.feedsportal.com/r/159490194786/u/0/f/632001/c/34520/s/2984d980/a2.img" /></a><img border="0" height="1" src="http://pi.feedsportal.com/r/159490194786/u/0/f/632001/c/34520/s/2984d980/a2t.img" width="1" />
p397
stRp398
asg136
I00
sS'title_detail'
p399
g1
(g2
g3
(dp400
g36
Vhttp://ectnews.com.feedsportal.com/c/34520/f/632001/index.rss
p401
sg19
g38
sg39
Nsg40
g393
stRp402
sg88
VWed, 13 Mar 2013 12:00:00 GMT
p403
sg142
(lp404
g144
aV*
ag145
astRp405
ag1
(g2
g3
(dp406
S'summary_detail'
p407
g1
(g2
g3
(dp408
g36
Vhttp://ectnews.com.feedsportal.com/c/34520/f/632001/index.rss
p409
sg19
g81
sg39
Nsg40
VThe Fedora Project is perhaps one of the hallmark Linux distributions. Fedora is sponsored by Red Hat, the commercial developer of Red Hat Enterprise Linux (RHEL). Red Hat's investment in the Fedora community is collaborative. As such, Fedora Linux releases often provide RHEL developers with a field test environment that incubates innovative open source software technologies.<img border="0" height="1" src="http://ectnews.com.feedsportal.com/c/34520/f/632001/s/2979b996/mf.gif" width="1" /><br /><br /><a href="http://da.feedsportal.com/r/159490564244/u/0/f/632001/c/34520/s/2979b996/kg/350/a2.htm"><img border="0" src="http://da.feedsportal.com/r/159490564244/u/0/f/632001/c/34520/s/2979b996/kg/350/a2.img" /></a><img border="0" height="1" src="http://pi.feedsportal.com/r/159490564244/u/0/f/632001/c/34520/s/2979b996/kg/350/a2t.img" width="1" />
p410
stRp411
sg11
g12
((I2013
I3
I12
I12
I0
I0
I1
I71
I0
t(dtRp412
sg14
(lp413
g1
(g2
g3
(dp414
g17
Vhttp://ectnews.com.feedsportal.com/c/34520/f/632001/s/2979b996/l/0L0Slinuxinsider0N0Crsstory0C774990Bhtml/story01.htm
p415
sg19
g20
sg21
g22
stRp416
asg24
(lp417
g1
(g2
g3
(dp418
g27
VSoftware
p419
sg29
Nsg30
NstRp420
asg7
V2013-03-12T12:00:00Z
p421
sg44
g415
sg52
(lp422
g1
(g2
g3
(dtRp423
asS'author_detail'
p424
g1
(g2
g3
(dp425
g63
VJack M. Germain
p426
stRp427
sg124
Vhttp://ectnews.com.feedsportal.com/c/34520/f/632001/s/2979b996/l/0L0Slinuxinsider0N0Crsstory0C774990Bhtml/story01.htm
p428
sg73
g12
((I2013
I3
I12
I12
I0
I0
I1
I71
I0
t(dtRp429
sg49
VFedora Project's Robyn Bergeron: The Linux Desktop Is Almost Ready for Its Close-Up
p430
sg76
g426
sg128
g410
sg129
(lp431
g1
(g2
g3
(dp432
g36
Vhttp://ectnews.com.feedsportal.com/c/34520/f/632001/index.rss
p433
sg19
g133
sg39
Nsg40
V<a href="http://www.linuxinsider.com/rsstory/77499.html"><img align="left" alt="" border="0" hspace="7" src="http://www.linuxinsider.com/images/rw33791/linux" /></a> The Fedora Project is perhaps one of the hallmark Linux distributions. Fedora is sponsored by Red Hat, the commercial developer of Red Hat Enterprise Linux (RHEL). Red Hat's investment in the Fedora community is collaborative. As such, Fedora Linux releases often provide RHEL developers with a field test environment that incubates innovative open source software technologies. Red Hat Linux 1.0 was released in late 1994 as Red Hat Commercial Linux. It was the first Linux distribution to use the RPM Package Manager as its packaging format. <img border="0" height="1" src="http://ectnews.com.feedsportal.com/c/34520/f/632001/s/2979b996/mf.gif" width="1" /><br /><br /><a href="http://da.feedsportal.com/r/159490564244/u/0/f/632001/c/34520/s/2979b996/kg/350/a2.htm"><img border="0" src="http://da.feedsportal.com/r/159490564244/u/0/f/632001/c/34520/s/2979b996/kg/350/a2.img" /></a><img border="0" height="1" src="http://pi.feedsportal.com/r/159490564244/u/0/f/632001/c/34520/s/2979b996/kg/350/a2t.img" width="1" />
p434
stRp435
asg136
I00
sS'title_detail'
p436
g1
(g2
g3
(dp437
g36
Vhttp://ectnews.com.feedsportal.com/c/34520/f/632001/index.rss
p438
sg19
g38
sg39
Nsg40
g430
stRp439
sg88
VTue, 12 Mar 2013 12:00:00 GMT
p440
sg142
(lp441
g144
aV*
ag145
astRp442
ag1
(g2
g3
(dp443
S'summary_detail'
p444
g1
(g2
g3
(dp445
g36
Vhttp://ectnews.com.feedsportal.com/c/34520/f/632001/index.rss
p446
sg19
g81
sg39
Nsg40
VIt seems that the FOSS community sees its ranks expand just about every day, as new fans of free and open source software join the fold. What's much less common is to see former advocates of Linux and FOSS change their minds and depart. That's pretty much what happened last week, when GNOME cofounder Miguel de Icaza announced that he had abandoned desktop Linux in favor of Apple's Mac platform.<img border="0" height="1" src="http://ectnews.com.feedsportal.com/c/34520/f/632001/s/296ec622/mf.gif" width="1" /><br /><br /><a href="http://da.feedsportal.com/r/159490338339/u/0/f/632001/c/34520/s/296ec622/a2.htm"><img border="0" src="http://da.feedsportal.com/r/159490338339/u/0/f/632001/c/34520/s/296ec622/a2.img" /></a><img border="0" height="1" src="http://pi.feedsportal.com/r/159490338339/u/0/f/632001/c/34520/s/296ec622/a2t.img" width="1" />
p447
stRp448
sg11
g12
((I2013
I3
I11
I12
I0
I0
I0
I70
I0
t(dtRp449
sg14
(lp450
g1
(g2
g3
(dp451
g17
Vhttp://ectnews.com.feedsportal.com/c/34520/f/632001/s/296ec622/l/0L0Slinuxinsider0N0Crsstory0C774920Bhtml/story01.htm
p452
sg19
g20
sg21
g22
stRp453
asg24
(lp454
g1
(g2
g3
(dp455
g27
VCommunity
p456
sg29
Nsg30
NstRp457
asg7
V2013-03-11T12:00:00Z
p458
sg44
g452
sg52
(lp459
g1
(g2
g3
(dtRp460
asS'author_detail'
p461
g1
(g2
g3
(dp462
g63
VKatherine Noyes
p463
stRp464
sg124
Vhttp://ectnews.com.feedsportal.com/c/34520/f/632001/s/296ec622/l/0L0Slinuxinsider0N0Crsstory0C774920Bhtml/story01.htm
p465
sg73
g12
((I2013
I3
I11
I12
I0
I0
I0
I70
I0
t(dtRp466
sg49
VMan Overboard: GNOME Cofounder Joins the Mac Side
p467
sg76
g463
sg128
g447
sg129
(lp468
g1
(g2
g3
(dp469
g36
Vhttp://ectnews.com.feedsportal.com/c/34520/f/632001/index.rss
p470
sg19
g133
sg39
Nsg40
V<a href="http://www.linuxinsider.com/rsstory/77492.html"><img align="left" alt="" border="0" hspace="7" src="http://www.linuxinsider.com/images/rw412765/de-icaza" /></a> It seems that the FOSS community sees its ranks expand just about every day, as new fans of free and open source software join the fold. What's much less common is to see former advocates of Linux and FOSS change their minds and depart. That's pretty much what happened last week, when GNOME cofounder Miguel de Icaza announced that he had abandoned desktop Linux in favor of Apple's Mac platform. "The fragmentation of Linux as a platform, the multiple incompatible distros, and the incompatibilities across versions of the same distro were my Three Mile Island/Chernobyl," he said. <img border="0" height="1" src="http://ectnews.com.feedsportal.com/c/34520/f/632001/s/296ec622/mf.gif" width="1" /><br /><br /><a href="http://da.feedsportal.com/r/159490338339/u/0/f/632001/c/34520/s/296ec622/a2.htm"><img border="0" src="http://da.feedsportal.com/r/159490338339/u/0/f/632001/c/34520/s/296ec622/a2.img" /></a><img border="0" height="1" src="http://pi.feedsportal.com/r/159490338339/u/0/f/632001/c/34520/s/296ec622/a2t.img" width="1" />
p471
stRp472
asg136
I00
sS'title_detail'
p473
g1
(g2
g3
(dp474
g36
Vhttp://ectnews.com.feedsportal.com/c/34520/f/632001/index.rss
p475
sg19
g38
sg39
Nsg40
g467
stRp476
sg88
VMon, 11 Mar 2013 12:00:00 GMT
p477
sg142
(lp478
g144
aV*
ag145
astRp479
ag1
(g2
g3
(dp480
S'summary_detail'
p481
g1
(g2
g3
(dp482
g36
Vhttp://ectnews.com.feedsportal.com/c/34520/f/632001/index.rss
p483
sg19
g81
sg39
Nsg40
VAndroid has become a mobile malware magnet, according to F-Secure. A whopping 79 percent of all mobile malware targeted the Google OS in 2012, based on a new report from the firm. That was up from 66.7 percent in 2011 and just 11.25 percent in 2010. The fourth quarter of 2012 was particularly bad, it said, with attacks on Android spiking to account for 96 percent of all mobile malware.<img border="0" height="1" src="http://ectnews.com.feedsportal.com/c/34520/f/632001/s/295d7c0b/mf.gif" width="1" /><br /><br /><a href="http://da.feedsportal.com/r/159490277247/u/0/f/632001/c/34520/s/295d7c0b/a2.htm"><img border="0" src="http://da.feedsportal.com/r/159490277247/u/0/f/632001/c/34520/s/295d7c0b/a2.img" /></a><img border="0" height="1" src="http://pi.feedsportal.com/r/159490277247/u/0/f/632001/c/34520/s/295d7c0b/a2t.img" width="1" />
p484
stRp485
sg11
g12
((I2013
I3
I8
I22
I42
I53
I4
I67
I0
t(dtRp486
sg14
(lp487
g1
(g2
g3
(dp488
g17
Vhttp://ectnews.com.feedsportal.com/c/34520/f/632001/s/295d7c0b/l/0L0Slinuxinsider0N0Crsstory0C774870Bhtml/story01.htm
p489
sg19
g20
sg21
g22
stRp490
asg24
(lp491
g1
(g2
g3
(dp492
g27
VMobile
p493
sg29
Nsg30
NstRp494
asg7
V2013-03-08T22:42:53Z
p495
sg44
g489
sg52
(lp496
g1
(g2
g3
(dtRp497
asS'author_detail'
p498
g1
(g2
g3
(dp499
g63
VErika Morphy
p500
stRp501
sg124
Vhttp://ectnews.com.feedsportal.com/c/34520/f/632001/s/295d7c0b/l/0L0Slinuxinsider0N0Crsstory0C774870Bhtml/story01.htm
p502
sg73
g12
((I2013
I3
I8
I22
I42
I53
I4
I67
I0
t(dtRp503
sg49
VHackers Escalate Reign of Malware Terror on Android
p504
sg76
g500
sg128
g484
sg129
(lp505
g1
(g2
g3
(dp506
g36
Vhttp://ectnews.com.feedsportal.com/c/34520/f/632001/index.rss
p507
sg19
g133
sg39
Nsg40
V<a href="http://www.linuxinsider.com/rsstory/77487.html"><img align="left" alt="" border="0" hspace="7" src="http://www.linuxinsider.com/images/rw728566/android-malware" /></a> Android has become a mobile malware magnet, according to F-Secure. A whopping 79 percent of all mobile malware targeted the Google OS in 2012, based on a new report from the firm. That was up from 66.7 percent in 2011 and just 11.25 percent in 2010. The fourth quarter of 2012 was particularly bad, it said, with attacks on Android spiking to account for 96 percent of all mobile malware. It would be easy to make the case that malware is gravitating toward Android because of its growing popularity -- but what then would explain the lack of malware heading toward Apple's iOS? <img border="0" height="1" src="http://ectnews.com.feedsportal.com/c/34520/f/632001/s/295d7c0b/mf.gif" width="1" /><br /><br /><a href="http://da.feedsportal.com/r/159490277247/u/0/f/632001/c/34520/s/295d7c0b/a2.htm"><img border="0" src="http://da.feedsportal.com/r/159490277247/u/0/f/632001/c/34520/s/295d7c0b/a2.img" /></a><img border="0" height="1" src="http://pi.feedsportal.com/r/159490277247/u/0/f/632001/c/34520/s/295d7c0b/a2t.img" width="1" />
p508
stRp509
asg136
I00
sS'title_detail'
p510
g1
(g2
g3
(dp511
g36
Vhttp://ectnews.com.feedsportal.com/c/34520/f/632001/index.rss
p512
sg19
g38
sg39
Nsg40
g504
stRp513
sg88
VFri, 08 Mar 2013 22:42:53 GMT
p514
sg142
(lp515
g144
aV*
ag145
astRp516
ag1
(g2
g3
(dp517
S'summary_detail'
p518
g1
(g2
g3
(dp519
g36
Vhttp://ectnews.com.feedsportal.com/c/34520/f/632001/index.rss
p520
sg19
g81
sg39
Nsg40
VI've been running into major headaches with file-storage memory on my Android tablet. If you too have been having problems getting files to fit on your device, it may not be that your device's memory or SD card is full, but that phantom files are hogging resources. I'm usually -- carefully -- buying cheap gear. In the device business, that usually means limited on-board memory.<img border="0" height="1" src="http://ectnews.com.feedsportal.com/c/34520/f/632001/s/2958ce78/mf.gif" width="1" /><br /><br /><a href="http://da.feedsportal.com/r/159490263019/u/0/f/632001/c/34520/s/2958ce78/a2.htm"><img border="0" src="http://da.feedsportal.com/r/159490263019/u/0/f/632001/c/34520/s/2958ce78/a2.img" /></a><img border="0" height="1" src="http://pi.feedsportal.com/r/159490263019/u/0/f/632001/c/34520/s/2958ce78/a2t.img" width="1" />
p521
stRp522
sg11
g12
((I2013
I3
I8
I13
I0
I0
I4
I67
I0
t(dtRp523
sg14
(lp524
g1
(g2
g3
(dp525
g17
Vhttp://ectnews.com.feedsportal.com/c/34520/f/632001/s/2958ce78/l/0L0Slinuxinsider0N0Crsstory0C774750Bhtml/story01.htm
p526
sg19
g20
sg21
g22
stRp527
asg24
(lp528
g1
(g2
g3
(dp529
g27
VReviews
p530
sg29
Nsg30
NstRp531
asg7
V2013-03-08T13:00:00Z
p532
sg44
g526
sg52
(lp533
g1
(g2
g3
(dtRp534
asS'author_detail'
p535
g1
(g2
g3
(dp536
g63
VPatrick Nelson
p537
stRp538
sg124
Vhttp://ectnews.com.feedsportal.com/c/34520/f/632001/s/2958ce78/l/0L0Slinuxinsider0N0Crsstory0C774750Bhtml/story01.htm
p539
sg73
g12
((I2013
I3
I8
I13
I0
I0
I4
I67
I0
t(dtRp540
sg49
VStorage Analyzer: A Must-Have App That Has No Business Being Free
p541
sg76
g537
sg128
g521
sg129
(lp542
g1
(g2
g3
(dp543
g36
Vhttp://ectnews.com.feedsportal.com/c/34520/f/632001/index.rss
p544
sg19
g133
sg39
Nsg40
V<a href="http://www.linuxinsider.com/rsstory/77475.html"><img align="left" alt="" border="0" hspace="7" src="http://www.linuxinsider.com/images/rw559255/sd-card-android" /></a> I've been running into major headaches with file-storage memory on my Android tablet. If you too have been having problems getting files to fit on your device, it may not be that your device's memory or SD card is full, but that phantom files are hogging resources. I'm usually -- carefully -- buying cheap gear. In the device business, that usually means limited on-board memory. I justify these self-imposed memory limits to myself by arguing that I generally stream media and don't use file-sharing. Therefore, I don't need much memory. I believe myself. <img border="0" height="1" src="http://ectnews.com.feedsportal.com/c/34520/f/632001/s/2958ce78/mf.gif" width="1" /><br /><br /><a href="http://da.feedsportal.com/r/159490263019/u/0/f/632001/c/34520/s/2958ce78/a2.htm"><img border="0" src="http://da.feedsportal.com/r/159490263019/u/0/f/632001/c/34520/s/2958ce78/a2.img" /></a><img border="0" height="1" src="http://pi.feedsportal.com/r/159490263019/u/0/f/632001/c/34520/s/2958ce78/a2t.img" width="1" />
p545
stRp546
asg136
I00
sS'title_detail'
p547
g1
(g2
g3
(dp548
g36
Vhttp://ectnews.com.feedsportal.com/c/34520/f/632001/index.rss
p549
sg19
g38
sg39
Nsg40
g541
stRp550
sg88
VFri, 08 Mar 2013 13:00:00 GMT
p551
sg142
(lp552
g144
aV*
ag145
astRp553
ag1
(g2
g3
(dp554
S'summary_detail'
p555
g1
(g2
g3
(dp556
g36
Vhttp://ectnews.com.feedsportal.com/c/34520/f/632001/index.rss
p557
sg19
g81
sg39
Nsg40
VHere in the Linux blogosphere, most fans of FOSS are nothing if not outspoken with their many opinions. Those opinions tend to be unequivocal on matters large and small, so it's always notable when a new technology comes along that leaves bloggers scratching their heads in uncertainty. That's a rarity, needless to say, but just recently a shining example emerged: the Chromebook Pixel.<img border="0" height="1" src="http://ectnews.com.feedsportal.com/c/34520/f/632001/s/294e6899/mf.gif" width="1" /><br /><br /><a href="http://da.feedsportal.com/r/159490414667/u/0/f/632001/c/34520/s/294e6899/a2.htm"><img border="0" src="http://da.feedsportal.com/r/159490414667/u/0/f/632001/c/34520/s/294e6899/a2.img" /></a><img border="0" height="1" src="http://pi.feedsportal.com/r/159490414667/u/0/f/632001/c/34520/s/294e6899/a2t.img" width="1" />
p558
stRp559
sg11
g12
((I2013
I3
I7
I13
I0
I0
I3
I66
I0
t(dtRp560
sg14
(lp561
g1
(g2
g3
(dp562
g17
Vhttp://ectnews.com.feedsportal.com/c/34520/f/632001/s/294e6899/l/0L0Slinuxinsider0N0Crsstory0C774680Bhtml/story01.htm
p563
sg19
g20
sg21
g22
stRp564
asg24
(lp565
g1
(g2
g3
(dp566
g27
VCommunity
p567
sg29
Nsg30
NstRp568
asg7
V2013-03-07T13:00:00Z
p569
sg44
g563
sg52
(lp570
g1
(g2
g3
(dtRp571
asS'author_detail'
p572
g1
(g2
g3
(dp573
g63
VKatherine Noyes
p574
stRp575
sg124
Vhttp://ectnews.com.feedsportal.com/c/34520/f/632001/s/294e6899/l/0L0Slinuxinsider0N0Crsstory0C774680Bhtml/story01.htm
p576
sg73
g12
((I2013
I3
I7
I13
I0
I0
I3
I66
I0
t(dtRp577
sg49
VThe Puzzling Case of the Chromebook Pixel
p578
sg76
g574
sg128
g558
sg129
(lp579
g1
(g2
g3
(dp580
g36
Vhttp://ectnews.com.feedsportal.com/c/34520/f/632001/index.rss
p581
sg19
g133
sg39
Nsg40
V<a href="http://www.linuxinsider.com/rsstory/77468.html"><img align="left" alt="" border="0" hspace="7" src="http://www.linuxinsider.com/images/rw770197/chromebook" /></a> Here in the Linux blogosphere, most fans of FOSS are nothing if not outspoken with their many opinions. Those opinions tend to be unequivocal on matters large and small, so it's always notable when a new technology comes along that leaves bloggers scratching their heads in uncertainty. That's a rarity, needless to say, but just recently a shining example emerged in the form of the Chromebook Pixel. Starting at $1,300, Google's new laptop entry is clearly priced at the high end of the market. It also boasts an impressive array of high-end specs. <img border="0" height="1" src="http://ectnews.com.feedsportal.com/c/34520/f/632001/s/294e6899/mf.gif" width="1" /><br /><br /><a href="http://da.feedsportal.com/r/159490414667/u/0/f/632001/c/34520/s/294e6899/a2.htm"><img border="0" src="http://da.feedsportal.com/r/159490414667/u/0/f/632001/c/34520/s/294e6899/a2.img" /></a><img border="0" height="1" src="http://pi.feedsportal.com/r/159490414667/u/0/f/632001/c/34520/s/294e6899/a2t.img" width="1" />
p582
stRp583
asg136
I00
sS'title_detail'
p584
g1
(g2
g3
(dp585
g36
Vhttp://ectnews.com.feedsportal.com/c/34520/f/632001/index.rss
p586
sg19
g38
sg39
Nsg40
g578
stRp587
sg88
VThu, 07 Mar 2013 13:00:00 GMT
p588
sg142
(lp589
g144
aV*
ag145
astRp590
ag1
(g2
g3
(dp591
S'summary_detail'
p592
g1
(g2
g3
(dp593
g36
Vhttp://ectnews.com.feedsportal.com/c/34520/f/632001/index.rss
p594
sg19
g81
sg39
Nsg40
VPuppy Linux is a distro I keep coming back to. No matter how entrenched I become with any flavor of Ubuntu -- sans the Unity desktop -- or Linux Mint's Cinnamon and KDE desktops, nothing can beat the speed, convenience and reliability of Puppy Linux on a stick.<img border="0" height="1" src="http://ectnews.com.feedsportal.com/c/34520/f/632001/s/2943f7f3/mf.gif" width="1" /><br /><br /><a href="http://da.feedsportal.com/r/159490562576/u/0/f/632001/c/34520/s/2943f7f3/a2.htm"><img border="0" src="http://da.feedsportal.com/r/159490562576/u/0/f/632001/c/34520/s/2943f7f3/a2.img" /></a><img border="0" height="1" src="http://pi.feedsportal.com/r/159490562576/u/0/f/632001/c/34520/s/2943f7f3/a2t.img" width="1" />
p595
stRp596
sg11
g12
((I2013
I3
I6
I13
I0
I0
I2
I65
I0
t(dtRp597
sg14
(lp598
g1
(g2
g3
(dp599
g17
Vhttp://ectnews.com.feedsportal.com/c/34520/f/632001/s/2943f7f3/l/0L0Slinuxinsider0N0Crsstory0C774560Bhtml/story01.htm
p600
sg19
g20
sg21
g22
stRp601
asg24
(lp602
g1
(g2
g3
(dp603
g27
VReviews
p604
sg29
Nsg30
NstRp605
asg7
V2013-03-06T13:00:00Z
p606
sg44
g600
sg52
(lp607
g1
(g2
g3
(dtRp608
asS'author_detail'
p609
g1
(g2
g3
(dp610
g63
VJack M. Germain
p611
stRp612
sg124
Vhttp://ectnews.com.feedsportal.com/c/34520/f/632001/s/2943f7f3/l/0L0Slinuxinsider0N0Crsstory0C774560Bhtml/story01.htm
p613
sg73
g12
((I2013
I3
I6
I13
I0
I0
I2
I65
I0
t(dtRp614
sg49
VPrecise Puppy Is a Fast, Furious Distro
p615
sg76
g611
sg128
g595
sg129
(lp616
g1
(g2
g3
(dp617
g36
Vhttp://ectnews.com.feedsportal.com/c/34520/f/632001/index.rss
p618
sg19
g133
sg39
Nsg40
V<a href="http://www.linuxinsider.com/rsstory/77456.html"><img align="left" alt="" border="0" hspace="7" src="http://www.linuxinsider.com/images/rw164094/linux" /></a> Puppy Linux is a distro I keep coming back to. No matter how entrenched I become with any flavor of Ubuntu -- sans the Unity desktop -- or Linux Mint's Cinnamon and KDE desktops, nothing can beat the speed, convenience and reliability of Puppy Linux on a stick. Boot it directly from a hard drive or from an external drive; either method is fast and convenient with no dual boot menus required. Puppy barks impressively. The credit for that is its design to run in RAM rather than pull its code from slower physical or optical drives. <img border="0" height="1" src="http://ectnews.com.feedsportal.com/c/34520/f/632001/s/2943f7f3/mf.gif" width="1" /><br /><br /><a href="http://da.feedsportal.com/r/159490562576/u/0/f/632001/c/34520/s/2943f7f3/a2.htm"><img border="0" src="http://da.feedsportal.com/r/159490562576/u/0/f/632001/c/34520/s/2943f7f3/a2.img" /></a><img border="0" height="1" src="http://pi.feedsportal.com/r/159490562576/u/0/f/632001/c/34520/s/2943f7f3/a2t.img" width="1" />
p619
stRp620
asg136
I00
sS'title_detail'
p621
g1
(g2
g3
(dp622
g36
Vhttp://ectnews.com.feedsportal.com/c/34520/f/632001/index.rss
p623
sg19
g38
sg39
Nsg40
g615
stRp624
sg88
VWed, 06 Mar 2013 13:00:00 GMT
p625
sg142
(lp626
g144
aV*
ag145
astRp627
ag1
(g2
g3
(dp628
S'summary_detail'
p629
g1
(g2
g3
(dp630
g36
Vhttp://ectnews.com.feedsportal.com/c/34520/f/632001/index.rss
p631
sg19
g81
sg39
Nsg40
VServer provisioning and configuration management and automation are the latest examples of where the tech industry is being driven, largely by open source software. The leading open source server and IT infrastructure automation frameworks, Opscode Chef and Puppet Labs' Puppet, sit on the leading edge of significant trends under way in enterprise IT.<img border="0" height="1" src="http://ectnews.com.feedsportal.com/c/34520/f/632001/s/2943f7f2/mf.gif" width="1" /><br /><br /><a href="http://da.feedsportal.com/r/159490562575/u/0/f/632001/c/34520/s/2943f7f2/kg/342/a2.htm"><img border="0" src="http://da.feedsportal.com/r/159490562575/u/0/f/632001/c/34520/s/2943f7f2/kg/342/a2.img" /></a><img border="0" height="1" src="http://pi.feedsportal.com/r/159490562575/u/0/f/632001/c/34520/s/2943f7f2/kg/342/a2t.img" width="1" />
p632
stRp633
sg11
g12
((I2013
I3
I6
I13
I0
I0
I2
I65
I0
t(dtRp634
sg14
(lp635
g1
(g2
g3
(dp636
g17
Vhttp://ectnews.com.feedsportal.com/c/34520/f/632001/s/2943f7f2/l/0L0Slinuxinsider0N0Crsstory0C774580Bhtml/story01.htm
p637
sg19
g20
sg21
g22
stRp638
asg24
(lp639
g1
(g2
g3
(dp640
g27
VEnterprise
p641
sg29
Nsg30
NstRp642
asg7
V2013-03-06T13:00:00Z
p643
sg44
g637
sg52
(lp644
g1
(g2
g3
(dtRp645
asS'author_detail'
p646
g1
(g2
g3
(dp647
g63
VJay Lyman
p648
stRp649
sg124
Vhttp://ectnews.com.feedsportal.com/c/34520/f/632001/s/2943f7f2/l/0L0Slinuxinsider0N0Crsstory0C774580Bhtml/story01.htm
p650
sg73
g12
((I2013
I3
I6
I13
I0
I0
I2
I65
I0
t(dtRp651
sg49
VOpen Source's Deep Dive Into the Enterprise
p652
sg76
g648
sg128
g632
sg129
(lp653
g1
(g2
g3
(dp654
g36
Vhttp://ectnews.com.feedsportal.com/c/34520/f/632001/index.rss
p655
sg19
g133
sg39
Nsg40
V<a href="http://www.linuxinsider.com/rsstory/77458.html"><img align="left" alt="" border="0" hspace="7" src="http://www.linuxinsider.com/images/rw382375/devops" /></a> Server provisioning and configuration management and automation are the latest examples of where the tech industry is being driven, largely by open source software. The leading open source server and IT infrastructure automation frameworks, Opscode Chef and Puppet Labs' Puppet, sit on the leading edge of significant trends under way in enterprise IT -- particularly disruption from cloud computing and devops, where application development and IT operations come together for faster, smoother delivery of software and services. <img border="0" height="1" src="http://ectnews.com.feedsportal.com/c/34520/f/632001/s/2943f7f2/mf.gif" width="1" /><br /><br /><a href="http://da.feedsportal.com/r/159490562575/u/0/f/632001/c/34520/s/2943f7f2/kg/342/a2.htm"><img border="0" src="http://da.feedsportal.com/r/159490562575/u/0/f/632001/c/34520/s/2943f7f2/kg/342/a2.img" /></a><img border="0" height="1" src="http://pi.feedsportal.com/r/159490562575/u/0/f/632001/c/34520/s/2943f7f2/kg/342/a2t.img" width="1" />
p656
stRp657
asg136
I00
sS'title_detail'
p658
g1
(g2
g3
(dp659
g36
Vhttp://ectnews.com.feedsportal.com/c/34520/f/632001/index.rss
p660
sg19
g38
sg39
Nsg40
g652
stRp661
sg88
VWed, 06 Mar 2013 13:00:00 GMT
p662
sg142
(lp663
g144
aV*
ag145
astRp664
ag1
(g2
g3
(dp665
S'summary_detail'
p666
g1
(g2
g3
(dp667
g36
Vhttp://ectnews.com.feedsportal.com/c/34520/f/632001/index.rss
p668
sg19
g81
sg39
Nsg40
V<em>Blender Master Class</em> is a must-have for anyone who uses or even plans to use the Blender graphics tool. It is a learn-by-doing guidebook that takes all the frustration and guessing out of the Blender equation. Author Ben Simonds is a professional 3D artist and co-director of Gecko Animation Ltd.<img border="0" height="1" src="http://ectnews.com.feedsportal.com/c/34520/f/632001/s/2939096a/mf.gif" width="1" /><br /><br /><a href="http://da.feedsportal.com/r/159490340195/u/0/f/632001/c/34520/s/2939096a/a2.htm"><img border="0" src="http://da.feedsportal.com/r/159490340195/u/0/f/632001/c/34520/s/2939096a/a2.img" /></a><img border="0" height="1" src="http://pi.feedsportal.com/r/159490340195/u/0/f/632001/c/34520/s/2939096a/a2t.img" width="1" />
p669
stRp670
sg11
g12
((I2013
I3
I5
I13
I0
I0
I1
I64
I0
t(dtRp671
sg14
(lp672
g1
(g2
g3
(dp673
g17
Vhttp://ectnews.com.feedsportal.com/c/34520/f/632001/s/2939096a/l/0L0Slinuxinsider0N0Crsstory0C774380Bhtml/story01.htm
p674
sg19
g20
sg21
g22
stRp675
asg24
(lp676
g1
(g2
g3
(dp677
g27
VReviews
p678
sg29
Nsg30
NstRp679
asg7
V2013-03-05T13:00:00Z
p680
sg44
g674
sg52
(lp681
g1
(g2
g3
(dtRp682
asS'author_detail'
p683
g1
(g2
g3
(dp684
g63
VJack M. Germain
p685
stRp686
sg124
Vhttp://ectnews.com.feedsportal.com/c/34520/f/632001/s/2939096a/l/0L0Slinuxinsider0N0Crsstory0C774380Bhtml/story01.htm
p687
sg73
g12
((I2013
I3
I5
I13
I0
I0
I1
I64
I0
t(dtRp688
sg49
V'Blender Master Class' Gets A+ in 3D Graphics Instruction
p689
sg76
g685
sg128
g669
sg129
(lp690
g1
(g2
g3
(dp691
g36
Vhttp://ectnews.com.feedsportal.com/c/34520/f/632001/index.rss
p692
sg19
g133
sg39
Nsg40
V<a href="http://www.linuxinsider.com/rsstory/77438.html"><img align="left" alt="" border="0" hspace="7" src="http://www.linuxinsider.com/images/rw640022/graphics" /></a> <em>Blender Master Class</em> is a must-have for anyone who uses or even plans to use the Blender graphics tool. It is a learn-by-doing guidebook that takes all the frustration and guessing out of the Blender equation. Author Ben Simonds does a marvelous job of taking the wonder out of using the powerful Blender features. He is a professional 3D artist and co-director of Gecko Animation Ltd., a post-production and computer animation company based in London. <img border="0" height="1" src="http://ectnews.com.feedsportal.com/c/34520/f/632001/s/2939096a/mf.gif" width="1" /><br /><br /><a href="http://da.feedsportal.com/r/159490340195/u/0/f/632001/c/34520/s/2939096a/a2.htm"><img border="0" src="http://da.feedsportal.com/r/159490340195/u/0/f/632001/c/34520/s/2939096a/a2.img" /></a><img border="0" height="1" src="http://pi.feedsportal.com/r/159490340195/u/0/f/632001/c/34520/s/2939096a/a2t.img" width="1" />
p693
stRp694
asg136
I00
sS'title_detail'
p695
g1
(g2
g3
(dp696
g36
Vhttp://ectnews.com.feedsportal.com/c/34520/f/632001/index.rss
p697
sg19
g38
sg39
Nsg40
g689
stRp698
sg88
VTue, 05 Mar 2013 13:00:00 GMT
p699
sg142
(lp700
g144
aV*
ag145
astRp701
ag1
(g2
g3
(dp702
S'summary_detail'
p703
g1
(g2
g3
(dp704
g36
Vhttp://ectnews.com.feedsportal.com/c/34520/f/632001/index.rss
p705
sg19
g81
sg39
Nsg40
VSamsung is poised to introduce the next generation of its flagship Galaxy smartphone next week in New York City. It will be the first U.S. launch of a Galaxy handset in three years, and Samsung is heralding it with a "Samsung Unpacked" advertising blitz. It's official that Samsung will debut the Galaxy S IV, but apart from the name, all the details circulating are still rumor.<img border="0" height="1" src="http://ectnews.com.feedsportal.com/c/34520/f/632001/s/2932e0f8/mf.gif" width="1" /><br /><br /><a href="http://da.feedsportal.com/r/159490129192/u/0/f/632001/c/34520/s/2932e0f8/a2.htm"><img border="0" src="http://da.feedsportal.com/r/159490129192/u/0/f/632001/c/34520/s/2932e0f8/a2.img" /></a><img border="0" height="1" src="http://pi.feedsportal.com/r/159490129192/u/0/f/632001/c/34520/s/2932e0f8/a2t.img" width="1" />
p706
stRp707
sg11
g12
((I2013
I3
I4
I22
I14
I9
I0
I63
I0
t(dtRp708
sg14
(lp709
g1
(g2
g3
(dp710
g17
Vhttp://ectnews.com.feedsportal.com/c/34520/f/632001/s/2932e0f8/l/0L0Slinuxinsider0N0Crsstory0C774360Bhtml/story01.htm
p711
sg19
g20
sg21
g22
stRp712
asg24
(lp713
g1
(g2
g3
(dp714
g27
VSmartphones
p715
sg29
Nsg30
NstRp716
asg7
V2013-03-04T22:14:09Z
p717
sg44
g711
sg52
(lp718
g1
(g2
g3
(dtRp719
asS'author_detail'
p720
g1
(g2
g3
(dp721
g63
VPeter Suciu
p722
stRp723
sg124
Vhttp://ectnews.com.feedsportal.com/c/34520/f/632001/s/2932e0f8/l/0L0Slinuxinsider0N0Crsstory0C774360Bhtml/story01.htm
p724
sg73
g12
((I2013
I3
I4
I22
I14
I9
I0
I63
I0
t(dtRp725
sg49
VRumored Specs, Tantalizing Ad Fuel Galaxy S IV Launch Excitement
p726
sg76
g722
sg128
g706
sg129
(lp727
g1
(g2
g3
(dp728
g36
Vhttp://ectnews.com.feedsportal.com/c/34520/f/632001/index.rss
p729
sg19
g133
sg39
Nsg40
V<a href="http://www.linuxinsider.com/rsstory/77436.html"><img align="left" alt="" border="0" hspace="7" src="http://www.linuxinsider.com/images/rw969817/samsung-galaxy-smartphone" /></a> Samsung is poised to introduce the next generation of its flagship Galaxy smartphone next week in New York City. It will be the first U.S. launch of a Galaxy handset in three years, and Samsung is heralding it with a "Samsung Unpacked" advertising blitz. It's official that Samsung will debut the Galaxy S IV, but apart from the name, all the details circulating are still rumor. It is widely believed that it will have a 5-inch full HD super AMOLED display and be powered by an Exynos 5 Quad 5440 mobile processor. <img border="0" height="1" src="http://ectnews.com.feedsportal.com/c/34520/f/632001/s/2932e0f8/mf.gif" width="1" /><br /><br /><a href="http://da.feedsportal.com/r/159490129192/u/0/f/632001/c/34520/s/2932e0f8/a2.htm"><img border="0" src="http://da.feedsportal.com/r/159490129192/u/0/f/632001/c/34520/s/2932e0f8/a2.img" /></a><img border="0" height="1" src="http://pi.feedsportal.com/r/159490129192/u/0/f/632001/c/34520/s/2932e0f8/a2t.img" width="1" />
p730
stRp731
asg136
I00
sS'title_detail'
p732
g1
(g2
g3
(dp733
g36
Vhttp://ectnews.com.feedsportal.com/c/34520/f/632001/index.rss
p734
sg19
g38
sg39
Nsg40
g726
stRp735
sg88
VMon, 04 Mar 2013 22:14:09 GMT
p736
sg142
(lp737
g144
aV*
ag145
astRp738
ag1
(g2
g3
(dp739
S'summary_detail'
p740
g1
(g2
g3
(dp741
g36
Vhttp://ectnews.com.feedsportal.com/c/34520/f/632001/index.rss
p742
sg19
g81
sg39
Nsg40
VIBM just announced SmartCloud Orchestrator -- a massive open source initiative designed to help companies better balance public and private cloud resources and even switch vendors. This is in sharp contrast to the lock-in strategy that IBM used to found the technology segment -- largely because IBM learned the hard way that lock-in, while tactically sound, is strategically stupid.<img border="0" height="1" src="http://ectnews.com.feedsportal.com/c/34520/f/632001/s/2930003c/mf.gif" width="1" /><br /><br /><a href="http://da.feedsportal.com/r/159489892092/u/0/f/632001/c/34520/s/2930003c/a2.htm"><img border="0" src="http://da.feedsportal.com/r/159489892092/u/0/f/632001/c/34520/s/2930003c/a2.img" /></a><img border="0" height="1" src="http://pi.feedsportal.com/r/159489892092/u/0/f/632001/c/34520/s/2930003c/a2t.img" width="1" />
p743
stRp744
sg11
g12
((I2013
I3
I4
I13
I0
I0
I0
I63
I0
t(dtRp745
sg14
(lp746
g1
(g2
g3
(dp747
g17
Vhttp://ectnews.com.feedsportal.com/c/34520/f/632001/s/2930003c/l/0L0Slinuxinsider0N0Crsstory0C774250Bhtml/story01.htm
p748
sg19
g20
sg21
g22
stRp749
asg24
(lp750
g1
(g2
g3
(dp751
g27
VTech Buzz
p752
sg29
Nsg30
NstRp753
asg7
V2013-03-04T13:00:00Z
p754
sg44
g748
sg52
(lp755
g1
(g2
g3
(dtRp756
asS'author_detail'
p757
g1
(g2
g3
(dp758
g63
VRob Enderle
p759
stRp760
sg124
Vhttp://ectnews.com.feedsportal.com/c/34520/f/632001/s/2930003c/l/0L0Slinuxinsider0N0Crsstory0C774250Bhtml/story01.htm
p761
sg73
g12
((I2013
I3
I4
I13
I0
I0
I0
I63
I0
t(dtRp762
sg49
VIBM: Giving Open a Smarter Strategic Advantage
p763
sg76
g759
sg128
g743
sg129
(lp764
g1
(g2
g3
(dp765
g36
Vhttp://ectnews.com.feedsportal.com/c/34520/f/632001/index.rss
p766
sg19
g133
sg39
Nsg40
V<a href="http://www.linuxinsider.com/rsstory/77425.html"><img align="left" alt="" border="0" hspace="7" src="http://www.linuxinsider.com/images/rw279258/ibm-cloud-open" /></a> IBM just announced SmartCloud Orchestrator -- a massive open source initiative designed to help companies better balance public and private cloud resources and even switch vendors. This is in sharp contrast to the lock-in strategy that IBM used to found the technology segment -- largely because IBM learned the hard way that lock-in, while tactically sound, is strategically stupid. It also learned that on an even playing field, it still has a significant advantage over everyone else in most of its segments. <img border="0" height="1" src="http://ectnews.com.feedsportal.com/c/34520/f/632001/s/2930003c/mf.gif" width="1" /><br /><br /><a href="http://da.feedsportal.com/r/159489892092/u/0/f/632001/c/34520/s/2930003c/a2.htm"><img border="0" src="http://da.feedsportal.com/r/159489892092/u/0/f/632001/c/34520/s/2930003c/a2.img" /></a><img border="0" height="1" src="http://pi.feedsportal.com/r/159489892092/u/0/f/632001/c/34520/s/2930003c/a2t.img" width="1" />
p767
stRp768
asg136
I00
sS'title_detail'
p769
g1
(g2
g3
(dp770
g36
Vhttp://ectnews.com.feedsportal.com/c/34520/f/632001/index.rss
p771
sg19
g38
sg39
Nsg40
g763
stRp772
sg88
VMon, 04 Mar 2013 13:00:00 GMT
p773
sg142
(lp774
g144
aV*
ag145
astRp775
ag1
(g2
g3
(dp776
S'summary_detail'
p777
g1
(g2
g3
(dp778
g36
Vhttp://ectnews.com.feedsportal.com/c/34520/f/632001/index.rss
p779
sg19
g81
sg39
Nsg40
VWell March has arrived here in the Linux blogosphere and with it, widespread hopes for the rebirth and renewal of spring. Linux Girl wishes she could say things have been calm and tranquil over the past few days, but of course they haven't -- this is the Linux community we're talking about, after all. There have been many trials and tribulations for Linux fans recently.<img border="0" height="1" src="http://ectnews.com.feedsportal.com/c/34520/f/632001/s/292ea030/mf.gif" width="1" /><br /><br /><a href="http://da.feedsportal.com/r/159490114702/u/0/f/632001/c/34520/s/292ea030/a2.htm"><img border="0" src="http://da.feedsportal.com/r/159490114702/u/0/f/632001/c/34520/s/292ea030/a2.img" /></a><img border="0" height="1" src="http://pi.feedsportal.com/r/159490114702/u/0/f/632001/c/34520/s/292ea030/a2t.img" width="1" />
p780
stRp781
sg11
g12
((I2013
I3
I4
I13
I0
I0
I0
I63
I0
t(dtRp782
sg14
(lp783
g1
(g2
g3
(dp784
g17
Vhttp://ectnews.com.feedsportal.com/c/34520/f/632001/s/292ea030/l/0L0Slinuxinsider0N0Crsstory0C774330Bhtml/story01.htm
p785
sg19
g20
sg21
g22
stRp786
asg24
(lp787
g1
(g2
g3
(dp788
g27
VCommunity
p789
sg29
Nsg30
NstRp790
asg7
V2013-03-04T13:00:00Z
p791
sg44
g785
sg52
(lp792
g1
(g2
g3
(dtRp793
asS'author_detail'
p794
g1
(g2
g3
(dp795
g63
VKatherine Noyes
p796
stRp797
sg124
Vhttp://ectnews.com.feedsportal.com/c/34520/f/632001/s/292ea030/l/0L0Slinuxinsider0N0Crsstory0C774330Bhtml/story01.htm
p798
sg73
g12
((I2013
I3
I4
I13
I0
I0
I0
I63
I0
t(dtRp799
sg49
VAdvocating for Linux on the Front Lines and in the Kernel
p800
sg76
g796
sg128
g780
sg129
(lp801
g1
(g2
g3
(dp802
g36
Vhttp://ectnews.com.feedsportal.com/c/34520/f/632001/index.rss
p803
sg19
g133
sg39
Nsg40
V<a href="http://www.linuxinsider.com/rsstory/77433.html"><img align="left" alt="" border="0" hspace="7" src="http://www.linuxinsider.com/images/rw400229/secure-boot-linux" /></a> Well March has arrived here in the Linux blogosphere and with it, widespread hopes for the rebirth and renewal of spring. Linux Girl wishes she could say things have been calm and tranquil over the past few days, but of course they haven't -- this is the Linux community we're talking about, after all. There have been many trials and tribulations for Linux fans recently, as is pretty much the norm, but surely the one weighing heaviest on Linux Girl's mind is the fate of Linux Advocates, a fledgling site that may be compared to the springtime chick of the Linux news world. <img border="0" height="1" src="http://ectnews.com.feedsportal.com/c/34520/f/632001/s/292ea030/mf.gif" width="1" /><br /><br /><a href="http://da.feedsportal.com/r/159490114702/u/0/f/632001/c/34520/s/292ea030/a2.htm"><img border="0" src="http://da.feedsportal.com/r/159490114702/u/0/f/632001/c/34520/s/292ea030/a2.img" /></a><img border="0" height="1" src="http://pi.feedsportal.com/r/159490114702/u/0/f/632001/c/34520/s/292ea030/a2t.img" width="1" />
p804
stRp805
asg136
I00
sS'title_detail'
p806
g1
(g2
g3
(dp807
g36
Vhttp://ectnews.com.feedsportal.com/c/34520/f/632001/index.rss
p808
sg19
g38
sg39
Nsg40
g800
stRp809
sg88
VMon, 04 Mar 2013 13:00:00 GMT
p810
sg142
(lp811
g144
aV*
ag145
astRp812
ag1
(g2
g3
(dp813
S'summary_detail'
p814
g1
(g2
g3
(dp815
g36
Vhttp://ectnews.com.feedsportal.com/c/34520/f/632001/index.rss
p816
sg19
g81
sg39
Nsg40
VHave you ever considered becoming a cartographer? It's not as hard as you might think. I've been trying out OruxMaps, a map viewer for Android that functions two ways. One mode is online with the usual suspects like Google maps, OpenStreetMap, and so on; the second and more intriguing method is offline with maps you've created yourself. Creating your own maps, while not hard, is a project.<img border="0" height="1" src="http://ectnews.com.feedsportal.com/c/34520/f/632001/s/29186884/mf.gif" width="1" /><br /><br /><a href="http://da.feedsportal.com/r/159490405107/u/0/f/632001/c/34520/s/29186884/a2.htm"><img border="0" src="http://da.feedsportal.com/r/159490405107/u/0/f/632001/c/34520/s/29186884/a2.img" /></a><img border="0" height="1" src="http://pi.feedsportal.com/r/159490405107/u/0/f/632001/c/34520/s/29186884/a2t.img" width="1" />
p817
stRp818
sg11
g12
((I2013
I3
I1
I13
I0
I0
I4
I60
I0
t(dtRp819
sg14
(lp820
g1
(g2
g3
(dp821
g17
Vhttp://ectnews.com.feedsportal.com/c/34520/f/632001/s/29186884/l/0L0Slinuxinsider0N0Crsstory0C773980Bhtml/story01.htm
p822
sg19
g20
sg21
g22
stRp823
asg24
(lp824
g1
(g2
g3
(dp825
g27
VReviews
p826
sg29
Nsg30
NstRp827
asg7
V2013-03-01T13:00:00Z
p828
sg44
g822
sg52
(lp829
g1
(g2
g3
(dtRp830
asS'author_detail'
p831
g1
(g2
g3
(dp832
g63
VPatrick Nelson
p833
stRp834
sg124
Vhttp://ectnews.com.feedsportal.com/c/34520/f/632001/s/29186884/l/0L0Slinuxinsider0N0Crsstory0C773980Bhtml/story01.htm
p835
sg73
g12
((I2013
I3
I1
I13
I0
I0
I4
I60
I0
t(dtRp836
sg49
VOruxMaps Lets You Go as Far as Your Mapmaking Skill Takes You
p837
sg76
g833
sg128
g817
sg129
(lp838
g1
(g2
g3
(dp839
g36
Vhttp://ectnews.com.feedsportal.com/c/34520/f/632001/index.rss
p840
sg19
g133
sg39
Nsg40
V<a href="http://www.linuxinsider.com/rsstory/77398.html"><img align="left" alt="" border="0" hspace="7" src="http://www.linuxinsider.com/images/rw170622/map-app" /></a> Have you ever considered becoming a cartographer? It's not as hard as you might think. I've been trying out OruxMaps, a map viewer for Android that functions two ways. One mode is online with the usual suspects like Google maps, OpenStreetMap, and so on; the second and more intriguing method is offline with maps you've created yourself. Creating your own maps, while not hard, is a project. Trip-ups stem from the fact that the Earth is round, while electronic screens and paper are flat, so you need to come to grips with projections. <img border="0" height="1" src="http://ectnews.com.feedsportal.com/c/34520/f/632001/s/29186884/mf.gif" width="1" /><br /><br /><a href="http://da.feedsportal.com/r/159490405107/u/0/f/632001/c/34520/s/29186884/a2.htm"><img border="0" src="http://da.feedsportal.com/r/159490405107/u/0/f/632001/c/34520/s/29186884/a2.img" /></a><img border="0" height="1" src="http://pi.feedsportal.com/r/159490405107/u/0/f/632001/c/34520/s/29186884/a2t.img" width="1" />
p841
stRp842
asg136
I00
sS'title_detail'
p843
g1
(g2
g3
(dp844
g36
Vhttp://ectnews.com.feedsportal.com/c/34520/f/632001/index.rss
p845
sg19
g38
sg39
Nsg40
g837
stRp846
sg88
VFri, 01 Mar 2013 13:00:00 GMT
p847
sg142
(lp848
g144
aV*
ag145
astRp849
ag1
(g2
g3
(dp850
S'summary_detail'
p851
g1
(g2
g3
(dp852
g36
Vhttp://ectnews.com.feedsportal.com/c/34520/f/632001/index.rss
p853
sg19
g81
sg39
Nsg40
VHere in the Linux community, most of us enjoy high-level debates about strategies and trends just as much as the next technology enthusiast does. At the end of the day, however, it seems safe to say that what we tend to relish most of all is a good ol' nuts-and-bolts discussion of the tools and tricks of the trade.<img border="0" height="1" src="http://ectnews.com.feedsportal.com/c/34520/f/632001/s/290ec3c3/mf.gif" width="1" /><br /><br /><a href="http://da.feedsportal.com/r/159489771289/u/0/f/632001/c/34520/s/290ec3c3/a2.htm"><img border="0" src="http://da.feedsportal.com/r/159489771289/u/0/f/632001/c/34520/s/290ec3c3/a2.img" /></a><img border="0" height="1" src="http://pi.feedsportal.com/r/159489771289/u/0/f/632001/c/34520/s/290ec3c3/a2t.img" width="1" />
p854
stRp855
sg11
g12
((I2013
I2
I28
I13
I0
I0
I3
I59
I0
t(dtRp856
sg14
(lp857
g1
(g2
g3
(dp858
g17
Vhttp://ectnews.com.feedsportal.com/c/34520/f/632001/s/290ec3c3/l/0L0Slinuxinsider0N0Crsstory0C774140Bhtml/story01.htm
p859
sg19
g20
sg21
g22
stRp860
asg24
(lp861
g1
(g2
g3
(dp862
g27
VCommunity
p863
sg29
Nsg30
NstRp864
asg7
V2013-02-28T13:00:00Z
p865
sg44
g859
sg52
(lp866
g1
(g2
g3
(dtRp867
asS'author_detail'
p868
g1
(g2
g3
(dp869
g63
VKatherine Noyes
p870
stRp871
sg124
Vhttp://ectnews.com.feedsportal.com/c/34520/f/632001/s/290ec3c3/l/0L0Slinuxinsider0N0Crsstory0C774140Bhtml/story01.htm
p872
sg73
g12
((I2013
I2
I28
I13
I0
I0
I3
I59
I0
t(dtRp873
sg49
VLinux Admin Tips, Tricks and Tools of the Trade
p874
sg76
g870
sg128
g854
sg129
(lp875
g1
(g2
g3
(dp876
g36
Vhttp://ectnews.com.feedsportal.com/c/34520/f/632001/index.rss
p877
sg19
g133
sg39
Nsg40
V<a href="http://www.linuxinsider.com/rsstory/77414.html"><img align="left" alt="" border="0" hspace="7" src="http://www.linuxinsider.com/images/rw136092/linux-admin" /></a> Here in the Linux community, most of us enjoy high-level debates about strategies and trends just as much as the next technology enthusiast does. At the end of the day, however, it seems safe to say that what we tend to relish most of all is a good ol' nuts-and-bolts discussion of the tools and tricks of the trade. So it was with great enthusiasm that Linux fans came upon a recent article inviting them to weigh in on the tools and tricks they considered indispensable. <img border="0" height="1" src="http://ectnews.com.feedsportal.com/c/34520/f/632001/s/290ec3c3/mf.gif" width="1" /><br /><br /><a href="http://da.feedsportal.com/r/159489771289/u/0/f/632001/c/34520/s/290ec3c3/a2.htm"><img border="0" src="http://da.feedsportal.com/r/159489771289/u/0/f/632001/c/34520/s/290ec3c3/a2.img" /></a><img border="0" height="1" src="http://pi.feedsportal.com/r/159489771289/u/0/f/632001/c/34520/s/290ec3c3/a2t.img" width="1" />
p878
stRp879
asg136
I00
sS'title_detail'
p880
g1
(g2
g3
(dp881
g36
Vhttp://ectnews.com.feedsportal.com/c/34520/f/632001/index.rss
p882
sg19
g38
sg39
Nsg40
g874
stRp883
sg88
VThu, 28 Feb 2013 13:00:00 GMT
p884
sg142
(lp885
g144
aV*
ag145
astRp886
ag1
(g2
g3
(dp887
S'summary_detail'
p888
g1
(g2
g3
(dp889
g36
Vhttp://ectnews.com.feedsportal.com/c/34520/f/632001/index.rss
p890
sg19
g81
sg39
Nsg40
VIf you subscribe to the view, "if it ain't broke, don't fix it," perhaps Fuduntu is the Linux distro most ideal to your computing needs. Fuduntu was first released in 2010 as a Fedora-based Linux distribution. Its developers forked it the following year. The result is a Linux distro that has a user desktop experience somewhere between Fedora's functionality and Ubuntu's user-friendliness.<img border="0" height="1" src="http://ectnews.com.feedsportal.com/c/34520/f/632001/s/2903df40/mf.gif" width="1" /><br /><br /><a href="http://da.feedsportal.com/r/159490327989/u/0/f/632001/c/34520/s/2903df40/kg/340/a2.htm"><img border="0" src="http://da.feedsportal.com/r/159490327989/u/0/f/632001/c/34520/s/2903df40/kg/340/a2.img" /></a><img border="0" height="1" src="http://pi.feedsportal.com/r/159490327989/u/0/f/632001/c/34520/s/2903df40/kg/340/a2t.img" width="1" />
p891
stRp892
sg11
g12
((I2013
I2
I27
I13
I0
I0
I2
I58
I0
t(dtRp893
sg14
(lp894
g1
(g2
g3
(dp895
g17
Vhttp://ectnews.com.feedsportal.com/c/34520/f/632001/s/2903df40/l/0L0Slinuxinsider0N0Crsstory0C773970Bhtml/story01.htm
p896
sg19
g20
sg21
g22
stRp897
asg24
(lp898
g1
(g2
g3
(dp899
g27
VReviews
p900
sg29
Nsg30
NstRp901
asg7
V2013-02-27T13:00:00Z
p902
sg44
g896
sg52
(lp903
g1
(g2
g3
(dtRp904
asS'author_detail'
p905
g1
(g2
g3
(dp906
g63
VJack M. Germain
p907
stRp908
sg124
Vhttp://ectnews.com.feedsportal.com/c/34520/f/632001/s/2903df40/l/0L0Slinuxinsider0N0Crsstory0C773970Bhtml/story01.htm
p909
sg73
g12
((I2013
I2
I27
I13
I0
I0
I2
I58
I0
t(dtRp910
sg49
VFuduntu: An Innovative Old Linux Revisited
p911
sg76
g907
sg128
g891
sg129
(lp912
g1
(g2
g3
(dp913
g36
Vhttp://ectnews.com.feedsportal.com/c/34520/f/632001/index.rss
p914
sg19
g133
sg39
Nsg40
V<a href="http://www.linuxinsider.com/rsstory/77397.html"><img align="left" alt="" border="0" hspace="7" src="http://www.linuxinsider.com/images/rw908455/linux" /></a> If you subscribe to the view, "if it ain't broke, don't fix it," perhaps Fuduntu is the Linux distro most ideal to your computing needs. Fuduntu was first released in 2010 as a Fedora-based Linux distribution. Its developers forked it the following year. The result is a Linux distro that has a user desktop experience somewhere between Fedora's functionality and Ubuntu's user-friendliness. As part of its Fedora roots, Fuduntu uses the Yum packager manager. <img border="0" height="1" src="http://ectnews.com.feedsportal.com/c/34520/f/632001/s/2903df40/mf.gif" width="1" /><br /><br /><a href="http://da.feedsportal.com/r/159490327989/u/0/f/632001/c/34520/s/2903df40/kg/340/a2.htm"><img border="0" src="http://da.feedsportal.com/r/159490327989/u/0/f/632001/c/34520/s/2903df40/kg/340/a2.img" /></a><img border="0" height="1" src="http://pi.feedsportal.com/r/159490327989/u/0/f/632001/c/34520/s/2903df40/kg/340/a2t.img" width="1" />
p915
stRp916
asg136
I00
sS'title_detail'
p917
g1
(g2
g3
(dp918
g36
Vhttp://ectnews.com.feedsportal.com/c/34520/f/632001/index.rss
p919
sg19
g38
sg39
Nsg40
g911
stRp920
sg88
VWed, 27 Feb 2013 13:00:00 GMT
p921
sg142
(lp922
g144
aV*
ag145
astRp923
ag1
(g2
g3
(dp924
S'summary_detail'
p925
g1
(g2
g3
(dp926
g36
Vhttp://ectnews.com.feedsportal.com/c/34520/f/632001/index.rss
p927
sg19
g81
sg39
Nsg40
VOpenGamma is the developer of the first open source analytics and risk management platform for the financial services industry. Its products help companies explore flexible open source alternatives to conventional and costly risk analytics tools. The OpenGamma Platform is a unified system for front office and risk calculations for financial services firms.<img border="0" height="1" src="http://ectnews.com.feedsportal.com/c/34520/f/632001/s/28f940b4/mf.gif" width="1" /><br /><br /><a href="http://da.feedsportal.com/r/159489692718/u/0/f/632001/c/34520/s/28f940b4/a2.htm"><img border="0" src="http://da.feedsportal.com/r/159489692718/u/0/f/632001/c/34520/s/28f940b4/a2.img" /></a><img border="0" height="1" src="http://pi.feedsportal.com/r/159489692718/u/0/f/632001/c/34520/s/28f940b4/a2t.img" width="1" />
p928
stRp929
sg11
g12
((I2013
I2
I26
I13
I0
I0
I1
I57
I0
t(dtRp930
sg14
(lp931
g1
(g2
g3
(dp932
g17
Vhttp://ectnews.com.feedsportal.com/c/34520/f/632001/s/28f940b4/l/0L0Slinuxinsider0N0Crsstory0C773870Bhtml/story01.htm
p933
sg19
g20
sg21
g22
stRp934
asg24
(lp935
g1
(g2
g3
(dp936
g27
VDevelopers
p937
sg29
Nsg30
NstRp938
asg7
V2013-02-26T13:00:00Z
p939
sg44
g933
sg52
(lp940
g1
(g2
g3
(dtRp941
asS'author_detail'
p942
g1
(g2
g3
(dp943
g63
VJack M. Germain
p944
stRp945
sg124
Vhttp://ectnews.com.feedsportal.com/c/34520/f/632001/s/28f940b4/l/0L0Slinuxinsider0N0Crsstory0C773870Bhtml/story01.htm
p946
sg73
g12
((I2013
I2
I26
I13
I0
I0
I1
I57
I0
t(dtRp947
sg49
VOpenGamma's Kirk Wylie: Open Source Is Busting Out All Over
p948
sg76
g944
sg128
g928
sg129
(lp949
g1
(g2
g3
(dp950
g36
Vhttp://ectnews.com.feedsportal.com/c/34520/f/632001/index.rss
p951
sg19
g133
sg39
Nsg40
V<a href="http://www.linuxinsider.com/rsstory/77387.html"><img align="left" alt="" border="0" hspace="7" src="http://www.linuxinsider.com/images/rw420888/linux" /></a> OpenGamma is the developer of the first open source analytics and risk management platform for the financial services industry. Its products help companies explore flexible open source alternatives to conventional and costly risk analytics tools. The OpenGamma Platform is a unified system for front office and risk calculations for financial services firms. It combines data management, a declarative calculation engine, and analytics in a single comprehensive solution. <img border="0" height="1" src="http://ectnews.com.feedsportal.com/c/34520/f/632001/s/28f940b4/mf.gif" width="1" /><br /><br /><a href="http://da.feedsportal.com/r/159489692718/u/0/f/632001/c/34520/s/28f940b4/a2.htm"><img border="0" src="http://da.feedsportal.com/r/159489692718/u/0/f/632001/c/34520/s/28f940b4/a2.img" /></a><img border="0" height="1" src="http://pi.feedsportal.com/r/159489692718/u/0/f/632001/c/34520/s/28f940b4/a2t.img" width="1" />
p952
stRp953
asg136
I00
sS'title_detail'
p954
g1
(g2
g3
(dp955
g36
Vhttp://ectnews.com.feedsportal.com/c/34520/f/632001/index.rss
p956
sg19
g38
sg39
Nsg40
g948
stRp957
sg88
VTue, 26 Feb 2013 13:00:00 GMT
p958
sg142
(lp959
g144
aV*
ag145
astRp960
ag1
(g2
g3
(dp961
S'summary_detail'
p962
g1
(g2
g3
(dp963
g36
Vhttp://ectnews.com.feedsportal.com/c/34520/f/632001/index.rss
p964
sg19
g81
sg39
Nsg40
VSony introduced the Xperia Tablet Z on Monday, touting its thin form factor and powerful components at the Mobile World Congress in Barcelona. Sony has been in the tablet market since 2011, when it introduced the Android-powered Tablet S, but the company now seems to be making a more serious play.<img border="0" height="1" src="http://ectnews.com.feedsportal.com/c/34520/f/632001/s/28f336c7/mf.gif" width="1" /><br /><br /><a href="http://da.feedsportal.com/r/158873309341/u/0/f/632001/c/34520/s/28f336c7/a2.htm"><img border="0" src="http://da.feedsportal.com/r/158873309341/u/0/f/632001/c/34520/s/28f336c7/a2.img" /></a><img border="0" height="1" src="http://pi.feedsportal.com/r/158873309341/u/0/f/632001/c/34520/s/28f336c7/a2t.img" width="1" />
p965
stRp966
sg11
g12
((I2013
I2
I25
I22
I24
I32
I0
I56
I0
t(dtRp967
sg14
(lp968
g1
(g2
g3
(dp969
g17
Vhttp://ectnews.com.feedsportal.com/c/34520/f/632001/s/28f336c7/l/0L0Slinuxinsider0N0Crsstory0C773850Bhtml/story01.htm
p970
sg19
g20
sg21
g22
stRp971
asg24
(lp972
g1
(g2
g3
(dp973
g27
VTablets
p974
sg29
Nsg30
NstRp975
asg7
V2013-02-25T22:24:32Z
p976
sg44
g970
sg52
(lp977
g1
(g2
g3
(dtRp978
asS'author_detail'
p979
g1
(g2
g3
(dp980
g63
VPeter Suciu
p981
stRp982
sg124
Vhttp://ectnews.com.feedsportal.com/c/34520/f/632001/s/28f336c7/l/0L0Slinuxinsider0N0Crsstory0C773850Bhtml/story01.htm
p983
sg73
g12
((I2013
I2
I25
I22
I24
I32
I0
I56
I0
t(dtRp984
sg49
VSony's Xperia Tablet Z Can Really Make a Splash
p985
sg76
g981
sg128
g965
sg129
(lp986
g1
(g2
g3
(dp987
g36
Vhttp://ectnews.com.feedsportal.com/c/34520/f/632001/index.rss
p988
sg19
g133
sg39
Nsg40
V<a href="http://www.linuxinsider.com/rsstory/77385.html"><img align="left" alt="" border="0" hspace="7" src="http://www.linuxinsider.com/images/rw695112/sony-tablet" /></a> Sony introduced the Xperia Tablet Z on Monday, touting its thin form factor and powerful components at the Mobile World Congress in Barcelona. Sony has been in the tablet market since 2011, when it introduced the Android-powered Tablet S, but the company now seems to be making a more serious play. The 10.1-inch Xperia Tablet Z, which features a sleek design and a water-resistant case, is the world's thinnest tablet, according to Sony, at just 6.9mm. It weighs 1.1 lbs. <img border="0" height="1" src="http://ectnews.com.feedsportal.com/c/34520/f/632001/s/28f336c7/mf.gif" width="1" /><br /><br /><a href="http://da.feedsportal.com/r/158873309341/u/0/f/632001/c/34520/s/28f336c7/a2.htm"><img border="0" src="http://da.feedsportal.com/r/158873309341/u/0/f/632001/c/34520/s/28f336c7/a2.img" /></a><img border="0" height="1" src="http://pi.feedsportal.com/r/158873309341/u/0/f/632001/c/34520/s/28f336c7/a2t.img" width="1" />
p989
stRp990
asg136
I00
sS'title_detail'
p991
g1
(g2
g3
(dp992
g36
Vhttp://ectnews.com.feedsportal.com/c/34520/f/632001/index.rss
p993
sg19
g38
sg39
Nsg40
g985
stRp994
sg88
VMon, 25 Feb 2013 22:24:32 GMT
p995
sg142
(lp996
g144
aV*
ag145
astRp997
ag1
(g2
g3
(dp998
S'summary_detail'
p999
g1
(g2
g3
(dp1000
g36
Vhttp://ectnews.com.feedsportal.com/c/34520/f/632001/index.rss
p1001
sg19
g81
sg39
Nsg40
VSix weeks have passed since Canonical's splashy debut of Ubuntu for phones, but for many here in the Linux blogosphere, the memory is still crystal-clear. It came as some surprise, then, to see follow-up news announced so soon afterward. The news this time? None other than Ubuntu for tablets.<img border="0" height="1" src="http://ectnews.com.feedsportal.com/c/34520/f/632001/s/28eea800/mf.gif" width="1" /><br /><br /><a href="http://da.feedsportal.com/r/158873293424/u/0/f/632001/c/34520/s/28eea800/kg/342/a2.htm"><img border="0" src="http://da.feedsportal.com/r/158873293424/u/0/f/632001/c/34520/s/28eea800/kg/342/a2.img" /></a><img border="0" height="1" src="http://pi.feedsportal.com/r/158873293424/u/0/f/632001/c/34520/s/28eea800/kg/342/a2t.img" width="1" />
p1002
stRp1003
sg11
g12
((I2013
I2
I25
I13
I0
I0
I0
I56
I0
t(dtRp1004
sg14
(lp1005
g1
(g2
g3
(dp1006
g17
Vhttp://ectnews.com.feedsportal.com/c/34520/f/632001/s/28eea800/l/0L0Slinuxinsider0N0Crsstory0C773830Bhtml/story01.htm
p1007
sg19
g20
sg21
g22
stRp1008
asg24
(lp1009
g1
(g2
g3
(dp1010
g27
VCommunity
p1011
sg29
Nsg30
NstRp1012
asg7
V2013-02-25T13:00:00Z
p1013
sg44
g1007
sg52
(lp1014
g1
(g2
g3
(dtRp1015
asS'author_detail'
p1016
g1
(g2
g3
(dp1017
g63
VKatherine Noyes
p1018
stRp1019
sg124
Vhttp://ectnews.com.feedsportal.com/c/34520/f/632001/s/28eea800/l/0L0Slinuxinsider0N0Crsstory0C773830Bhtml/story01.htm
p1020
sg73
g12
((I2013
I2
I25
I13
I0
I0
I0
I56
I0
t(dtRp1021
sg49
VAnd Now, Ubuntu for Tablets - Wait, What?
p1022
sg76
g1018
sg128
g1002
sg129
(lp1023
g1
(g2
g3
(dp1024
g36
Vhttp://ectnews.com.feedsportal.com/c/34520/f/632001/index.rss
p1025
sg19
g133
sg39
Nsg40
V<a href="http://www.linuxinsider.com/rsstory/77383.html"><img align="left" alt="" border="0" hspace="7" src="http://www.linuxinsider.com/images/rw539073/ubuntu" /></a> Six weeks have passed since Canonical's splashy debut of Ubuntu for phones, but for many here in the Linux blogosphere, the memory is still crystal-clear. It came as some surprise, then, to see follow-up news announced so soon afterward. Sure enough, just as many were counting down the final few days before the expected Thursday release of the preview image of Ubuntu for phones, along came the Canonical team with yet another announcement. The news this time? None other than Ubuntu for tablets. <img border="0" height="1" src="http://ectnews.com.feedsportal.com/c/34520/f/632001/s/28eea800/mf.gif" width="1" /><br /><br /><a href="http://da.feedsportal.com/r/158873293424/u/0/f/632001/c/34520/s/28eea800/kg/342/a2.htm"><img border="0" src="http://da.feedsportal.com/r/158873293424/u/0/f/632001/c/34520/s/28eea800/kg/342/a2.img" /></a><img border="0" height="1" src="http://pi.feedsportal.com/r/158873293424/u/0/f/632001/c/34520/s/28eea800/kg/342/a2t.img" width="1" />
p1026
stRp1027
asg136
I00
sS'title_detail'
p1028
g1
(g2
g3
(dp1029
g36
Vhttp://ectnews.com.feedsportal.com/c/34520/f/632001/index.rss
p1030
sg19
g38
sg39
Nsg40
g1022
stRp1031
sg88
VMon, 25 Feb 2013 13:00:00 GMT
p1032
sg142
(lp1033
g144
aV*
ag145
astRp1034
asS'canto_update'
p1035
F1364190537.85145
sS'headers'
p1036
(dp1037
S'content-length'
p1038
S'65637'
p1039
sS'set-cookie'
p1040
S'MF2=e1ip71pkbw5b; domain=.feedsportal.com; expires=Wed, 25-Mar-15 05:47:54 GMT; path=/'
p1041
sS'server'
p1042
S'FeedsPortal'
p1043
sS'last-modified'
p1044
g95
sS'connection'
p1045
S'close'
p1046
sS'etag'
p1047
S'1363953600000'
p1048
sS'date'
p1049
S'Mon, 25 Mar 2013 05:47:54 GMT'
p1050
sS'content-type'
p1051
S'text/xml;charset=UTF-8'
p1052
ssS'etag'
p1053
V1363953600000
p1054
sg142
(lp1055
sg17
Vhttp://ectnews.com.feedsportal.com/c/34520/f/632001/index.rss
p1056
sS'version'
p1057
Vrss20
p1058
sS'canto_version'
p1059
(I0
I7
I10
tp1060
sS'namespaces'
p1061
(dp1062
S'itunes'
p1063
Vhttp://www.itunes.com/dtds/podcast-1.0.dtd
p1064
sS'sy'
p1065
Vhttp://purl.org/rss/1.0/modules/syndication/
p1066
sS'taxo'
p1067
Vhttp://purl.org/rss/1.0/modules/taxonomy/
p1068
sS'dc'
p1069
Vhttp://purl.org/dc/elements/1.1/
p1070
sg129
Vhttp://purl.org/rss/1.0/modules/content/
p1071
sS'rdf'
p1072
Vhttp://www.w3.org/1999/02/22-rdf-syntax-ns#
p1073
sstRp1074
.