ccopy_reg
_reconstructor
p1
(cfeedparser
FeedParserDict
p2
c__builtin__
dict
p3
(dp4
S'feed'
p5
g1
(g2
g3
(dp6
S'updated'
p7
VSun, 7 Oct 2012 03:07:09 +0000
p8
sS'subtitle'
p9
VOpenbox Window Manager
p10
sS'updated_parsed'
p11
ctime
struct_time
p12
((I2012
I10
I7
I3
I7
I9
I6
I281
I0
t(dtRp13
sS'links'
p14
(lp15
g1
(g2
g3
(dp16
S'href'
p17
Vhttp://git.icculus.org/?p=dana/openbox.git;a=summary
p18
sS'type'
p19
Vtext/html
p20
sS'rel'
p21
Valternate
p22
stRp23
asS'image'
p24
g1
(g2
g3
(dp25
S'title_detail'
p26
g1
(g2
g3
(dp27
S'base'
p28
Vhttp://git.icculus.org/?p=dana/openbox.git;a=rss
p29
sg19
Vtext/plain
p30
sS'language'
p31
NsS'value'
p32
Vgit.icculus.org Git - dana/openbox.git/rss log
p33
stRp34
sg17
Vhttp://git.icculus.org/static/git-logo.png
p35
sS'link'
p36
Vhttp://git.icculus.org/?p=dana/openbox.git;a=summary
p37
sg14
(lp38
g1
(g2
g3
(dp39
g17
g37
sg19
g20
sg21
g22
stRp40
asS'title'
p41
g33
stRp42
sS'generator_detail'
p43
g1
(g2
g3
(dp44
S'name'
p45
Vgitweb v.1.7.10.4/1.7.10.4
p46
stRp47
sg36
g18
sS'authors'
p48
(lp49
g1
(g2
g3
(dtRp50
asS'author_detail'
p51
g1
(g2
g3
(dp52
g45
VDana Jansens
p53
stRp54
sS'published_parsed'
p55
g12
((I2012
I10
I7
I3
I7
I9
I6
I281
I0
t(dtRp56
sS'generator'
p57
g46
sg31
Ven
p58
sg41
Vgit.icculus.org Git - dana/openbox.git/rss log
p59
sS'author'
p60
g53
sS'subtitle_detail'
p61
g1
(g2
g3
(dp62
g28
Vhttp://git.icculus.org/?p=dana/openbox.git;a=rss
p63
sg19
Vtext/html
p64
sg31
Nsg32
g10
stRp65
sS'title_detail'
p66
g1
(g2
g3
(dp67
g28
Vhttp://git.icculus.org/?p=dana/openbox.git;a=rss
p68
sg19
g30
sg31
Nsg32
g59
stRp69
sS'published'
p70
VSun, 7 Oct 2012 03:07:09 +0000
p71
stRp72
sS'status'
p73
I200
sg7
S'Sun, 07 Oct 2012 03:07:09 GMT'
p74
sg11
g12
((I2012
I10
I7
I3
I7
I9
I6
I281
I0
t(dtRp75
sS'encoding'
p76
Vutf-8
p77
sS'bozo'
p78
I0
sS'entries'
p79
(lp80
g1
(g2
g3
(dp81
S'summary_detail'
p82
g1
(g2
g3
(dp83
g28
Vhttp://git.icculus.org/?p=dana/openbox.git;a=rss
p84
sg19
g64
sg31
Nsg32
VRefactor the per-app parsing code into a helper function and reduce nesting by 2...
p85
stRp86
sg55
g12
((I2012
I10
I2
I2
I4
I14
I1
I276
I0
t(dtRp87
sg14
(lp88
g1
(g2
g3
(dp89
g17
Vhttp://git.icculus.org/?p=dana/openbox.git;a=commitdiff;h=782b2864b1cc5ffab426dfb784a973576a98de18
p90
sg19
g20
sg21
g22
stRp91
asg60
VDana Jansens <danakj@orodu.net>
p92
sg41
VRefactor the per-app parsing code into a helper function and reduce nesting by 2...
p93
sS'summary'
p94
g85
sS'content'
p95
(lp96
g1
(g2
g3
(dp97
g28
Vhttp://git.icculus.org/?p=dana/openbox.git;a=rss
p98
sg19
Vtext/html
p99
sg31
Nsg32
V<pre>\u000aRefactor the per-app parsing code into a helper function and reduce nesting by 2 levels\u000a</pre><ul>\u000a<li>[<a href="http://git.icculus.org/?p=dana/openbox.git;a=blobdiff;f=openbox/config.c;fp=openbox/config.c;h=03fc96b35bafc937f8fef9e4caf7411af1f03a7a;hp=e0c984934e95f03536023bb9e754618125e76a9d;hb=782b2864b1cc5ffab426dfb784a973576a98de18;hpb=71ffb4375db0043dda045983c2c5eabf9570a7fb" title="diff">D</a><a href="http://git.icculus.org/?p=dana/openbox.git;a=history;f=openbox/config.c;h=782b2864b1cc5ffab426dfb784a973576a98de18" title="history">H</a>] openbox/config.c</li>\u000a</ul>
p100
stRp101
asS'guidislink'
p102
I01
sS'title_detail'
p103
g1
(g2
g3
(dp104
g28
Vhttp://git.icculus.org/?p=dana/openbox.git;a=rss
p105
sg19
g30
sg31
Nsg32
g93
stRp106
sg36
g90
sg48
(lp107
g1
(g2
g3
(dtRp108
asS'canto_state'
p109
(lp110
Vgit.icculus.org Git - dana/openbox.git/rss log
p111
aV*
aS'read'
p112
asS'author_detail'
p113
g1
(g2
g3
(dp114
g45
VDana Jansens
p115
sS'email'
p116
Vdanakj@orodu.net
p117
stRp118
sS'id'
p119
Vhttp://git.icculus.org/?p=dana/openbox.git;a=commitdiff;h=782b2864b1cc5ffab426dfb784a973576a98de18
p120
sg70
VTue, 2 Oct 2012 02:04:14 +0000
p121
stRp122
ag1
(g2
g3
(dp123
S'summary_detail'
p124
g1
(g2
g3
(dp125
g28
Vhttp://git.icculus.org/?p=dana/openbox.git;a=rss
p126
sg19
g64
sg31
Nsg32
VMake MoveResizeTo work on the dimensions of the frame, not the client
p127
stRp128
sg55
g12
((I2012
I10
I7
I1
I35
I42
I6
I281
I0
t(dtRp129
sg14
(lp130
g1
(g2
g3
(dp131
g17
Vhttp://git.icculus.org/?p=dana/openbox.git;a=commitdiff;h=71ffb4375db0043dda045983c2c5eabf9570a7fb
p132
sg19
g20
sg21
g22
stRp133
asg60
VDana Jansens <danakj@orodu.net>
p134
sg41
VMake MoveResizeTo work on the dimensions of the frame, not the client
p135
sg94
g127
sg95
(lp136
g1
(g2
g3
(dp137
g28
Vhttp://git.icculus.org/?p=dana/openbox.git;a=rss
p138
sg19
g99
sg31
Nsg32
V<pre>\u000aMake MoveResizeTo work on the dimensions of the frame, not the client\u000a</pre><ul>\u000a<li>[<a href="http://git.icculus.org/?p=dana/openbox.git;a=blobdiff;f=openbox/actions/moveresizeto.c;fp=openbox/actions/moveresizeto.c;h=4b3f269986daa2e867f11c53b143f70181656e30;hp=c23661cd401c2fd37645455456de69ba5f60e467;hb=71ffb4375db0043dda045983c2c5eabf9570a7fb;hpb=10a833b2cba11349a57071a7538cae9a560b8cc9" title="diff">D</a><a href="http://git.icculus.org/?p=dana/openbox.git;a=history;f=openbox/actions/moveresizeto.c;h=71ffb4375db0043dda045983c2c5eabf9570a7fb" title="history">H</a>] openbox/actions/moveresizeto.c</li>\u000a</ul>
p139
stRp140
asg102
I01
sS'title_detail'
p141
g1
(g2
g3
(dp142
g28
Vhttp://git.icculus.org/?p=dana/openbox.git;a=rss
p143
sg19
g30
sg31
Nsg32
g135
stRp144
sg36
g132
sg48
(lp145
g1
(g2
g3
(dtRp146
asg109
(lp147
g111
aV*
ag112
asS'author_detail'
p148
g1
(g2
g3
(dp149
g45
VDana Jansens
p150
sg116
Vdanakj@orodu.net
p151
stRp152
sg119
Vhttp://git.icculus.org/?p=dana/openbox.git;a=commitdiff;h=71ffb4375db0043dda045983c2c5eabf9570a7fb
p153
sg70
VSun, 7 Oct 2012 01:35:42 +0000
p154
stRp155
ag1
(g2
g3
(dp156
S'summary_detail'
p157
g1
(g2
g3
(dp158
g28
Vhttp://git.icculus.org/?p=dana/openbox.git;a=rss
p159
sg19
g64
sg31
Nsg32
VAllow application rules to control window size (Fix bug 4661)
p160
stRp161
sg55
g12
((I2012
I10
I2
I1
I43
I56
I1
I276
I0
t(dtRp162
sg14
(lp163
g1
(g2
g3
(dp164
g17
Vhttp://git.icculus.org/?p=dana/openbox.git;a=commitdiff;h=10a833b2cba11349a57071a7538cae9a560b8cc9
p165
sg19
g20
sg21
g22
stRp166
asg60
VDana Jansens <danakj@orodu.net>
p167
sg41
VAllow application rules to control window size (Fix bug 4661)
p168
sg94
g160
sg95
(lp169
g1
(g2
g3
(dp170
g28
Vhttp://git.icculus.org/?p=dana/openbox.git;a=rss
p171
sg19
g99
sg31
Nsg32
V<pre>\u000aAllow application rules to control window size (Fix bug 4661)\u000a\u000aUse the following in your per-app rules:\u000a\u000a&lt;size&gt;\u000a  &lt;width&gt;A&lt;/width&gt;\u000a  &lt;height&gt;B&lt;/height&gt;\u000a&lt;/size&gt;\u000a\u000aA and B can be integer values to specify a size in pixels. They can also be\u000apercentages or fractions to be relative to the size of the monitor the window\u000ais placed on.\u000a</pre><ul>\u000a<li>[<a href="http://git.icculus.org/?p=dana/openbox.git;a=blobdiff;f=data/rc.xml;fp=data/rc.xml;h=932521b7095dfe6603d4dc6addb1e8a65d38e643;hp=1da3b3843c164ee16daf0950108896eb706b64a2;hb=10a833b2cba11349a57071a7538cae9a560b8cc9;hpb=5e282dae08be3b900e0337efa0fae8f3ffa92cd7" title="diff">D</a><a href="http://git.icculus.org/?p=dana/openbox.git;a=history;f=data/rc.xml;h=10a833b2cba11349a57071a7538cae9a560b8cc9" title="history">H</a>] data/rc.xml</li>\u000a<li>[<a href="http://git.icculus.org/?p=dana/openbox.git;a=blobdiff;f=data/rc.xsd;fp=data/rc.xsd;h=425d53c9fd3fd6e2f4abaaa10df1cc5aa98ba7d3;hp=79a3571fa961d7e8c51e4c4e796e119922c29265;hb=10a833b2cba11349a57071a7538cae9a560b8cc9;hpb=5e282dae08be3b900e0337efa0fae8f3ffa92cd7" title="diff">D</a><a href="http://git.icculus.org/?p=dana/openbox.git;a=history;f=data/rc.xsd;h=10a833b2cba11349a57071a7538cae9a560b8cc9" title="history">H</a>] data/rc.xsd</li>\u000a<li>[<a href="http://git.icculus.org/?p=dana/openbox.git;a=blobdiff;f=openbox/client.c;fp=openbox/client.c;h=b6cc4a879300fa824f0d6c8be694829e023a8bc4;hp=9e25135cf76be966f376d35a740b63ea5a6e84e6;hb=10a833b2cba11349a57071a7538cae9a560b8cc9;hpb=5e282dae08be3b900e0337efa0fae8f3ffa92cd7" title="diff">D</a><a href="http://git.icculus.org/?p=dana/openbox.git;a=history;f=openbox/client.c;h=10a833b2cba11349a57071a7538cae9a560b8cc9" title="history">H</a>] openbox/client.c</li>\u000a<li>[<a href="http://git.icculus.org/?p=dana/openbox.git;a=blobdiff;f=openbox/config.c;fp=openbox/config.c;h=e0c984934e95f03536023bb9e754618125e76a9d;hp=f7cbc3b947c036b5e11101c9d293965c6c66039c;hb=10a833b2cba11349a57071a7538cae9a560b8cc9;hpb=5e282dae08be3b900e0337efa0fae8f3ffa92cd7" title="diff">D</a><a href="http://git.icculus.org/?p=dana/openbox.git;a=history;f=openbox/config.c;h=10a833b2cba11349a57071a7538cae9a560b8cc9" title="history">H</a>] openbox/config.c</li>\u000a<li>[<a href="http://git.icculus.org/?p=dana/openbox.git;a=blobdiff;f=openbox/config.h;fp=openbox/config.h;h=87662ab9d27955fa86d073d4fef1f6f7c2e8c5ff;hp=a111a06f5293dc406f4479124b790603fe721fab;hb=10a833b2cba11349a57071a7538cae9a560b8cc9;hpb=5e282dae08be3b900e0337efa0fae8f3ffa92cd7" title="diff">D</a><a href="http://git.icculus.org/?p=dana/openbox.git;a=history;f=openbox/config.h;h=10a833b2cba11349a57071a7538cae9a560b8cc9" title="history">H</a>] openbox/config.h</li>\u000a<li>[<a href="http://git.icculus.org/?p=dana/openbox.git;a=blobdiff;f=openbox/place.c;fp=openbox/place.c;h=48e4fb16a8d0a17873a56d8af34dde8fef056735;hp=2602122882d0183a200f7135dd63b78b27b56a37;hb=10a833b2cba11349a57071a7538cae9a560b8cc9;hpb=5e282dae08be3b900e0337efa0fae8f3ffa92cd7" title="diff">D</a><a href="http://git.icculus.org/?p=dana/openbox.git;a=history;f=openbox/place.c;h=10a833b2cba11349a57071a7538cae9a560b8cc9" title="history">H</a>] openbox/place.c</li>\u000a<li>[<a href="http://git.icculus.org/?p=dana/openbox.git;a=blobdiff;f=openbox/place.h;fp=openbox/place.h;h=3bc679e0d536aa8227f4a1e15f7e7da1d9513288;hp=94e2dc0fb4d805b78890d419385eefe7a4edfd29;hb=10a833b2cba11349a57071a7538cae9a560b8cc9;hpb=5e282dae08be3b900e0337efa0fae8f3ffa92cd7" title="diff">D</a><a href="http://git.icculus.org/?p=dana/openbox.git;a=history;f=openbox/place.h;h=10a833b2cba11349a57071a7538cae9a560b8cc9" title="history">H</a>] openbox/place.h</li>\u000a<li>[<a href="http://git.icculus.org/?p=dana/openbox.git;a=blobdiff;f=openbox/place_overlap.c;fp=openbox/place_overlap.c;h=ef73bd8d906d2f754fbcb26da882d9fe2b9379c9;hp=e365a370e7d596c4c9857671e074f15c6766af60;hb=10a833b2cba11349a57071a7538cae9a560b8cc9;hpb=5e282dae08be3b900e0337efa0fae8f3ffa92cd7" title="diff">D</a><a href="http://git.icculus.org/?p=dana/openbox.git;a=history;f=openbox/place_overlap.c;h=10a833b2cba11349a57071a7538cae9a560b8cc9" title="history">H</a>] openbox/place_overlap.c</li>\u000a</ul>
p172
stRp173
asg102
I01
sS'title_detail'
p174
g1
(g2
g3
(dp175
g28
Vhttp://git.icculus.org/?p=dana/openbox.git;a=rss
p176
sg19
g30
sg31
Nsg32
g168
stRp177
sg36
g165
sg48
(lp178
g1
(g2
g3
(dtRp179
asg109
(lp180
g111
aV*
ag112
asS'author_detail'
p181
g1
(g2
g3
(dp182
g45
VDana Jansens
p183
sg116
Vdanakj@orodu.net
p184
stRp185
sg119
Vhttp://git.icculus.org/?p=dana/openbox.git;a=commitdiff;h=10a833b2cba11349a57071a7538cae9a560b8cc9
p186
sg70
VTue, 2 Oct 2012 01:43:56 +0000
p187
stRp188
ag1
(g2
g3
(dp189
S'summary_detail'
p190
g1
(g2
g3
(dp191
g28
Vhttp://git.icculus.org/?p=dana/openbox.git;a=rss
p192
sg19
g64
sg31
Nsg32
VRemove now-unused config_place_center option.
p193
stRp194
sg55
g12
((I2012
I10
I2
I2
I39
I39
I1
I276
I0
t(dtRp195
sg14
(lp196
g1
(g2
g3
(dp197
g17
Vhttp://git.icculus.org/?p=dana/openbox.git;a=commitdiff;h=5e282dae08be3b900e0337efa0fae8f3ffa92cd7
p198
sg19
g20
sg21
g22
stRp199
asg60
VDana Jansens <danakj@orodu.net>
p200
sg41
VRemove now-unused config_place_center option.
p201
sg94
g193
sg95
(lp202
g1
(g2
g3
(dp203
g28
Vhttp://git.icculus.org/?p=dana/openbox.git;a=rss
p204
sg19
g99
sg31
Nsg32
V<pre>\u000aRemove now-unused config_place_center option.\u000a\u000aThe new LeastOverlap placement doesn't use this option, and it kind of defeats\u000athe purpose of the algorithm.\u000a</pre><ul>\u000a<li>[<a href="http://git.icculus.org/?p=dana/openbox.git;a=blobdiff;f=data/rc.xml;fp=data/rc.xml;h=1da3b3843c164ee16daf0950108896eb706b64a2;hp=6e8445aabf05792951c117b29b35b08949ba7dd9;hb=5e282dae08be3b900e0337efa0fae8f3ffa92cd7;hpb=8a26a5190ca8479b96261c9e896e88bd32f56d06" title="diff">D</a><a href="http://git.icculus.org/?p=dana/openbox.git;a=history;f=data/rc.xml;h=5e282dae08be3b900e0337efa0fae8f3ffa92cd7" title="history">H</a>] data/rc.xml</li>\u000a<li>[<a href="http://git.icculus.org/?p=dana/openbox.git;a=blobdiff;f=data/rc.xsd;fp=data/rc.xsd;h=79a3571fa961d7e8c51e4c4e796e119922c29265;hp=fb7da5224e243844de79eefb41b7706744cd996c;hb=5e282dae08be3b900e0337efa0fae8f3ffa92cd7;hpb=8a26a5190ca8479b96261c9e896e88bd32f56d06" title="diff">D</a><a href="http://git.icculus.org/?p=dana/openbox.git;a=history;f=data/rc.xsd;h=5e282dae08be3b900e0337efa0fae8f3ffa92cd7" title="history">H</a>] data/rc.xsd</li>\u000a<li>[<a href="http://git.icculus.org/?p=dana/openbox.git;a=blobdiff;f=openbox/config.c;fp=openbox/config.c;h=f7cbc3b947c036b5e11101c9d293965c6c66039c;hp=d5ff8c45c9b7e12608cc7d825ed3322b5fb14b31;hb=5e282dae08be3b900e0337efa0fae8f3ffa92cd7;hpb=8a26a5190ca8479b96261c9e896e88bd32f56d06" title="diff">D</a><a href="http://git.icculus.org/?p=dana/openbox.git;a=history;f=openbox/config.c;h=5e282dae08be3b900e0337efa0fae8f3ffa92cd7" title="history">H</a>] openbox/config.c</li>\u000a<li>[<a href="http://git.icculus.org/?p=dana/openbox.git;a=blobdiff;f=openbox/config.h;fp=openbox/config.h;h=a111a06f5293dc406f4479124b790603fe721fab;hp=43386d3c319a02d4a191204bc41a4cbd19758fb2;hb=5e282dae08be3b900e0337efa0fae8f3ffa92cd7;hpb=8a26a5190ca8479b96261c9e896e88bd32f56d06" title="diff">D</a><a href="http://git.icculus.org/?p=dana/openbox.git;a=history;f=openbox/config.h;h=5e282dae08be3b900e0337efa0fae8f3ffa92cd7" title="history">H</a>] openbox/config.h</li>\u000a</ul>
p205
stRp206
asg102
I01
sS'title_detail'
p207
g1
(g2
g3
(dp208
g28
Vhttp://git.icculus.org/?p=dana/openbox.git;a=rss
p209
sg19
g30
sg31
Nsg32
g201
stRp210
sg36
g198
sg48
(lp211
g1
(g2
g3
(dtRp212
asg109
(lp213
g111
aV*
ag112
asS'author_detail'
p214
g1
(g2
g3
(dp215
g45
VDana Jansens
p216
sg116
Vdanakj@orodu.net
p217
stRp218
sg119
Vhttp://git.icculus.org/?p=dana/openbox.git;a=commitdiff;h=5e282dae08be3b900e0337efa0fae8f3ffa92cd7
p219
sg70
VTue, 2 Oct 2012 02:39:39 +0000
p220
stRp221
ag1
(g2
g3
(dp222
S'summary_detail'
p223
g1
(g2
g3
(dp224
g28
Vhttp://git.icculus.org/?p=dana/openbox.git;a=rss
p225
sg19
g64
sg31
Nsg32
VWhen an undecorated window is maximized give it a 1px border at the top (Fix bug...
p226
stRp227
sg55
g12
((I2012
I10
I1
I4
I32
I39
I0
I275
I0
t(dtRp228
sg14
(lp229
g1
(g2
g3
(dp230
g17
Vhttp://git.icculus.org/?p=dana/openbox.git;a=commitdiff;h=8a26a5190ca8479b96261c9e896e88bd32f56d06
p231
sg19
g20
sg21
g22
stRp232
asg60
VDana Jansens <danakj@orodu.net>
p233
sg41
VWhen an undecorated window is maximized give it a 1px border at the top (Fix bug...
p234
sg94
g226
sg95
(lp235
g1
(g2
g3
(dp236
g28
Vhttp://git.icculus.org/?p=dana/openbox.git;a=rss
p237
sg19
g99
sg31
Nsg32
V<pre>\u000aWhen an undecorated window is maximized give it a 1px border at the top (Fix bug 5506)\u000a\u000aWe want to keep some way for a user to re-decorate the window with the default\u000abindings. However with a large border width, the top border is much bigger than\u000ait needs to be! So make it fixed at 1px large in this case.\u000a</pre><ul>\u000a<li>[<a href="http://git.icculus.org/?p=dana/openbox.git;a=blobdiff;f=openbox/frame.c;fp=openbox/frame.c;h=24d3eb535a93ae3f3eaa428298df54585ffefa65;hp=48dda24eaa9880380d05b1ecc9bcc875cdb1a456;hb=8a26a5190ca8479b96261c9e896e88bd32f56d06;hpb=1869e4e830d08acd5f7801acd8910ce99806f53b" title="diff">D</a><a href="http://git.icculus.org/?p=dana/openbox.git;a=history;f=openbox/frame.c;h=8a26a5190ca8479b96261c9e896e88bd32f56d06" title="history">H</a>] openbox/frame.c</li>\u000a</ul>
p238
stRp239
asg102
I01
sS'title_detail'
p240
g1
(g2
g3
(dp241
g28
Vhttp://git.icculus.org/?p=dana/openbox.git;a=rss
p242
sg19
g30
sg31
Nsg32
g234
stRp243
sg36
g231
sg48
(lp244
g1
(g2
g3
(dtRp245
asg109
(lp246
g111
aV*
ag112
asS'author_detail'
p247
g1
(g2
g3
(dp248
g45
VDana Jansens
p249
sg116
Vdanakj@orodu.net
p250
stRp251
sg119
Vhttp://git.icculus.org/?p=dana/openbox.git;a=commitdiff;h=8a26a5190ca8479b96261c9e896e88bd32f56d06
p252
sg70
VMon, 1 Oct 2012 04:32:39 +0000
p253
stRp254
ag1
(g2
g3
(dp255
S'summary_detail'
p256
g1
(g2
g3
(dp257
g28
Vhttp://git.icculus.org/?p=dana/openbox.git;a=rss
p258
sg19
g64
sg31
Nsg32
VAllow non-interactive focus cycling.
p259
stRp260
sg55
g12
((I2012
I10
I2
I2
I32
I59
I1
I276
I0
t(dtRp261
sg14
(lp262
g1
(g2
g3
(dp263
g17
Vhttp://git.icculus.org/?p=dana/openbox.git;a=commitdiff;h=1869e4e830d08acd5f7801acd8910ce99806f53b
p264
sg19
g20
sg21
g22
stRp265
asg60
VDana Jansens <danakj@orodu.net>
p266
sg41
VAllow non-interactive focus cycling.
p267
sg94
g259
sg95
(lp268
g1
(g2
g3
(dp269
g28
Vhttp://git.icculus.org/?p=dana/openbox.git;a=rss
p270
sg19
g99
sg31
Nsg32
V<pre>\u000aAllow non-interactive focus cycling.\u000a\u000aAdds an &lt;interactive&gt;bool&lt;/interactive&gt; option to the NextWindow and\u000aPreviousWindow actions. When it is false, the action is not interactive and will\u000aimmediately switch focus to whatever the next focus target is.\u000a\u000aRemoving the &quot;interactive&quot; flag from the focus_cycle() method, as it was unused\u000apreviously, and the new code does not make use of it either. In order to be\u000anon-interactive it simply starts a focus_cycle then immediately ends it when the\u000aaction ends.\u000a\u000aThe &quot;interactive&quot; flag in focus_cycle() forced a linear cycling order which may\u000anot be what you want, so the new method is preferrable anyhow.\u000a</pre><ul>\u000a<li>[<a href="http://git.icculus.org/?p=dana/openbox.git;a=blobdiff;f=openbox/actions/cyclewindows.c;fp=openbox/actions/cyclewindows.c;h=f834951502a0db96393ee3b21ccbd64071a9ee59;hp=a64d225694910b1f560a99eeeb03bc7b2803cc82;hb=1869e4e830d08acd5f7801acd8910ce99806f53b;hpb=d0ba8806689ea80b6a739122aaf8dac81d2a3e5c" title="diff">D</a><a href="http://git.icculus.org/?p=dana/openbox.git;a=history;f=openbox/actions/cyclewindows.c;h=1869e4e830d08acd5f7801acd8910ce99806f53b" title="history">H</a>] openbox/actions/cyclewindows.c</li>\u000a<li>[<a href="http://git.icculus.org/?p=dana/openbox.git;a=blobdiff;f=openbox/focus_cycle.c;fp=openbox/focus_cycle.c;h=de176501e562de9844b8327e86a44a93e8bea11b;hp=93a9a9930ee1884743372b1ac2ff314f8500fb1e;hb=1869e4e830d08acd5f7801acd8910ce99806f53b;hpb=d0ba8806689ea80b6a739122aaf8dac81d2a3e5c" title="diff">D</a><a href="http://git.icculus.org/?p=dana/openbox.git;a=history;f=openbox/focus_cycle.c;h=1869e4e830d08acd5f7801acd8910ce99806f53b" title="history">H</a>] openbox/focus_cycle.c</li>\u000a<li>[<a href="http://git.icculus.org/?p=dana/openbox.git;a=blobdiff;f=openbox/focus_cycle.h;fp=openbox/focus_cycle.h;h=8acb53d9bee6ab45424c5f29959a48aead5f0429;hp=9394b3df8bb65ba187b4f1e37329a942d65900b5;hb=1869e4e830d08acd5f7801acd8910ce99806f53b;hpb=d0ba8806689ea80b6a739122aaf8dac81d2a3e5c" title="diff">D</a><a href="http://git.icculus.org/?p=dana/openbox.git;a=history;f=openbox/focus_cycle.h;h=1869e4e830d08acd5f7801acd8910ce99806f53b" title="history">H</a>] openbox/focus_cycle.h</li>\u000a</ul>
p271
stRp272
asg102
I01
sS'title_detail'
p273
g1
(g2
g3
(dp274
g28
Vhttp://git.icculus.org/?p=dana/openbox.git;a=rss
p275
sg19
g30
sg31
Nsg32
g267
stRp276
sg36
g264
sg48
(lp277
g1
(g2
g3
(dtRp278
asg109
(lp279
g111
aV*
ag112
asS'author_detail'
p280
g1
(g2
g3
(dp281
g45
VDana Jansens
p282
sg116
Vdanakj@orodu.net
p283
stRp284
sg119
Vhttp://git.icculus.org/?p=dana/openbox.git;a=commitdiff;h=1869e4e830d08acd5f7801acd8910ce99806f53b
p285
sg70
VTue, 2 Oct 2012 02:32:59 +0000
p286
stRp287
ag1
(g2
g3
(dp288
S'summary_detail'
p289
g1
(g2
g3
(dp290
g28
Vhttp://git.icculus.org/?p=dana/openbox.git;a=rss
p291
sg19
g64
sg31
Nsg32
VDon't let autostart checking for background-setting tools end up in logs (Fix bug...
p292
stRp293
sg55
g12
((I2012
I10
I1
I4
I53
I57
I0
I275
I0
t(dtRp294
sg14
(lp295
g1
(g2
g3
(dp296
g17
Vhttp://git.icculus.org/?p=dana/openbox.git;a=commitdiff;h=d0ba8806689ea80b6a739122aaf8dac81d2a3e5c
p297
sg19
g20
sg21
g22
stRp298
asg60
VDana Jansens <danakj@orodu.net>
p299
sg41
VDon't let autostart checking for background-setting tools end up in logs (Fix bug...
p300
sg94
g292
sg95
(lp301
g1
(g2
g3
(dp302
g28
Vhttp://git.icculus.org/?p=dana/openbox.git;a=rss
p303
sg19
g99
sg31
Nsg32
V<pre>\u000aDon't let autostart checking for background-setting tools end up in logs (Fix bug 5186)\u000a</pre><ul>\u000a<li>[<a href="http://git.icculus.org/?p=dana/openbox.git;a=blobdiff;f=data/autostart/openbox-autostart.in;fp=data/autostart/openbox-autostart.in;h=5c7277740396c9cf92a6fc6a1a316324f867f043;hp=063c635feb39c78767d8826c56eb01a14c6c746b;hb=d0ba8806689ea80b6a739122aaf8dac81d2a3e5c;hpb=d3a8bab0f09e6a77a98e3c54fe5a57966bb0d636" title="diff">D</a><a href="http://git.icculus.org/?p=dana/openbox.git;a=history;f=data/autostart/openbox-autostart.in;h=d0ba8806689ea80b6a739122aaf8dac81d2a3e5c" title="history">H</a>] data/autostart/openbox-autostart.in</li>\u000a</ul>
p304
stRp305
asg102
I01
sS'title_detail'
p306
g1
(g2
g3
(dp307
g28
Vhttp://git.icculus.org/?p=dana/openbox.git;a=rss
p308
sg19
g30
sg31
Nsg32
g300
stRp309
sg36
g297
sg48
(lp310
g1
(g2
g3
(dtRp311
asg109
(lp312
g111
aV*
ag112
asS'author_detail'
p313
g1
(g2
g3
(dp314
g45
VDana Jansens
p315
sg116
Vdanakj@orodu.net
p316
stRp317
sg119
Vhttp://git.icculus.org/?p=dana/openbox.git;a=commitdiff;h=d0ba8806689ea80b6a739122aaf8dac81d2a3e5c
p318
sg70
VMon, 1 Oct 2012 04:53:57 +0000
p319
stRp320
ag1
(g2
g3
(dp321
S'summary_detail'
p322
g1
(g2
g3
(dp323
g28
Vhttp://git.icculus.org/?p=dana/openbox.git;a=rss
p324
sg19
g64
sg31
Nsg32
VAdd a $pointer execute variable substitution and make $wip and $pid consistent (Fix...
p325
stRp326
sg55
g12
((I2012
I10
I2
I0
I20
I15
I1
I276
I0
t(dtRp327
sg14
(lp328
g1
(g2
g3
(dp329
g17
Vhttp://git.icculus.org/?p=dana/openbox.git;a=commitdiff;h=d3a8bab0f09e6a77a98e3c54fe5a57966bb0d636
p330
sg19
g20
sg21
g22
stRp331
asg60
VDana Jansens <danakj@orodu.net>
p332
sg41
VAdd a $pointer execute variable substitution and make $wip and $pid consistent (Fix...
p333
sg94
g325
sg95
(lp334
g1
(g2
g3
(dp335
g28
Vhttp://git.icculus.org/?p=dana/openbox.git;a=rss
p336
sg19
g99
sg31
Nsg32
V<pre>\u000aAdd a $pointer execute variable substitution and make $wip and $pid consistent (Fix bug 5758)\u000a\u000a$wip and $pid would output values for the current target window if there was\u000aone, but output nothing at all if there wasn't making the output difficult to\u000aparse. Changed to make these always output a 0 if there is no target.\u000a\u000aAdded a $pointer variable that is replaced with the x and y coordiates of the\u000apointer, separated by a space.\u000a\u000aInspired by the work of Denis Kaganovich &lt;mahatma@eu.by&gt;.\u000a</pre><ul>\u000a<li>[<a href="http://git.icculus.org/?p=dana/openbox.git;a=blobdiff;f=openbox/actions/execute.c;fp=openbox/actions/execute.c;h=2f76c45d1835b7e79b02c0aab5d73e258cba3ccd;hp=df600fa08a7a66aa328f557c9660eaa500e5aa4f;hb=d3a8bab0f09e6a77a98e3c54fe5a57966bb0d636;hpb=aa36b603d7bc35ad82a6ce6246c4edd0af6eacc8" title="diff">D</a><a href="http://git.icculus.org/?p=dana/openbox.git;a=history;f=openbox/actions/execute.c;h=d3a8bab0f09e6a77a98e3c54fe5a57966bb0d636" title="history">H</a>] openbox/actions/execute.c</li>\u000a</ul>
p337
stRp338
asg102
I01
sS'title_detail'
p339
g1
(g2
g3
(dp340
g28
Vhttp://git.icculus.org/?p=dana/openbox.git;a=rss
p341
sg19
g30
sg31
Nsg32
g333
stRp342
sg36
g330
sg48
(lp343
g1
(g2
g3
(dtRp344
asg109
(lp345
g111
aV*
ag112
asS'author_detail'
p346
g1
(g2
g3
(dp347
g45
VDana Jansens
p348
sg116
Vdanakj@orodu.net
p349
stRp350
sg119
Vhttp://git.icculus.org/?p=dana/openbox.git;a=commitdiff;h=d3a8bab0f09e6a77a98e3c54fe5a57966bb0d636
p351
sg70
VTue, 2 Oct 2012 00:20:15 +0000
p352
stRp353
ag1
(g2
g3
(dp354
S'summary_detail'
p355
g1
(g2
g3
(dp356
g28
Vhttp://git.icculus.org/?p=dana/openbox.git;a=rss
p357
sg19
g64
sg31
Nsg32
VRemove unused variable
p358
stRp359
sg55
g12
((I2012
I10
I1
I5
I4
I41
I0
I275
I0
t(dtRp360
sg14
(lp361
g1
(g2
g3
(dp362
g17
Vhttp://git.icculus.org/?p=dana/openbox.git;a=commitdiff;h=aa36b603d7bc35ad82a6ce6246c4edd0af6eacc8
p363
sg19
g20
sg21
g22
stRp364
asg60
VDana Jansens <danakj@orodu.net>
p365
sg41
VRemove unused variable
p366
sg94
g358
sg95
(lp367
g1
(g2
g3
(dp368
g28
Vhttp://git.icculus.org/?p=dana/openbox.git;a=rss
p369
sg19
g99
sg31
Nsg32
V<pre>\u000aRemove unused variable\u000a</pre><ul>\u000a<li>[<a href="http://git.icculus.org/?p=dana/openbox.git;a=blobdiff;f=openbox/event.c;fp=openbox/event.c;h=ccbb56e6ad5b3f6036e0404e744be94b32b9cbf0;hp=15a7a4790569a5d510b9f59c701a9cbdbcc3e21f;hb=aa36b603d7bc35ad82a6ce6246c4edd0af6eacc8;hpb=01570a6a82a8576baa52e38d044787a105bcf102" title="diff">D</a><a href="http://git.icculus.org/?p=dana/openbox.git;a=history;f=openbox/event.c;h=aa36b603d7bc35ad82a6ce6246c4edd0af6eacc8" title="history">H</a>] openbox/event.c</li>\u000a</ul>
p370
stRp371
asg102
I01
sS'title_detail'
p372
g1
(g2
g3
(dp373
g28
Vhttp://git.icculus.org/?p=dana/openbox.git;a=rss
p374
sg19
g30
sg31
Nsg32
g366
stRp375
sg36
g363
sg48
(lp376
g1
(g2
g3
(dtRp377
asg109
(lp378
g111
aV*
ag112
asS'author_detail'
p379
g1
(g2
g3
(dp380
g45
VDana Jansens
p381
sg116
Vdanakj@orodu.net
p382
stRp383
sg119
Vhttp://git.icculus.org/?p=dana/openbox.git;a=commitdiff;h=aa36b603d7bc35ad82a6ce6246c4edd0af6eacc8
p384
sg70
VMon, 1 Oct 2012 05:04:41 +0000
p385
stRp386
ag1
(g2
g3
(dp387
S'summary_detail'
p388
g1
(g2
g3
(dp389
g28
Vhttp://git.icculus.org/?p=dana/openbox.git;a=rss
p390
sg19
g64
sg31
Nsg32
VFix duplicate const warning
p391
stRp392
sg55
g12
((I2012
I10
I2
I15
I36
I31
I1
I276
I0
t(dtRp393
sg14
(lp394
g1
(g2
g3
(dp395
g17
Vhttp://git.icculus.org/?p=dana/openbox.git;a=commitdiff;h=01570a6a82a8576baa52e38d044787a105bcf102
p396
sg19
g20
sg21
g22
stRp397
asg60
VDana Jansens <danakj@orodu.net>
p398
sg41
VFix duplicate const warning
p399
sg94
g391
sg95
(lp400
g1
(g2
g3
(dp401
g28
Vhttp://git.icculus.org/?p=dana/openbox.git;a=rss
p402
sg19
g99
sg31
Nsg32
V<pre>\u000aFix duplicate const warning\u000a</pre><ul>\u000a<li>[<a href="http://git.icculus.org/?p=dana/openbox.git;a=blobdiff;f=openbox/client.h;fp=openbox/client.h;h=d68d3035a3b20e54921bc6e5b4cb2f0295391f0c;hp=0e55c59f7399cbd07aaef1993f3917b1676b1182;hb=01570a6a82a8576baa52e38d044787a105bcf102;hpb=1974c69fb356a4958316dc7657a5f726804ac648" title="diff">D</a><a href="http://git.icculus.org/?p=dana/openbox.git;a=history;f=openbox/client.h;h=01570a6a82a8576baa52e38d044787a105bcf102" title="history">H</a>] openbox/client.h</li>\u000a</ul>
p403
stRp404
asg102
I01
sS'title_detail'
p405
g1
(g2
g3
(dp406
g28
Vhttp://git.icculus.org/?p=dana/openbox.git;a=rss
p407
sg19
g30
sg31
Nsg32
g399
stRp408
sg36
g396
sg48
(lp409
g1
(g2
g3
(dtRp410
asg109
(lp411
g111
aV*
ag112
asS'author_detail'
p412
g1
(g2
g3
(dp413
g45
VDana Jansens
p414
sg116
Vdanakj@orodu.net
p415
stRp416
sg119
Vhttp://git.icculus.org/?p=dana/openbox.git;a=commitdiff;h=01570a6a82a8576baa52e38d044787a105bcf102
p417
sg70
VTue, 2 Oct 2012 15:36:31 +0000
p418
stRp419
ag1
(g2
g3
(dp420
S'summary_detail'
p421
g1
(g2
g3
(dp422
g28
Vhttp://git.icculus.org/?p=dana/openbox.git;a=rss
p423
sg19
g64
sg31
Nsg32
VFix some namings and xml formatting in rc.xml and rc.xsd
p424
stRp425
sg55
g12
((I2012
I10
I7
I0
I53
I36
I6
I281
I0
t(dtRp426
sg14
(lp427
g1
(g2
g3
(dp428
g17
Vhttp://git.icculus.org/?p=dana/openbox.git;a=commitdiff;h=1974c69fb356a4958316dc7657a5f726804ac648
p429
sg19
g20
sg21
g22
stRp430
asg60
VDenis Kaganovich <mahatma@eu.by>
p431
sg41
VFix some namings and xml formatting in rc.xml and rc.xsd
p432
sg94
g424
sg95
(lp433
g1
(g2
g3
(dp434
g28
Vhttp://git.icculus.org/?p=dana/openbox.git;a=rss
p435
sg19
g99
sg31
Nsg32
V<pre>\u000aFix some namings and xml formatting in rc.xml and rc.xsd\u000a</pre><ul>\u000a<li>[<a href="http://git.icculus.org/?p=dana/openbox.git;a=blobdiff;f=data/rc.xml;fp=data/rc.xml;h=6e8445aabf05792951c117b29b35b08949ba7dd9;hp=7c37928eefb5e6a2eba5f7414b88201c15759b8b;hb=1974c69fb356a4958316dc7657a5f726804ac648;hpb=56a0993300e6b4939b2c4eae1cf4d444732cd043" title="diff">D</a><a href="http://git.icculus.org/?p=dana/openbox.git;a=history;f=data/rc.xml;h=1974c69fb356a4958316dc7657a5f726804ac648" title="history">H</a>] data/rc.xml</li>\u000a<li>[<a href="http://git.icculus.org/?p=dana/openbox.git;a=blobdiff;f=data/rc.xsd;fp=data/rc.xsd;h=fb7da5224e243844de79eefb41b7706744cd996c;hp=e2850336a506443f905d4398d01b2661ef33d296;hb=1974c69fb356a4958316dc7657a5f726804ac648;hpb=56a0993300e6b4939b2c4eae1cf4d444732cd043" title="diff">D</a><a href="http://git.icculus.org/?p=dana/openbox.git;a=history;f=data/rc.xsd;h=1974c69fb356a4958316dc7657a5f726804ac648" title="history">H</a>] data/rc.xsd</li>\u000a</ul>
p436
stRp437
asg102
I01
sS'title_detail'
p438
g1
(g2
g3
(dp439
g28
Vhttp://git.icculus.org/?p=dana/openbox.git;a=rss
p440
sg19
g30
sg31
Nsg32
g432
stRp441
sg36
g429
sg48
(lp442
g1
(g2
g3
(dtRp443
asg109
(lp444
g111
aV*
ag112
asS'author_detail'
p445
g1
(g2
g3
(dp446
g45
VDenis Kaganovich
p447
sg116
Vmahatma@eu.by
p448
stRp449
sg119
Vhttp://git.icculus.org/?p=dana/openbox.git;a=commitdiff;h=1974c69fb356a4958316dc7657a5f726804ac648
p450
sg70
VSun, 7 Oct 2012 00:53:36 +0000
p451
stRp452
ag1
(g2
g3
(dp453
S'summary_detail'
p454
g1
(g2
g3
(dp455
g28
Vhttp://git.icculus.org/?p=dana/openbox.git;a=rss
p456
sg19
g64
sg31
Nsg32
VWhen a window is the focus target and it is removed from the focus order, reset the...
p457
stRp458
sg55
g12
((I2012
I10
I1
I3
I42
I16
I0
I275
I0
t(dtRp459
sg14
(lp460
g1
(g2
g3
(dp461
g17
Vhttp://git.icculus.org/?p=dana/openbox.git;a=commitdiff;h=56a0993300e6b4939b2c4eae1cf4d444732cd043
p462
sg19
g20
sg21
g22
stRp463
asg60
VDana Jansens <danakj@orodu.net>
p464
sg41
VWhen a window is the focus target and it is removed from the focus order, reset the...
p465
sg94
g457
sg95
(lp466
g1
(g2
g3
(dp467
g28
Vhttp://git.icculus.org/?p=dana/openbox.git;a=rss
p468
sg19
g99
sg31
Nsg32
V<pre>\u000aWhen a window is the focus target and it is removed from the focus order, reset the focus cycling (Fix bug 5410)\u000a\u000aWe were only doing this if a dialog was showing. But if it's the target, then\u000aa dialog is not relevant, we should always recompute the focus cycling. This\u000aavoids a crash when not using a dialog and closing a window during cycling.\u000a</pre><ul>\u000a<li>[<a href="http://git.icculus.org/?p=dana/openbox.git;a=blobdiff;f=openbox/focus_cycle.c;fp=openbox/focus_cycle.c;h=93a9a9930ee1884743372b1ac2ff314f8500fb1e;hp=6d4cc2a5ea932188b4ff908e8051916b1036d6d1;hb=56a0993300e6b4939b2c4eae1cf4d444732cd043;hpb=2391410e3fd7767e266c0efe84fd34244ea29dc6" title="diff">D</a><a href="http://git.icculus.org/?p=dana/openbox.git;a=history;f=openbox/focus_cycle.c;h=56a0993300e6b4939b2c4eae1cf4d444732cd043" title="history">H</a>] openbox/focus_cycle.c</li>\u000a</ul>
p469
stRp470
asg102
I01
sS'title_detail'
p471
g1
(g2
g3
(dp472
g28
Vhttp://git.icculus.org/?p=dana/openbox.git;a=rss
p473
sg19
g30
sg31
Nsg32
g465
stRp474
sg36
g462
sg48
(lp475
g1
(g2
g3
(dtRp476
asg109
(lp477
g111
aV*
ag112
asS'author_detail'
p478
g1
(g2
g3
(dp479
g45
VDana Jansens
p480
sg116
Vdanakj@orodu.net
p481
stRp482
sg119
Vhttp://git.icculus.org/?p=dana/openbox.git;a=commitdiff;h=56a0993300e6b4939b2c4eae1cf4d444732cd043
p483
sg70
VMon, 1 Oct 2012 03:42:16 +0000
p484
stRp485
ag1
(g2
g3
(dp486
S'summary_detail'
p487
g1
(g2
g3
(dp488
g28
Vhttp://git.icculus.org/?p=dana/openbox.git;a=rss
p489
sg19
g64
sg31
Nsg32
VFix negative ResizeRelative values with terminal windows (Fix bug 5228)
p490
stRp491
sg55
g12
((I2012
I10
I1
I4
I11
I4
I0
I275
I0
t(dtRp492
sg14
(lp493
g1
(g2
g3
(dp494
g17
Vhttp://git.icculus.org/?p=dana/openbox.git;a=commitdiff;h=2391410e3fd7767e266c0efe84fd34244ea29dc6
p495
sg19
g20
sg21
g22
stRp496
asg60
VDana Jansens <danakj@orodu.net>
p497
sg41
VFix negative ResizeRelative values with terminal windows (Fix bug 5228)
p498
sg94
g490
sg95
(lp499
g1
(g2
g3
(dp500
g28
Vhttp://git.icculus.org/?p=dana/openbox.git;a=rss
p501
sg19
g99
sg31
Nsg32
V<pre>\u000aFix negative ResizeRelative values with terminal windows (Fix bug 5228)\u000a\u000aInspired by patches from Brian Mock &lt;mock.brian@gmail.com&gt;.\u000a</pre><ul>\u000a<li>[<a href="http://git.icculus.org/?p=dana/openbox.git;a=blobdiff;f=openbox/actions/resizerelative.c;fp=openbox/actions/resizerelative.c;h=a4739104631f22a510469cb99b1dbe8e273b394e;hp=7ac9f06ef14ea57c36d8fd6da88821c2bb52ea20;hb=2391410e3fd7767e266c0efe84fd34244ea29dc6;hpb=62fd771d2f260992d35fb0c24d1e1009ff1cdc0d" title="diff">D</a><a href="http://git.icculus.org/?p=dana/openbox.git;a=history;f=openbox/actions/resizerelative.c;h=2391410e3fd7767e266c0efe84fd34244ea29dc6" title="history">H</a>] openbox/actions/resizerelative.c</li>\u000a</ul>
p502
stRp503
asg102
I01
sS'title_detail'
p504
g1
(g2
g3
(dp505
g28
Vhttp://git.icculus.org/?p=dana/openbox.git;a=rss
p506
sg19
g30
sg31
Nsg32
g498
stRp507
sg36
g495
sg48
(lp508
g1
(g2
g3
(dtRp509
asg109
(lp510
g111
aV*
ag112
asS'author_detail'
p511
g1
(g2
g3
(dp512
g45
VDana Jansens
p513
sg116
Vdanakj@orodu.net
p514
stRp515
sg119
Vhttp://git.icculus.org/?p=dana/openbox.git;a=commitdiff;h=2391410e3fd7767e266c0efe84fd34244ea29dc6
p516
sg70
VMon, 1 Oct 2012 04:11:04 +0000
p517
stRp518
ag1
(g2
g3
(dp519
S'summary_detail'
p520
g1
(g2
g3
(dp521
g28
Vhttp://git.icculus.org/?p=dana/openbox.git;a=rss
p522
sg19
g64
sg31
Nsg32
VGet the window's title in the fake-managed case since we apply app rule matching...
p523
stRp524
sg55
g12
((I2012
I10
I1
I3
I24
I45
I0
I275
I0
t(dtRp525
sg14
(lp526
g1
(g2
g3
(dp527
g17
Vhttp://git.icculus.org/?p=dana/openbox.git;a=commitdiff;h=62fd771d2f260992d35fb0c24d1e1009ff1cdc0d
p528
sg19
g20
sg21
g22
stRp529
asg60
VDana Jansens <danakj@orodu.net>
p530
sg41
VGet the window's title in the fake-managed case since we apply app rule matching...
p531
sg94
g523
sg95
(lp532
g1
(g2
g3
(dp533
g28
Vhttp://git.icculus.org/?p=dana/openbox.git;a=rss
p534
sg19
g99
sg31
Nsg32
V<pre>\u000aGet the window's title in the fake-managed case since we apply app rule matching (Fix bug 5277)\u000a</pre><ul>\u000a<li>[<a href="http://git.icculus.org/?p=dana/openbox.git;a=blobdiff;f=openbox/client.c;fp=openbox/client.c;h=9e25135cf76be966f376d35a740b63ea5a6e84e6;hp=cd93ba590111a56a32ea5de9e5ed423b97f8d9a2;hb=62fd771d2f260992d35fb0c24d1e1009ff1cdc0d;hpb=c6997ba19ee5fdbaca49c55c8802f6b75a74c65f" title="diff">D</a><a href="http://git.icculus.org/?p=dana/openbox.git;a=history;f=openbox/client.c;h=62fd771d2f260992d35fb0c24d1e1009ff1cdc0d" title="history">H</a>] openbox/client.c</li>\u000a</ul>
p535
stRp536
asg102
I01
sS'title_detail'
p537
g1
(g2
g3
(dp538
g28
Vhttp://git.icculus.org/?p=dana/openbox.git;a=rss
p539
sg19
g30
sg31
Nsg32
g531
stRp540
sg36
g528
sg48
(lp541
g1
(g2
g3
(dtRp542
asg109
(lp543
g111
aV*
ag112
asS'author_detail'
p544
g1
(g2
g3
(dp545
g45
VDana Jansens
p546
sg116
Vdanakj@orodu.net
p547
stRp548
sg119
Vhttp://git.icculus.org/?p=dana/openbox.git;a=commitdiff;h=62fd771d2f260992d35fb0c24d1e1009ff1cdc0d
p549
sg70
VMon, 1 Oct 2012 03:24:45 +0000
p550
stRp551
ag1
(g2
g3
(dp552
S'summary_detail'
p553
g1
(g2
g3
(dp554
g28
Vhttp://git.icculus.org/?p=dana/openbox.git;a=rss
p555
sg19
g64
sg31
Nsg32
VPrint error message to stderr (Fix bug 5731)
p556
stRp557
sg55
g12
((I2012
I8
I16
I23
I57
I8
I3
I229
I0
t(dtRp558
sg14
(lp559
g1
(g2
g3
(dp560
g17
Vhttp://git.icculus.org/?p=dana/openbox.git;a=commitdiff;h=c6997ba19ee5fdbaca49c55c8802f6b75a74c65f
p561
sg19
g20
sg21
g22
stRp562
asg60
VXin Wang <dram.wang@gmail.com>
p563
sg41
VPrint error message to stderr (Fix bug 5731)
p564
sg94
g556
sg95
(lp565
g1
(g2
g3
(dp566
g28
Vhttp://git.icculus.org/?p=dana/openbox.git;a=rss
p567
sg19
g99
sg31
Nsg32
V<pre>\u000aPrint error message to stderr (Fix bug 5731)\u000a\u000aAs stdout is redirected to /dev/null by some DMs, we need to print error\u000amessages to stderr.\u000a</pre><ul>\u000a<li>[<a href="http://git.icculus.org/?p=dana/openbox.git;a=blobdiff;f=data/autostart/openbox-xdg-autostart;fp=data/autostart/openbox-xdg-autostart;h=04a17a199476e3a0932c920a18ae02d83489b83d;hp=ea76028182b7b46e1fca667bf9e0a9cfcaa165b8;hb=c6997ba19ee5fdbaca49c55c8802f6b75a74c65f;hpb=65693d18dbf9d434f8c6cd5025bf3bdfbe4d8a5c" title="diff">D</a><a href="http://git.icculus.org/?p=dana/openbox.git;a=history;f=data/autostart/openbox-xdg-autostart;h=c6997ba19ee5fdbaca49c55c8802f6b75a74c65f" title="history">H</a>] data/autostart/openbox-xdg-autostart</li>\u000a</ul>
p568
stRp569
asg102
I01
sS'title_detail'
p570
g1
(g2
g3
(dp571
g28
Vhttp://git.icculus.org/?p=dana/openbox.git;a=rss
p572
sg19
g30
sg31
Nsg32
g564
stRp573
sg36
g561
sg48
(lp574
g1
(g2
g3
(dtRp575
asg109
(lp576
g111
aV*
ag112
asS'author_detail'
p577
g1
(g2
g3
(dp578
g45
VXin Wang
p579
sg116
Vdram.wang@gmail.com
p580
stRp581
sg119
Vhttp://git.icculus.org/?p=dana/openbox.git;a=commitdiff;h=c6997ba19ee5fdbaca49c55c8802f6b75a74c65f
p582
sg70
VThu, 16 Aug 2012 23:57:08 +0000
p583
stRp584
ag1
(g2
g3
(dp585
S'summary_detail'
p586
g1
(g2
g3
(dp587
g28
Vhttp://git.icculus.org/?p=dana/openbox.git;a=rss
p588
sg19
g64
sg31
Nsg32
VAddress a couple bugs in rc.xsd (Fix bug 5746)
p589
stRp590
sg55
g12
((I2012
I10
I1
I3
I0
I24
I0
I275
I0
t(dtRp591
sg14
(lp592
g1
(g2
g3
(dp593
g17
Vhttp://git.icculus.org/?p=dana/openbox.git;a=commitdiff;h=65693d18dbf9d434f8c6cd5025bf3bdfbe4d8a5c
p594
sg19
g20
sg21
g22
stRp595
asg60
VDenis Kaganovich <mahatma@eu.by>
p596
sg41
VAddress a couple bugs in rc.xsd (Fix bug 5746)
p597
sg94
g589
sg95
(lp598
g1
(g2
g3
(dp599
g28
Vhttp://git.icculus.org/?p=dana/openbox.git;a=rss
p600
sg19
g99
sg31
Nsg32
V<pre>\u000aAddress a couple bugs in rc.xsd (Fix bug 5746)\u000a</pre><ul>\u000a<li>[<a href="http://git.icculus.org/?p=dana/openbox.git;a=blobdiff;f=data/rc.xsd;fp=data/rc.xsd;h=e2850336a506443f905d4398d01b2661ef33d296;hp=ad96994a8df161f762206474521d15d6a98f369d;hb=65693d18dbf9d434f8c6cd5025bf3bdfbe4d8a5c;hpb=9154bddf35a7abe98df011856c86b052e4ae50d8" title="diff">D</a><a href="http://git.icculus.org/?p=dana/openbox.git;a=history;f=data/rc.xsd;h=65693d18dbf9d434f8c6cd5025bf3bdfbe4d8a5c" title="history">H</a>] data/rc.xsd</li>\u000a</ul>
p601
stRp602
asg102
I01
sS'title_detail'
p603
g1
(g2
g3
(dp604
g28
Vhttp://git.icculus.org/?p=dana/openbox.git;a=rss
p605
sg19
g30
sg31
Nsg32
g597
stRp606
sg36
g594
sg48
(lp607
g1
(g2
g3
(dtRp608
asg109
(lp609
g111
aV*
ag112
asS'author_detail'
p610
g1
(g2
g3
(dp611
g45
VDenis Kaganovich
p612
sg116
Vmahatma@eu.by
p613
stRp614
sg119
Vhttp://git.icculus.org/?p=dana/openbox.git;a=commitdiff;h=65693d18dbf9d434f8c6cd5025bf3bdfbe4d8a5c
p615
sg70
VMon, 1 Oct 2012 03:00:24 +0000
p616
stRp617
ag1
(g2
g3
(dp618
S'summary_detail'
p619
g1
(g2
g3
(dp620
g28
Vhttp://git.icculus.org/?p=dana/openbox.git;a=rss
p621
sg19
g64
sg31
Nsg32
VMake .desktop files obey specs where possible (Fix bug 5737)
p622
stRp623
sg55
g12
((I2012
I10
I1
I2
I54
I18
I0
I275
I0
t(dtRp624
sg14
(lp625
g1
(g2
g3
(dp626
g17
Vhttp://git.icculus.org/?p=dana/openbox.git;a=commitdiff;h=9154bddf35a7abe98df011856c86b052e4ae50d8
p627
sg19
g20
sg21
g22
stRp628
asg60
VJulian Ospald <julian.ospald@googlemail.com>
p629
sg41
VMake .desktop files obey specs where possible (Fix bug 5737)
p630
sg94
g622
sg95
(lp631
g1
(g2
g3
(dp632
g28
Vhttp://git.icculus.org/?p=dana/openbox.git;a=rss
p633
sg19
g99
sg31
Nsg32
V<pre>\u000aMake .desktop files obey specs where possible (Fix bug 5737)\u000a</pre><ul>\u000a<li>[<a href="http://git.icculus.org/?p=dana/openbox.git;a=blobdiff;f=data/openbox.desktop;fp=data/openbox.desktop;h=631778bf1dc445147507235138c2a640feb6ac86;hp=d49ae2275c60e7fadf9b194dc5be13e30cf72e9a;hb=9154bddf35a7abe98df011856c86b052e4ae50d8;hpb=af01da31502b20300222213e693457320e4158e4" title="diff">D</a><a href="http://git.icculus.org/?p=dana/openbox.git;a=history;f=data/openbox.desktop;h=9154bddf35a7abe98df011856c86b052e4ae50d8" title="history">H</a>] data/openbox.desktop</li>\u000a<li>[<a href="http://git.icculus.org/?p=dana/openbox.git;a=blobdiff;f=data/xsession/openbox-gnome.desktop.in;fp=data/xsession/openbox-gnome.desktop.in;h=24931b50afd56e871fb30ec453747d0fa6687a6b;hp=19ae82e094c4542f541633a1a9bfe26898e6cbbc;hb=9154bddf35a7abe98df011856c86b052e4ae50d8;hpb=af01da31502b20300222213e693457320e4158e4" title="diff">D</a><a href="http://git.icculus.org/?p=dana/openbox.git;a=history;f=data/xsession/openbox-gnome.desktop.in;h=9154bddf35a7abe98df011856c86b052e4ae50d8" title="history">H</a>] data/xsession/openbox-gnome.desktop.in</li>\u000a<li>[<a href="http://git.icculus.org/?p=dana/openbox.git;a=blobdiff;f=data/xsession/openbox-kde.desktop.in;fp=data/xsession/openbox-kde.desktop.in;h=bc78a97c72750250b5d7b170f02f3b07d6fe62de;hp=ddfc72d714c41b6b98cebe948636b5db58b29092;hb=9154bddf35a7abe98df011856c86b052e4ae50d8;hpb=af01da31502b20300222213e693457320e4158e4" title="diff">D</a><a href="http://git.icculus.org/?p=dana/openbox.git;a=history;f=data/xsession/openbox-kde.desktop.in;h=9154bddf35a7abe98df011856c86b052e4ae50d8" title="history">H</a>] data/xsession/openbox-kde.desktop.in</li>\u000a<li>[<a href="http://git.icculus.org/?p=dana/openbox.git;a=blobdiff;f=data/xsession/openbox.desktop.in;fp=data/xsession/openbox.desktop.in;h=21669cf8f9b7734ada4dad625646ed0b1e1f9061;hp=0914e5b4d9e18abf3b973133601cc5a9a0838d7e;hb=9154bddf35a7abe98df011856c86b052e4ae50d8;hpb=af01da31502b20300222213e693457320e4158e4" title="diff">D</a><a href="http://git.icculus.org/?p=dana/openbox.git;a=history;f=data/xsession/openbox.desktop.in;h=9154bddf35a7abe98df011856c86b052e4ae50d8" title="history">H</a>] data/xsession/openbox.desktop.in</li>\u000a</ul>
p634
stRp635
asg102
I01
sS'title_detail'
p636
g1
(g2
g3
(dp637
g28
Vhttp://git.icculus.org/?p=dana/openbox.git;a=rss
p638
sg19
g30
sg31
Nsg32
g630
stRp639
sg36
g627
sg48
(lp640
g1
(g2
g3
(dtRp641
asg109
(lp642
g111
aV*
ag112
asS'author_detail'
p643
g1
(g2
g3
(dp644
g45
VJulian Ospald
p645
sg116
Vjulian.ospald@googlemail.com
p646
stRp647
sg119
Vhttp://git.icculus.org/?p=dana/openbox.git;a=commitdiff;h=9154bddf35a7abe98df011856c86b052e4ae50d8
p648
sg70
VMon, 1 Oct 2012 02:54:18 +0000
p649
stRp650
ag1
(g2
g3
(dp651
S'summary_detail'
p652
g1
(g2
g3
(dp653
g28
Vhttp://git.icculus.org/?p=dana/openbox.git;a=rss
p654
sg19
g64
sg31
Nsg32
VAllow windows created by execute actions to steal focus if the user isn't interacting...
p655
stRp656
sg55
g12
((I2012
I10
I1
I2
I41
I34
I0
I275
I0
t(dtRp657
sg14
(lp658
g1
(g2
g3
(dp659
g17
Vhttp://git.icculus.org/?p=dana/openbox.git;a=commitdiff;h=af01da31502b20300222213e693457320e4158e4
p660
sg19
g20
sg21
g22
stRp661
asg60
VDana Jansens <danakj@orodu.net>
p662
sg41
VAllow windows created by execute actions to steal focus if the user isn't interacting...
p663
sg94
g655
sg95
(lp664
g1
(g2
g3
(dp665
g28
Vhttp://git.icculus.org/?p=dana/openbox.git;a=rss
p666
sg19
g99
sg31
Nsg32
V<pre>\u000aAllow windows created by execute actions to steal focus if the user isn't interacting with another window (Fix bug 5419).\u000a\u000aWhen the execute action was run, we would say that the user had used the focused\u000aat that time. Then when a new window popped up, we'd think the user was busy in\u000athe current window and prevent the new one from steal focus.\u000a\u000aNow the execute action does not update the &quot;user interacted with the focused\u000awindow&quot; timestamp anymore. So, if they aren't currently typing in some window\u000awhen they trigger an execute action, and the window appears, it will steal\u000afocus.\u000a</pre><ul>\u000a<li>[<a href="http://git.icculus.org/?p=dana/openbox.git;a=blobdiff;f=openbox/actions.c;fp=openbox/actions.c;h=ac849a9741b794070537ef1094e35787985628cd;hp=afbd9cb6445f07f395b6f6ac55e05404b03416fe;hb=af01da31502b20300222213e693457320e4158e4;hpb=6eb740cf119b14903afa3028e108dd98c57ff926" title="diff">D</a><a href="http://git.icculus.org/?p=dana/openbox.git;a=history;f=openbox/actions.c;h=af01da31502b20300222213e693457320e4158e4" title="history">H</a>] openbox/actions.c</li>\u000a<li>[<a href="http://git.icculus.org/?p=dana/openbox.git;a=blobdiff;f=openbox/actions.h;fp=openbox/actions.h;h=f413ad8284386389015d07d43197a42ae8ad8e68;hp=e03bc577742fd0eb92d03019c53061b1a3ea9393;hb=af01da31502b20300222213e693457320e4158e4;hpb=6eb740cf119b14903afa3028e108dd98c57ff926" title="diff">D</a><a href="http://git.icculus.org/?p=dana/openbox.git;a=history;f=openbox/actions.h;h=af01da31502b20300222213e693457320e4158e4" title="history">H</a>] openbox/actions.h</li>\u000a<li>[<a href="http://git.icculus.org/?p=dana/openbox.git;a=blobdiff;f=openbox/actions/execute.c;fp=openbox/actions/execute.c;h=df600fa08a7a66aa328f557c9660eaa500e5aa4f;hp=380ffa008996936d4484d3d6bb15914cf861417c;hb=af01da31502b20300222213e693457320e4158e4;hpb=6eb740cf119b14903afa3028e108dd98c57ff926" title="diff">D</a><a href="http://git.icculus.org/?p=dana/openbox.git;a=history;f=openbox/actions/execute.c;h=af01da31502b20300222213e693457320e4158e4" title="history">H</a>] openbox/actions/execute.c</li>\u000a<li>[<a href="http://git.icculus.org/?p=dana/openbox.git;a=blobdiff;f=openbox/event.h;fp=openbox/event.h;h=cc441405a4638e582f0119149ec76b5ff991981a;hp=4d9984e16c04ded47a499d047e9e6ba729092f3a;hb=af01da31502b20300222213e693457320e4158e4;hpb=6eb740cf119b14903afa3028e108dd98c57ff926" title="diff">D</a><a href="http://git.icculus.org/?p=dana/openbox.git;a=history;f=openbox/event.h;h=af01da31502b20300222213e693457320e4158e4" title="history">H</a>] openbox/event.h</li>\u000a</ul>
p667
stRp668
asg102
I01
sS'title_detail'
p669
g1
(g2
g3
(dp670
g28
Vhttp://git.icculus.org/?p=dana/openbox.git;a=rss
p671
sg19
g30
sg31
Nsg32
g663
stRp672
sg36
g660
sg48
(lp673
g1
(g2
g3
(dtRp674
asg109
(lp675
g111
aV*
ag112
asS'author_detail'
p676
g1
(g2
g3
(dp677
g45
VDana Jansens
p678
sg116
Vdanakj@orodu.net
p679
stRp680
sg119
Vhttp://git.icculus.org/?p=dana/openbox.git;a=commitdiff;h=af01da31502b20300222213e693457320e4158e4
p681
sg70
VMon, 1 Oct 2012 02:41:34 +0000
p682
stRp683
ag1
(g2
g3
(dp684
S'summary_detail'
p685
g1
(g2
g3
(dp686
g28
Vhttp://git.icculus.org/?p=dana/openbox.git;a=rss
p687
sg19
g64
sg31
Nsg32
VAllow window matching based on the group leader's name and class (Fix bug 5721)
p688
stRp689
sg55
g12
((I2012
I10
I1
I2
I16
I10
I0
I275
I0
t(dtRp690
sg14
(lp691
g1
(g2
g3
(dp692
g17
Vhttp://git.icculus.org/?p=dana/openbox.git;a=commitdiff;h=6eb740cf119b14903afa3028e108dd98c57ff926
p693
sg19
g20
sg21
g22
stRp694
asg60
VDana Jansens <danakj@orodu.net>
p695
sg41
VAllow window matching based on the group leader's name and class (Fix bug 5721)
p696
sg94
g688
sg95
(lp697
g1
(g2
g3
(dp698
g28
Vhttp://git.icculus.org/?p=dana/openbox.git;a=rss
p699
sg19
g99
sg31
Nsg32
V<pre>\u000aAllow window matching based on the group leader's name and class (Fix bug 5721)\u000a\u000aIn Openbox 3.4 we used the group leader's WM_CLASS value when it was available.\u000aThis prevents windows in the group from overriding with a specific value,\u000ahowever which is bad. More rationale can be found in\u000ahttp://icculus.org/pipermail/openbox/2010-September/006790.html\u000a\u000aSome applications (eg. Firefox) use command line flags to set the WM_CLASS\u000aproperty on the group leader but do not change the property on the mapped\u000awindows themselves. This makes matching these windows not possible in Openbox\u000a3.5.\u000a\u000aWe resolve this by exposing the group's WM_CLASS values alongside the individual\u000awindow's values. We add _OB_APP_GROUP_NAME and _OB_APP_GROUP_CLASS properties\u000aalong with &quot;groupname&quot; and &quot;classname&quot; attributes for the rc.xml application\u000atag.\u000a</pre><ul>\u000a<li>[<a href="http://git.icculus.org/?p=dana/openbox.git;a=blobdiff;f=data/rc.xml;fp=data/rc.xml;h=7c37928eefb5e6a2eba5f7414b88201c15759b8b;hp=209cc2dc9a9d416e0c04842060b7cb6f6dbb2be8;hb=6eb740cf119b14903afa3028e108dd98c57ff926;hpb=51d735672c7a726655867b703d07e390781939de" title="diff">D</a><a href="http://git.icculus.org/?p=dana/openbox.git;a=history;f=data/rc.xml;h=6eb740cf119b14903afa3028e108dd98c57ff926" title="history">H</a>] data/rc.xml</li>\u000a<li>[<a href="http://git.icculus.org/?p=dana/openbox.git;a=blobdiff;f=obt/prop.c;fp=obt/prop.c;h=f7919d6c380a64d919d2d909a5f6cede435f5490;hp=638373fdfd531173a7868e49348ce8ef1d0bdce9;hb=6eb740cf119b14903afa3028e108dd98c57ff926;hpb=51d735672c7a726655867b703d07e390781939de" title="diff">D</a><a href="http://git.icculus.org/?p=dana/openbox.git;a=history;f=obt/prop.c;h=6eb740cf119b14903afa3028e108dd98c57ff926" title="history">H</a>] obt/prop.c</li>\u000a<li>[<a href="http://git.icculus.org/?p=dana/openbox.git;a=blobdiff;f=obt/prop.h;fp=obt/prop.h;h=acb5c956ede42d3c1ca2182de40218e5d071df1c;hp=b30232e9d8282d455e1ae78ae3d18d6614eebd18;hb=6eb740cf119b14903afa3028e108dd98c57ff926;hpb=51d735672c7a726655867b703d07e390781939de" title="diff">D</a><a href="http://git.icculus.org/?p=dana/openbox.git;a=history;f=obt/prop.h;h=6eb740cf119b14903afa3028e108dd98c57ff926" title="history">H</a>] obt/prop.h</li>\u000a<li>[<a href="http://git.icculus.org/?p=dana/openbox.git;a=blobdiff;f=openbox/client.c;fp=openbox/client.c;h=cd93ba590111a56a32ea5de9e5ed423b97f8d9a2;hp=c54b21fba3e0a135e3b50a1c60ff61913af30273;hb=6eb740cf119b14903afa3028e108dd98c57ff926;hpb=51d735672c7a726655867b703d07e390781939de" title="diff">D</a><a href="http://git.icculus.org/?p=dana/openbox.git;a=history;f=openbox/client.c;h=6eb740cf119b14903afa3028e108dd98c57ff926" title="history">H</a>] openbox/client.c</li>\u000a<li>[<a href="http://git.icculus.org/?p=dana/openbox.git;a=blobdiff;f=openbox/client.h;fp=openbox/client.h;h=0e55c59f7399cbd07aaef1993f3917b1676b1182;hp=5a20822fc4ce55afe9ce4d239f7e0a4f867e592e;hb=6eb740cf119b14903afa3028e108dd98c57ff926;hpb=51d735672c7a726655867b703d07e390781939de" title="diff">D</a><a href="http://git.icculus.org/?p=dana/openbox.git;a=history;f=openbox/client.h;h=6eb740cf119b14903afa3028e108dd98c57ff926" title="history">H</a>] openbox/client.h</li>\u000a<li>[<a href="http://git.icculus.org/?p=dana/openbox.git;a=blobdiff;f=openbox/config.c;fp=openbox/config.c;h=d5ff8c45c9b7e12608cc7d825ed3322b5fb14b31;hp=0d9eb689f2e7f4e7ad8ecc4073529413c1541371;hb=6eb740cf119b14903afa3028e108dd98c57ff926;hpb=51d735672c7a726655867b703d07e390781939de" title="diff">D</a><a href="http://git.icculus.org/?p=dana/openbox.git;a=history;f=openbox/config.c;h=6eb740cf119b14903afa3028e108dd98c57ff926" title="history">H</a>] openbox/config.c</li>\u000a<li>[<a href="http://git.icculus.org/?p=dana/openbox.git;a=blobdiff;f=openbox/config.h;fp=openbox/config.h;h=43386d3c319a02d4a191204bc41a4cbd19758fb2;hp=730dc39a5f8040d1a3ca5460dd087d4bf9c33f34;hb=6eb740cf119b14903afa3028e108dd98c57ff926;hpb=51d735672c7a726655867b703d07e390781939de" title="diff">D</a><a href="http://git.icculus.org/?p=dana/openbox.git;a=history;f=openbox/config.h;h=6eb740cf119b14903afa3028e108dd98c57ff926" title="history">H</a>] openbox/config.h</li>\u000a<li>[<a href="http://git.icculus.org/?p=dana/openbox.git;a=blobdiff;f=openbox/screen.c;fp=openbox/screen.c;h=33acb4a16a2828f62bcd5bb769807be32f0eeff3;hp=f4031f59591cf430edd1b93eaddcc7130c80536b;hb=6eb740cf119b14903afa3028e108dd98c57ff926;hpb=51d735672c7a726655867b703d07e390781939de" title="diff">D</a><a href="http://git.icculus.org/?p=dana/openbox.git;a=history;f=openbox/screen.c;h=6eb740cf119b14903afa3028e108dd98c57ff926" title="history">H</a>] openbox/screen.c</li>\u000a</ul>
p700
stRp701
asg102
I01
sS'title_detail'
p702
g1
(g2
g3
(dp703
g28
Vhttp://git.icculus.org/?p=dana/openbox.git;a=rss
p704
sg19
g30
sg31
Nsg32
g696
stRp705
sg36
g693
sg48
(lp706
g1
(g2
g3
(dtRp707
asg109
(lp708
g111
aV*
ag112
asS'author_detail'
p709
g1
(g2
g3
(dp710
g45
VDana Jansens
p711
sg116
Vdanakj@orodu.net
p712
stRp713
sg119
Vhttp://git.icculus.org/?p=dana/openbox.git;a=commitdiff;h=6eb740cf119b14903afa3028e108dd98c57ff926
p714
sg70
VMon, 1 Oct 2012 02:16:10 +0000
p715
stRp716
ag1
(g2
g3
(dp717
S'summary_detail'
p718
g1
(g2
g3
(dp719
g28
Vhttp://git.icculus.org/?p=dana/openbox.git;a=rss
p720
sg19
g64
sg31
Nsg32
VAllow loading of menu files outside of your XDG_CONFIG_HOME (Fix bug 5711)
p721
stRp722
sg55
g12
((I2012
I10
I1
I1
I23
I58
I0
I275
I0
t(dtRp723
sg14
(lp724
g1
(g2
g3
(dp725
g17
Vhttp://git.icculus.org/?p=dana/openbox.git;a=commitdiff;h=51d735672c7a726655867b703d07e390781939de
p726
sg19
g20
sg21
g22
stRp727
asg60
VDana Jansens <danakj@orodu.net>
p728
sg41
VAllow loading of menu files outside of your XDG_CONFIG_HOME (Fix bug 5711)
p729
sg94
g721
sg95
(lp730
g1
(g2
g3
(dp731
g28
Vhttp://git.icculus.org/?p=dana/openbox.git;a=rss
p732
sg19
g99
sg31
Nsg32
V<pre>\u000aAllow loading of menu files outside of your XDG_CONFIG_HOME (Fix bug 5711)\u000a\u000aWhen the given file name can not be found in your XDG_CONFIG_HOME, ie in\u000a ~/.config/openbox, then try the file name directly.\u000a\u000aThis means if you specify a menu file such as &quot;/home/dana/helloworld.xml&quot;,\u000aopenbox will try, in order:\u000a1) ~/.config/openbox/home/dana/helloworld.xml\u000a2) /home/dana/helloworld.xml\u000a\u000aAnd it will load the file you meant when it tries the second one.\u000a</pre><ul>\u000a<li>[<a href="http://git.icculus.org/?p=dana/openbox.git;a=blobdiff;f=openbox/menu.c;fp=openbox/menu.c;h=7c49cedbe3d411b22b7fbb0647d7bb37aeeb332d;hp=eaf081d944a3c1e4e0e2c54f63038b1b8a33a010;hb=51d735672c7a726655867b703d07e390781939de;hpb=dc4cfa94c9cd7bd30cdc87a6e4ab8174d8a9703f" title="diff">D</a><a href="http://git.icculus.org/?p=dana/openbox.git;a=history;f=openbox/menu.c;h=51d735672c7a726655867b703d07e390781939de" title="history">H</a>] openbox/menu.c</li>\u000a</ul>
p733
stRp734
asg102
I01
sS'title_detail'
p735
g1
(g2
g3
(dp736
g28
Vhttp://git.icculus.org/?p=dana/openbox.git;a=rss
p737
sg19
g30
sg31
Nsg32
g729
stRp738
sg36
g726
sg48
(lp739
g1
(g2
g3
(dtRp740
asg109
(lp741
g111
aV*
ag112
asS'author_detail'
p742
g1
(g2
g3
(dp743
g45
VDana Jansens
p744
sg116
Vdanakj@orodu.net
p745
stRp746
sg119
Vhttp://git.icculus.org/?p=dana/openbox.git;a=commitdiff;h=51d735672c7a726655867b703d07e390781939de
p747
sg70
VMon, 1 Oct 2012 01:23:58 +0000
p748
stRp749
asS'canto_update'
p750
F1364190832.4978371
sS'headers'
p751
(dp752
S'transfer-encoding'
p753
S'chunked'
p754
sS'vary'
p755
S'Accept-Encoding'
p756
sS'server'
p757
S'Apache/2.2.22 (Ubuntu)'
p758
sS'last-modified'
p759
g74
sS'connection'
p760
S'close'
p761
sS'date'
p762
S'Mon, 25 Mar 2013 05:53:42 GMT'
p763
sS'content-type'
p764
S'application/rss+xml; charset=utf-8'
p765
ssg17
Vhttp://git.icculus.org/?p=dana/openbox.git;a=rss
p766
sg109
(lp767
sS'version'
p768
Vrss20
p769
sS'canto_version'
p770
(I0
I7
I10
tp771
sS'namespaces'
p772
(dp773
g95
Vhttp://purl.org/rss/1.0/modules/content/
p774
sstRp775
.