ccopy_reg
_reconstructor
p1
(cfeedparser
FeedParserDict
p2
c__builtin__
dict
p3
(dp4
S'feed'
p5
g1
(g2
g3
(dp6
S'updated'
p7
V2013-03-25T04:07:22Z
p8
sS'subtitle'
p9
VNews for nerds, stuff that matters
p10
sS'updated_parsed'
p11
ctime
struct_time
p12
((I2013
I3
I25
I4
I7
I22
I0
I84
I0
t(dtRp13
sS'links'
p14
(lp15
g1
(g2
g3
(dp16
S'href'
p17
Vhttp://slashdot.org/
p18
sS'type'
p19
Vtext/html
p20
sS'rel'
p21
Valternate
p22
stRp23
ag1
(g2
g3
(dp24
S'href'
p25
Vhttp://rss.slashdot.org/Slashdot/slashdot
p26
sS'type'
p27
Vapplication/rss+xml
p28
sS'rel'
p29
Vself
p30
stRp31
ag1
(g2
g3
(dp32
S'href'
p33
Vhttp://pubsubhubbub.appspot.com/
p34
sg19
g20
sS'rel'
p35
Vhub
p36
stRp37
asS'tags'
p38
(lp39
g1
(g2
g3
(dp40
S'term'
p41
VTechnology
p42
sS'scheme'
p43
NsS'label'
p44
NstRp45
asS'image'
p46
g1
(g2
g3
(dp47
S'title_detail'
p48
g1
(g2
g3
(dp49
S'base'
p50
Vhttp://rss.slashdot.org/slashdot/Slashdot
p51
sg19
Vtext/plain
p52
sS'value'
p53
VSlashdot
p54
sS'language'
p55
NstRp56
sg17
Vhttp://a.fsdn.com/sd/topics/topicslashdot.gif
p57
sS'link'
p58
Vhttp://slashdot.org/
p59
sg14
(lp60
g1
(g2
g3
(dp61
g17
g59
sg19
g20
sg21
g22
stRp62
asS'title'
p63
g54
stRp64
sS'ttl'
p65
V2
sS'feedburner_info'
p66
(dp67
S'uri'
p68
Vslashdot/slashdot
p69
ssg58
g18
sS'authors'
p70
(lp71
g1
(g2
g3
(dtRp72
asS'rights_detail'
p73
g1
(g2
g3
(dp74
g50
Vhttp://rss.slashdot.org/slashdot/Slashdot
p75
sg19
Vtext/plain
p76
sg53
VCopyright 1997-2013, Slashdot. All Rights Reserved. Slashdot is a Dice Holdings, Inc. company
p77
sg55
NstRp78
sS'publisher_detail'
p79
g1
(g2
g3
(dp80
S'name'
p81
VGeeknet, Inc.
p82
stRp83
sS'author_detail'
p84
g1
(g2
g3
(dp85
S'email'
p86
Vhelp@slashdot.org
p87
stRp88
sS'sy_updatebase'
p89
V1970-01-01T00:00:00Z
p90
sS'publisher'
p91
g82
sS'published_parsed'
p92
g12
((I2013
I3
I25
I4
I7
I22
I0
I84
I0
t(dtRp93
sg55
Ven-us
p94
sS'author'
p95
g87
sS'rights'
p96
g77
sS'subtitle_detail'
p97
g1
(g2
g3
(dp98
g50
Vhttp://rss.slashdot.org/slashdot/Slashdot
p99
sg19
Vtext/html
p100
sg53
g10
sg55
NstRp101
sS'title_detail'
p102
g1
(g2
g3
(dp103
g50
Vhttp://rss.slashdot.org/slashdot/Slashdot
p104
sg19
g52
sg53
VSlashdot
p105
sg55
NstRp106
sS'published'
p107
VMon, 25 Mar 2013 04:07:22 GMT
p108
sS'sy_updateperiod'
p109
Vhourly
p110
sg63
g105
sS'sy_updatefrequency'
p111
V1
stRp112
sS'status'
p113
I200
sg7
S'Mon, 25 Mar 2013 05:41:05 GMT'
p114
sg11
g12
((I2013
I3
I25
I5
I41
I5
I0
I84
I0
t(dtRp115
sS'encoding'
p116
VUTF-8
p117
sS'bozo'
p118
I0
sS'canto_version'
p119
(I0
I7
I10
tp120
sS'canto_update'
p121
F1364190778.3864341
sS'headers'
p122
(dp123
S'x-xss-protection'
p124
S'1; mode=block'
p125
sS'x-content-type-options'
p126
S'nosniff'
p127
sS'expires'
p128
S'Mon, 25 Mar 2013 05:52:34 GMT'
p129
sS'server'
p130
S'GSE'
p131
sS'last-modified'
p132
g114
sS'connection'
p133
S'close'
p134
sS'etag'
p135
S'xseI7t837efQ6nwIMR9pszhs1ls'
p136
sS'cache-control'
p137
S'private, max-age=0'
p138
sS'date'
p139
S'Mon, 25 Mar 2013 05:52:34 GMT'
p140
sS'content-type'
p141
S'text/xml; charset=UTF-8'
p142
ssS'etag'
p143
VxseI7t837efQ6nwIMR9pszhs1ls
p144
sS'canto_state'
p145
(lp146
sg17
Vhttp://rss.slashdot.org/slashdot/Slashdot
p147
sS'version'
p148
Vrss20
p149
sS'entries'
p150
(lp151
g1
(g2
g3
(dp152
S'summary_detail'
p153
g1
(g2
g3
(dp154
g50
Vhttp://rss.slashdot.org/slashdot/Slashdot
p155
sg19
g100
sg53
VAn anonymous reader writes "A Google engineer visiting Vietnam discovered a large portion of Vietnamese high school students might be able to pass a Google interview. According to TFA (and his blog), students start learning computing as early as grade 2. According to the blogger and another senior engineer, about half of the students in an 11th grade class he visited would be able to make through their interview process. The blogger also mentioned U.S. school boards blocking computer science education. The link he posted backing up his claim goes to a Maryland Public Schools website describing No Child Left Behind technicalities. According to the link, computer science is not considered a core subject. While the blogger provided no substantial evidence of U.S. school boards blocking computer science education, he claimed that students at Galileo Academy had difficulty with the HTML image tag. According to the school's Wikipedia page, by California standards, Galileo seems to be one of the state's better secondary schools."<p><div class="share_submission"> <a class="slashpop" href="http://twitter.com/home?status=Google+Blogger%3A+Vietnamese+HS+Students+Excelling+At+CS%3A+http%3A%2F%2Fbit.ly%2F14okaI8"><img src="http://a.fsdn.com/sd/twitter_icon_large.png" /></a> <a class="slashpop" href="http://www.facebook.com/sharer.php?u=http%3A%2F%2Fdevelopers.slashdot.org%2Fstory%2F13%2F03%2F25%2F0211227%2Fgoogle-blogger-vietnamese-hs-students-excelling-at-cs%3Futm_source%3Dslashdot%26utm_medium%3Dfacebook"><img src="http://a.fsdn.com/sd/facebook_icon_large.png" /></a> <a class="nobg" href="http://plus.google.com/share?url=http://developers.slashdot.org/story/13/03/25/0211227/google-blogger-vietnamese-hs-students-excelling-at-cs?utm_source=slashdot&amp;utm_medium=googleplus"><img alt="Share on Google+" src="http://www.gstatic.com/images/icons/gplus-16.png" /></a> </div></p><p><a href="http://developers.slashdot.org/story/13/03/25/0211227/google-blogger-vietnamese-hs-students-excelling-at-cs?utm_source=rss1.0moreanon&amp;utm_medium=feed">Read more of this story</a> at Slashdot.</p><img border="0" height="1" src="http://slashdot.feedsportal.com/c/35028/f/647410/s/29f24af6/mf.gif" width="1" /><br /><br /><a href="http://da.feedsportal.com/r/161770776798/u/49/f/647410/c/35028/s/29f24af6/a2.htm"><img border="0" src="http://da.feedsportal.com/r/161770776798/u/49/f/647410/c/35028/s/29f24af6/a2.img" /></a><img border="0" height="1" src="http://pi.feedsportal.com/r/161770776798/u/49/f/647410/c/35028/s/29f24af6/a2t.img" width="1" /><img height="1" src="http://feeds.feedburner.com/~r/Slashdot/slashdot/~4/DZDZaBtLASw" width="1" />
p156
sg55
NstRp157
sg11
g12
((I2013
I3
I25
I4
I1
I0
I0
I84
I0
t(dtRp158
sg14
(lp159
g1
(g2
g3
(dp160
g17
Vhttp://rss.slashdot.org/~r/Slashdot/slashdot/~3/DZDZaBtLASw/story01.htm
p161
sg19
g20
sg21
g22
stRp162
asg38
(lp163
g1
(g2
g3
(dp164
g41
Veducation
p165
sg43
Nsg44
NstRp166
asS'slash_department'
p167
Vpho-great-justice
p168
sS'feedburner_origlink'
p169
Vhttp://slashdot.feedsportal.com/c/35028/f/647410/s/29f24af6/l/0Ldevelopers0Bslashdot0Borg0Cstory0C130C0A30C250C0A2112270Cgoogle0Eblogger0Evietnamese0Ehs0Estudents0Eexcelling0Eat0Ecs0Dutm0Isource0Frss10B0Amainlinkanon0Gutm0Imedium0Ffeed/story01.htm
p170
sg7
V2013-03-25T04:01:00Z
p171
sS'slash_section'
p172
Vdevelopers
p173
sg145
(lp174
VSlashdot
p175
aV*
aS'read'
p176
asg70
(lp177
g1
(g2
g3
(dtRp178
asS'author_detail'
p179
g1
(g2
g3
(dp180
g81
Vtimothy
p181
stRp182
sS'slash_hit_parade'
p183
V2,2,1,1,0,0,0
p184
sS'id'
p185
Vhttp://slashdot.feedsportal.com/c/35028/f/647410/s/29f24af6/l/0Ldevelopers0Bslashdot0Borg0Cstory0C130C0A30C250C0A2112270Cgoogle0Eblogger0Evietnamese0Ehs0Estudents0Eexcelling0Eat0Ecs0Dutm0Isource0Frss10B0Amainlinkanon0Gutm0Imedium0Ffeed/story01.htm
p186
sS'slash_comments'
p187
V2
sg92
g12
((I2013
I3
I25
I4
I1
I0
I0
I84
I0
t(dtRp188
sg63
VGoogle Blogger: Vietnamese HS Students Excelling At CS
p189
sg95
g181
sS'summary'
p190
VAn anonymous reader writes "A Google engineer visiting Vietnam discovered a large portion of Vietnamese high school students might be able to pass a Google interview. According to TFA (and his blog), students start learning computing as early as grade 2. According to the blogger and another senior engineer, about half of the students in an 11th grade class he visited would be able to make through their interview process. The blogger also mentioned U.S. school boards blocking computer science education. The link he posted backing up his claim goes to a Maryland Public Schools website describing No Child Left Behind technicalities. According to the link, computer science is not considered a core subject. While the blogger provided no substantial evidence of U.S. school boards blocking computer science education, he claimed that students at Galileo Academy had difficulty with the HTML image tag. According to the school's Wikipedia page, by California standards, Galileo seems to be one of the state's better secondary schools."<p><div class="share_submission"> <a class="slashpop" href="http://twitter.com/home?status=Google+Blogger\u005c%3A+Vietnamese+HS+Students+Excelling+At+CS\u005c%3A+http\u005c%3A\u005c%2F\u005c%2Fbit.ly\u005c%2F14okaI8"><img src="http://a.fsdn.com/sd/twitter_icon_large.png" /></a> <a class="slashpop" href="http://www.facebook.com/sharer.php?u=http\u005c%3A\u005c%2F\u005c%2Fdevelopers.slashdot.org\u005c%2Fstory\u005c%2F13\u005c%2F03\u005c%2F25\u005c%2F0211227\u005c%2Fgoogle-blogger-vietnamese-hs-students-excelling-at-cs\u005c%3Futm_source\u005c%3Dslashdot\u005c%26utm_medium\u005c%3Dfacebook"><img src="http://a.fsdn.com/sd/facebook_icon_large.png" /></a> <a class="nobg" href="http://plus.google.com/share?url=http://developers.slashdot.org/story/13/03/25/0211227/google-blogger-vietnamese-hs-students-excelling-at-cs?utm_source=slashdot&amp;utm_medium=googleplus"><img alt="Share on Google+" src="http://www.gstatic.com/images/icons/gplus-16.png" /></a> </div></p><p><a href="http://developers.slashdot.org/story/13/03/25/0211227/google-blogger-vietnamese-hs-students-excelling-at-cs?utm_source=rss1.0moreanon&amp;utm_medium=feed">Read more of this story</a> at Slashdot.</p><img border="0" height="1" src="http://slashdot.feedsportal.com/c/35028/f/647410/s/29f24af6/mf.gif" width="1" /><br /><br /><a href="http://da.feedsportal.com/r/161770776798/u/49/f/647410/c/35028/s/29f24af6/a2.htm"><img border="0" src="http://da.feedsportal.com/r/161770776798/u/49/f/647410/c/35028/s/29f24af6/a2.img" /></a><img border="0" height="1" src="http://pi.feedsportal.com/r/161770776798/u/49/f/647410/c/35028/s/29f24af6/a2t.img" width="1" /><img height="1" src="http://feeds.feedburner.com/~r/Slashdot/slashdot/~4/DZDZaBtLASw" width="1" />
p191
sS'guidislink'
p192
I00
sS'title_detail'
p193
g1
(g2
g3
(dp194
g50
Vhttp://rss.slashdot.org/slashdot/Slashdot
p195
sg19
g52
sg53
g189
sg55
NstRp196
sg107
VMon, 25 Mar 2013 04:01:00 GMT
p197
sg58
g161
stRp198
ag1
(g2
g3
(dp199
S'summary_detail'
p200
g1
(g2
g3
(dp201
g50
Vhttp://rss.slashdot.org/slashdot/Slashdot
p202
sg19
g100
sg53
Vhackingbear writes "The suspected cyberattack that struck South Korean banks and media companies this week didn't originate from a Chinese IP address, South Korean officials said Friday, contradicting their previous claim. The Korea Communications Commission said that after 'detailed analysis,' the IP address used in the attack is the bank's internal IP address &mdash; which is, coincidentally identical to a Chinese ISP's address, among the 2^32 address space available."<p><div class="share_submission"> <a class="slashpop" href="http://twitter.com/home?status=South+Korea+Backtracks+On+China+As+Source+of+Cyberattack%3A+http%3A%2F%2Fbit.ly%2F10CF9U3"><img src="http://a.fsdn.com/sd/twitter_icon_large.png" /></a> <a class="slashpop" href="http://www.facebook.com/sharer.php?u=http%3A%2F%2Fslashdot.org%2Fstory%2F13%2F03%2F25%2F0059210%2Fsouth-korea-backtracks-on-china-as-source-of-cyberattack%3Futm_source%3Dslashdot%26utm_medium%3Dfacebook"><img src="http://a.fsdn.com/sd/facebook_icon_large.png" /></a> <a class="nobg" href="http://plus.google.com/share?url=http://slashdot.org/story/13/03/25/0059210/south-korea-backtracks-on-china-as-source-of-cyberattack?utm_source=slashdot&amp;utm_medium=googleplus"><img alt="Share on Google+" src="http://www.gstatic.com/images/icons/gplus-16.png" /></a> </div></p><p><a href="http://slashdot.org/story/13/03/25/0059210/south-korea-backtracks-on-china-as-source-of-cyberattack?utm_source=rss1.0moreanon&amp;utm_medium=feed">Read more of this story</a> at Slashdot.</p><img border="0" height="1" src="http://slashdot.feedsportal.com/c/35028/f/647410/s/29f1caa6/mf.gif" width="1" /><br /><br /><a href="http://da.feedsportal.com/r/161770435364/u/49/f/647410/c/35028/s/29f1caa6/a2.htm"><img border="0" src="http://da.feedsportal.com/r/161770435364/u/49/f/647410/c/35028/s/29f1caa6/a2.img" /></a><img border="0" height="1" src="http://pi.feedsportal.com/r/161770435364/u/49/f/647410/c/35028/s/29f1caa6/a2t.img" width="1" /><img height="1" src="http://feeds.feedburner.com/~r/Slashdot/slashdot/~4/x-oOEjZnm-4" width="1" />
p203
sg55
NstRp204
sg11
g12
((I2013
I3
I25
I0
I58
I0
I0
I84
I0
t(dtRp205
sg14
(lp206
g1
(g2
g3
(dp207
g17
Vhttp://rss.slashdot.org/~r/Slashdot/slashdot/~3/x-oOEjZnm-4/story01.htm
p208
sg19
g20
sg21
g22
stRp209
asg38
(lp210
g1
(g2
g3
(dp211
g41
Vchina
p212
sg43
Nsg44
NstRp213
asS'slash_department'
p214
Vcould-have-been-anyone-really
p215
sS'feedburner_origlink'
p216
Vhttp://slashdot.feedsportal.com/c/35028/f/647410/s/29f1caa6/l/0Lslashdot0Borg0Cstory0C130C0A30C250C0A0A59210A0Csouth0Ekorea0Ebacktracks0Eon0Echina0Eas0Esource0Eof0Ecyberattack0Dutm0Isource0Frss10B0Amainlinkanon0Gutm0Imedium0Ffeed/story01.htm
p217
sg7
V2013-03-25T00:58:00Z
p218
sS'slash_section'
p219
Vslashdot
p220
sg58
g208
sg70
(lp221
g1
(g2
g3
(dtRp222
asS'author_detail'
p223
g1
(g2
g3
(dp224
g81
Vtimothy
p225
stRp226
sS'slash_hit_parade'
p227
V0,0,0,0,0,0,0
p228
sg185
Vhttp://slashdot.feedsportal.com/c/35028/f/647410/s/29f1caa6/l/0Lslashdot0Borg0Cstory0C130C0A30C250C0A0A59210A0Csouth0Ekorea0Ebacktracks0Eon0Echina0Eas0Esource0Eof0Ecyberattack0Dutm0Isource0Frss10B0Amainlinkanon0Gutm0Imedium0Ffeed/story01.htm
p229
sg92
g12
((I2013
I3
I25
I0
I58
I0
I0
I84
I0
t(dtRp230
sg63
VSouth Korea Backtracks On China As Source of Cyberattack
p231
sg95
g225
sg190
Vhackingbear writes "The suspected cyberattack that struck South Korean banks and media companies this week didn't originate from a Chinese IP address, South Korean officials said Friday, contradicting their previous claim. The Korea Communications Commission said that after 'detailed analysis,' the IP address used in the attack is the bank's internal IP address &mdash; which is, coincidentally identical to a Chinese ISP's address, among the 2^32 address space available."<p><div class="share_submission"> <a class="slashpop" href="http://twitter.com/home?status=South+Korea+Backtracks+On+China+As+Source+of+Cyberattack\u005c%3A+http\u005c%3A\u005c%2F\u005c%2Fbit.ly\u005c%2F10CF9U3"><img src="http://a.fsdn.com/sd/twitter_icon_large.png" /></a> <a class="slashpop" href="http://www.facebook.com/sharer.php?u=http\u005c%3A\u005c%2F\u005c%2Fslashdot.org\u005c%2Fstory\u005c%2F13\u005c%2F03\u005c%2F25\u005c%2F0059210\u005c%2Fsouth-korea-backtracks-on-china-as-source-of-cyberattack\u005c%3Futm_source\u005c%3Dslashdot\u005c%26utm_medium\u005c%3Dfacebook"><img src="http://a.fsdn.com/sd/facebook_icon_large.png" /></a> <a class="nobg" href="http://plus.google.com/share?url=http://slashdot.org/story/13/03/25/0059210/south-korea-backtracks-on-china-as-source-of-cyberattack?utm_source=slashdot&amp;utm_medium=googleplus"><img alt="Share on Google+" src="http://www.gstatic.com/images/icons/gplus-16.png" /></a> </div></p><p><a href="http://slashdot.org/story/13/03/25/0059210/south-korea-backtracks-on-china-as-source-of-cyberattack?utm_source=rss1.0moreanon&amp;utm_medium=feed">Read more of this story</a> at Slashdot.</p><img border="0" height="1" src="http://slashdot.feedsportal.com/c/35028/f/647410/s/29f1caa6/mf.gif" width="1" /><br /><br /><a href="http://da.feedsportal.com/r/161770435364/u/49/f/647410/c/35028/s/29f1caa6/a2.htm"><img border="0" src="http://da.feedsportal.com/r/161770435364/u/49/f/647410/c/35028/s/29f1caa6/a2.img" /></a><img border="0" height="1" src="http://pi.feedsportal.com/r/161770435364/u/49/f/647410/c/35028/s/29f1caa6/a2t.img" width="1" /><img height="1" src="http://feeds.feedburner.com/~r/Slashdot/slashdot/~4/x-oOEjZnm-4" width="1" />
p232
sg192
I00
sS'title_detail'
p233
g1
(g2
g3
(dp234
g50
Vhttp://rss.slashdot.org/slashdot/Slashdot
p235
sg19
g52
sg53
g231
sg55
NstRp236
sg107
VMon, 25 Mar 2013 00:58:00 GMT
p237
sg145
(lp238
g175
aV*
ag176
astRp239
ag1
(g2
g3
(dp240
S'summary_detail'
p241
g1
(g2
g3
(dp242
g50
Vhttp://rss.slashdot.org/slashdot/Slashdot
p243
sg19
g100
sg53
VAn anonymous reader writes "As expected, a new pre-public version of Windows Blue (build 9364) has leaked online and it reveals a handful of features that are coming in the next big Microsoft Windows 8 update." Several sites have screenshots from the build; Hot Hardware says "Assuming this is all completely legitimate, the most obvious change pertains to the Metro UI, including greater flexibility in sizing Live Tiles and customizing the Start screen, particularly as the Personalize setting (among others, including Devices and Share) is now under the Settings charm. The Name Group feature for the Start menu looks a little more polished, too."<p><div class="share_submission"> <a class="slashpop" href="http://twitter.com/home?status=Windows+Blue+9364+Screenshots+Show+Feature+Enhancements%3A+http%3A%2F%2Fbit.ly%2FZNkoDE"><img src="http://a.fsdn.com/sd/twitter_icon_large.png" /></a> <a class="slashpop" href="http://www.facebook.com/sharer.php?u=http%3A%2F%2Ftech.slashdot.org%2Fstory%2F13%2F03%2F24%2F2330210%2Fwindows-blue-9364-screenshots-show-feature-enhancements%3Futm_source%3Dslashdot%26utm_medium%3Dfacebook"><img src="http://a.fsdn.com/sd/facebook_icon_large.png" /></a> <a class="nobg" href="http://plus.google.com/share?url=http://tech.slashdot.org/story/13/03/24/2330210/windows-blue-9364-screenshots-show-feature-enhancements?utm_source=slashdot&amp;utm_medium=googleplus"><img alt="Share on Google+" src="http://www.gstatic.com/images/icons/gplus-16.png" /></a> </div></p><p><a href="http://tech.slashdot.org/story/13/03/24/2330210/windows-blue-9364-screenshots-show-feature-enhancements?utm_source=rss1.0moreanon&amp;utm_medium=feed">Read more of this story</a> at Slashdot.</p><img border="0" height="1" src="http://slashdot.feedsportal.com/c/35028/f/647410/s/29f11039/mf.gif" width="1" /><br /><br /><a href="http://da.feedsportal.com/r/161770370333/u/49/f/647410/c/35028/s/29f11039/a2.htm"><img border="0" src="http://da.feedsportal.com/r/161770370333/u/49/f/647410/c/35028/s/29f11039/a2.img" /></a><img border="0" height="1" src="http://pi.feedsportal.com/r/161770370333/u/49/f/647410/c/35028/s/29f11039/a2t.img" width="1" /><img height="1" src="http://feeds.feedburner.com/~r/Slashdot/slashdot/~4/LT2DRoW-qPk" width="1" />
p244
sg55
NstRp245
sg11
g12
((I2013
I3
I24
I23
I35
I0
I6
I83
I0
t(dtRp246
sg14
(lp247
g1
(g2
g3
(dp248
g17
Vhttp://rss.slashdot.org/~r/Slashdot/slashdot/~3/LT2DRoW-qPk/story01.htm
p249
sg19
g20
sg21
g22
stRp250
asg38
(lp251
g1
(g2
g3
(dp252
g41
Vmicrosoft
p253
sg43
Nsg44
NstRp254
asS'slash_department'
p255
Vsuspect-most-leaks-are-by-design
p256
sS'feedburner_origlink'
p257
Vhttp://slashdot.feedsportal.com/c/35028/f/647410/s/29f11039/l/0Ltech0Bslashdot0Borg0Cstory0C130C0A30C240C2330A210A0Cwindows0Eblue0E93640Escreenshots0Eshow0Efeature0Eenhancements0Dutm0Isource0Frss10B0Amainlinkanon0Gutm0Imedium0Ffeed/story01.htm
p258
sg7
V2013-03-24T23:35:00Z
p259
sS'slash_section'
p260
Vtechnology
p261
sg145
(lp262
g175
aV*
ag176
asg70
(lp263
g1
(g2
g3
(dtRp264
asS'author_detail'
p265
g1
(g2
g3
(dp266
g81
Vtimothy
p267
stRp268
sS'slash_hit_parade'
p269
V5,5,2,1,0,0,0
p270
sg185
Vhttp://slashdot.feedsportal.com/c/35028/f/647410/s/29f11039/l/0Ltech0Bslashdot0Borg0Cstory0C130C0A30C240C2330A210A0Cwindows0Eblue0E93640Escreenshots0Eshow0Efeature0Eenhancements0Dutm0Isource0Frss10B0Amainlinkanon0Gutm0Imedium0Ffeed/story01.htm
p271
sS'slash_comments'
p272
V5
sg92
g12
((I2013
I3
I24
I23
I35
I0
I6
I83
I0
t(dtRp273
sg63
VWindows Blue 9364 Screenshots Show Feature Enhancements
p274
sg95
g267
sg190
VAn anonymous reader writes "As expected, a new pre-public version of Windows Blue (build 9364) has leaked online and it reveals a handful of features that are coming in the next big Microsoft Windows 8 update." Several sites have screenshots from the build; Hot Hardware says "Assuming this is all completely legitimate, the most obvious change pertains to the Metro UI, including greater flexibility in sizing Live Tiles and customizing the Start screen, particularly as the Personalize setting (among others, including Devices and Share) is now under the Settings charm. The Name Group feature for the Start menu looks a little more polished, too."<p><div class="share_submission"> <a class="slashpop" href="http://twitter.com/home?status=Windows+Blue+9364+Screenshots+Show+Feature+Enhancements\u005c%3A+http\u005c%3A\u005c%2F\u005c%2Fbit.ly\u005c%2FZNkoDE"><img src="http://a.fsdn.com/sd/twitter_icon_large.png" /></a> <a class="slashpop" href="http://www.facebook.com/sharer.php?u=http\u005c%3A\u005c%2F\u005c%2Ftech.slashdot.org\u005c%2Fstory\u005c%2F13\u005c%2F03\u005c%2F24\u005c%2F2330210\u005c%2Fwindows-blue-9364-screenshots-show-feature-enhancements\u005c%3Futm_source\u005c%3Dslashdot\u005c%26utm_medium\u005c%3Dfacebook"><img src="http://a.fsdn.com/sd/facebook_icon_large.png" /></a> <a class="nobg" href="http://plus.google.com/share?url=http://tech.slashdot.org/story/13/03/24/2330210/windows-blue-9364-screenshots-show-feature-enhancements?utm_source=slashdot&amp;utm_medium=googleplus"><img alt="Share on Google+" src="http://www.gstatic.com/images/icons/gplus-16.png" /></a> </div></p><p><a href="http://tech.slashdot.org/story/13/03/24/2330210/windows-blue-9364-screenshots-show-feature-enhancements?utm_source=rss1.0moreanon&amp;utm_medium=feed">Read more of this story</a> at Slashdot.</p><img border="0" height="1" src="http://slashdot.feedsportal.com/c/35028/f/647410/s/29f11039/mf.gif" width="1" /><br /><br /><a href="http://da.feedsportal.com/r/161770370333/u/49/f/647410/c/35028/s/29f11039/a2.htm"><img border="0" src="http://da.feedsportal.com/r/161770370333/u/49/f/647410/c/35028/s/29f11039/a2.img" /></a><img border="0" height="1" src="http://pi.feedsportal.com/r/161770370333/u/49/f/647410/c/35028/s/29f11039/a2t.img" width="1" /><img height="1" src="http://feeds.feedburner.com/~r/Slashdot/slashdot/~4/LT2DRoW-qPk" width="1" />
p275
sg192
I00
sS'title_detail'
p276
g1
(g2
g3
(dp277
g50
Vhttp://rss.slashdot.org/slashdot/Slashdot
p278
sg19
g52
sg53
g274
sg55
NstRp279
sg107
VSun, 24 Mar 2013 23:35:00 GMT
p280
sg58
g249
stRp281
ag1
(g2
g3
(dp282
S'summary_detail'
p283
g1
(g2
g3
(dp284
g50
Vhttp://rss.slashdot.org/slashdot/Slashdot
p285
sg19
g100
sg53
VNew submitter F9rDT3ZE writes "Salon writer Andrew Leonard examines the U.S. Treasury's Financial Crimes Enforcement Network's (FinCEN) first 'guidance' regarding 'de-centralized virtual currencies,' noting that Bitcoin's supporters call it a 'currency of resistance,' while others suggest that 'the more popular Bitcoin gets, whether as a symbol of resistance or a perceived safe haven in financially troubled times, the more government attention it will inevitably draw, and the more inexorably it will be sucked into existing regulatory structures.'"<p><div class="share_submission"> <a class="slashpop" href="http://twitter.com/home?status=Will+Legitimacy+Spoil+Bitcoin%3F%3A+http%3A%2F%2Fbit.ly%2FZN65iz"><img src="http://a.fsdn.com/sd/twitter_icon_large.png" /></a> <a class="slashpop" href="http://www.facebook.com/sharer.php?u=http%3A%2F%2Fpolitics.slashdot.org%2Fstory%2F13%2F03%2F24%2F219252%2Fwill-legitimacy-spoil-bitcoin%3Futm_source%3Dslashdot%26utm_medium%3Dfacebook"><img src="http://a.fsdn.com/sd/facebook_icon_large.png" /></a> <a class="nobg" href="http://plus.google.com/share?url=http://politics.slashdot.org/story/13/03/24/219252/will-legitimacy-spoil-bitcoin?utm_source=slashdot&amp;utm_medium=googleplus"><img alt="Share on Google+" src="http://www.gstatic.com/images/icons/gplus-16.png" /></a> </div></p><p><a href="http://politics.slashdot.org/story/13/03/24/219252/will-legitimacy-spoil-bitcoin?utm_source=rss1.0moreanon&amp;utm_medium=feed">Read more of this story</a> at Slashdot.</p><img border="0" height="1" src="http://slashdot.feedsportal.com/c/35028/f/647410/s/29f10828/mf.gif" width="1" /><br /><br /><a href="http://da.feedsportal.com/r/161770369374/u/49/f/647410/c/35028/s/29f10828/a2.htm"><img border="0" src="http://da.feedsportal.com/r/161770369374/u/49/f/647410/c/35028/s/29f10828/a2.img" /></a><img border="0" height="1" src="http://pi.feedsportal.com/r/161770369374/u/49/f/647410/c/35028/s/29f10828/a2t.img" width="1" /><img height="1" src="http://feeds.feedburner.com/~r/Slashdot/slashdot/~4/3y9aeLCWBSw" width="1" />
p286
sg55
NstRp287
sg11
g12
((I2013
I3
I24
I22
I37
I0
I6
I83
I0
t(dtRp288
sg14
(lp289
g1
(g2
g3
(dp290
g17
Vhttp://rss.slashdot.org/~r/Slashdot/slashdot/~3/3y9aeLCWBSw/story01.htm
p291
sg19
g20
sg21
g22
stRp292
asg38
(lp293
g1
(g2
g3
(dp294
g41
Vbitcoin
p295
sg43
Nsg44
NstRp296
asS'slash_department'
p297
Vbiggest-portion-is-the-lion's-share
p298
sS'feedburner_origlink'
p299
Vhttp://slashdot.feedsportal.com/c/35028/f/647410/s/29f10828/l/0Lpolitics0Bslashdot0Borg0Cstory0C130C0A30C240C2192520Cwill0Elegitimacy0Espoil0Ebitcoin0Dutm0Isource0Frss10B0Amainlinkanon0Gutm0Imedium0Ffeed/story01.htm
p300
sg7
V2013-03-24T22:37:00Z
p301
sS'slash_section'
p302
Vpolitics
p303
sg145
(lp304
g175
aV*
ag176
asg70
(lp305
g1
(g2
g3
(dtRp306
asS'author_detail'
p307
g1
(g2
g3
(dp308
g81
Vtimothy
p309
stRp310
sS'slash_hit_parade'
p311
V3,3,1,1,0,0,0
p312
sg185
Vhttp://slashdot.feedsportal.com/c/35028/f/647410/s/29f10828/l/0Lpolitics0Bslashdot0Borg0Cstory0C130C0A30C240C2192520Cwill0Elegitimacy0Espoil0Ebitcoin0Dutm0Isource0Frss10B0Amainlinkanon0Gutm0Imedium0Ffeed/story01.htm
p313
sS'slash_comments'
p314
V3
sg92
g12
((I2013
I3
I24
I22
I37
I0
I6
I83
I0
t(dtRp315
sg63
VWill Legitimacy Spoil Bitcoin?
p316
sg95
g309
sg190
VNew submitter F9rDT3ZE writes "Salon writer Andrew Leonard examines the U.S. Treasury's Financial Crimes Enforcement Network's (FinCEN) first 'guidance' regarding 'de-centralized virtual currencies,' noting that Bitcoin's supporters call it a 'currency of resistance,' while others suggest that 'the more popular Bitcoin gets, whether as a symbol of resistance or a perceived safe haven in financially troubled times, the more government attention it will inevitably draw, and the more inexorably it will be sucked into existing regulatory structures.'"<p><div class="share_submission"> <a class="slashpop" href="http://twitter.com/home?status=Will+Legitimacy+Spoil+Bitcoin\u005c%3F\u005c%3A+http\u005c%3A\u005c%2F\u005c%2Fbit.ly\u005c%2FZN65iz"><img src="http://a.fsdn.com/sd/twitter_icon_large.png" /></a> <a class="slashpop" href="http://www.facebook.com/sharer.php?u=http\u005c%3A\u005c%2F\u005c%2Fpolitics.slashdot.org\u005c%2Fstory\u005c%2F13\u005c%2F03\u005c%2F24\u005c%2F219252\u005c%2Fwill-legitimacy-spoil-bitcoin\u005c%3Futm_source\u005c%3Dslashdot\u005c%26utm_medium\u005c%3Dfacebook"><img src="http://a.fsdn.com/sd/facebook_icon_large.png" /></a> <a class="nobg" href="http://plus.google.com/share?url=http://politics.slashdot.org/story/13/03/24/219252/will-legitimacy-spoil-bitcoin?utm_source=slashdot&amp;utm_medium=googleplus"><img alt="Share on Google+" src="http://www.gstatic.com/images/icons/gplus-16.png" /></a> </div></p><p><a href="http://politics.slashdot.org/story/13/03/24/219252/will-legitimacy-spoil-bitcoin?utm_source=rss1.0moreanon&amp;utm_medium=feed">Read more of this story</a> at Slashdot.</p><img border="0" height="1" src="http://slashdot.feedsportal.com/c/35028/f/647410/s/29f10828/mf.gif" width="1" /><br /><br /><a href="http://da.feedsportal.com/r/161770369374/u/49/f/647410/c/35028/s/29f10828/a2.htm"><img border="0" src="http://da.feedsportal.com/r/161770369374/u/49/f/647410/c/35028/s/29f10828/a2.img" /></a><img border="0" height="1" src="http://pi.feedsportal.com/r/161770369374/u/49/f/647410/c/35028/s/29f10828/a2t.img" width="1" /><img height="1" src="http://feeds.feedburner.com/~r/Slashdot/slashdot/~4/3y9aeLCWBSw" width="1" />
p317
sg192
I00
sS'title_detail'
p318
g1
(g2
g3
(dp319
g50
Vhttp://rss.slashdot.org/slashdot/Slashdot
p320
sg19
g52
sg53
g316
sg55
NstRp321
sg107
VSun, 24 Mar 2013 22:37:00 GMT
p322
sg58
g291
stRp323
ag1
(g2
g3
(dp324
S'summary_detail'
p325
g1
(g2
g3
(dp326
g50
Vhttp://rss.slashdot.org/slashdot/Slashdot
p327
sg19
g100
sg53
Vjrepin writes "On day two of the 2013 Embedded Linux Conference, Robert Rose of SpaceX spoke about the "Lessons Learned Developing Software for Space Vehicles". In his talk, he discussed how SpaceX develops its Linux-based software for a wide variety of tasks needed to put spacecraft into orbit&mdash;and eventually beyond. Linux runs everywhere at SpaceX, he said, on everything from desktops to spacecraft."<p><div class="share_submission"> <a class="slashpop" href="http://twitter.com/home?status=SpaceX%3A+Lessons+Learned+Developing+Software+For+Space+Vehicles%3A+http%3A%2F%2Fbit.ly%2FZlIyBR"><img src="http://a.fsdn.com/sd/twitter_icon_large.png" /></a> <a class="slashpop" href="http://www.facebook.com/sharer.php?u=http%3A%2F%2Flinux.slashdot.org%2Fstory%2F13%2F03%2F24%2F2050221%2Fspacex-lessons-learned-developing-software-for-space-vehicles%3Futm_source%3Dslashdot%26utm_medium%3Dfacebook"><img src="http://a.fsdn.com/sd/facebook_icon_large.png" /></a> <a class="nobg" href="http://plus.google.com/share?url=http://linux.slashdot.org/story/13/03/24/2050221/spacex-lessons-learned-developing-software-for-space-vehicles?utm_source=slashdot&amp;utm_medium=googleplus"><img alt="Share on Google+" src="http://www.gstatic.com/images/icons/gplus-16.png" /></a> </div></p><p><a href="http://linux.slashdot.org/story/13/03/24/2050221/spacex-lessons-learned-developing-software-for-space-vehicles?utm_source=rss1.0moreanon&amp;utm_medium=feed">Read more of this story</a> at Slashdot.</p><img border="0" height="1" src="http://slashdot.feedsportal.com/c/35028/f/647410/s/29f05097/mf.gif" width="1" /><br /><br /><a href="http://da.feedsportal.com/r/161770368552/u/49/f/647410/c/35028/s/29f05097/a2.htm"><img border="0" src="http://da.feedsportal.com/r/161770368552/u/49/f/647410/c/35028/s/29f05097/a2.img" /></a><img border="0" height="1" src="http://pi.feedsportal.com/r/161770368552/u/49/f/647410/c/35028/s/29f05097/a2t.img" width="1" /><img height="1" src="http://feeds.feedburner.com/~r/Slashdot/slashdot/~4/n1kfUQBeGmU" width="1" />
p328
sg55
NstRp329
sg11
g12
((I2013
I3
I24
I21
I38
I0
I6
I83
I0
t(dtRp330
sg14
(lp331
g1
(g2
g3
(dp332
g17
Vhttp://rss.slashdot.org/~r/Slashdot/slashdot/~3/n1kfUQBeGmU/story01.htm
p333
sg19
g20
sg21
g22
stRp334
asg38
(lp335
g1
(g2
g3
(dp336
g41
Vprogramming
p337
sg43
Nsg44
NstRp338
asS'slash_department'
p339
Vno-one-can-hear-you-bleep-in-space
p340
sS'feedburner_origlink'
p341
Vhttp://slashdot.feedsportal.com/c/35028/f/647410/s/29f05097/l/0Llinux0Bslashdot0Borg0Cstory0C130C0A30C240C20A50A2210Cspacex0Elessons0Elearned0Edeveloping0Esoftware0Efor0Espace0Evehicles0Dutm0Isource0Frss10B0Amainlinkanon0Gutm0Imedium0Ffeed/story01.htm
p342
sg7
V2013-03-24T21:38:00Z
p343
sS'slash_section'
p344
Vlinux
p345
sg58
g333
sg70
(lp346
g1
(g2
g3
(dtRp347
asS'author_detail'
p348
g1
(g2
g3
(dp349
g81
Vtimothy
p350
stRp351
sS'slash_hit_parade'
p352
V0,0,0,0,0,0,0
p353
sg185
Vhttp://slashdot.feedsportal.com/c/35028/f/647410/s/29f05097/l/0Llinux0Bslashdot0Borg0Cstory0C130C0A30C240C20A50A2210Cspacex0Elessons0Elearned0Edeveloping0Esoftware0Efor0Espace0Evehicles0Dutm0Isource0Frss10B0Amainlinkanon0Gutm0Imedium0Ffeed/story01.htm
p354
sg92
g12
((I2013
I3
I24
I21
I38
I0
I6
I83
I0
t(dtRp355
sg63
VSpaceX: Lessons Learned Developing Software For Space Vehicles
p356
sg95
g350
sg190
Vjrepin writes "On day two of the 2013 Embedded Linux Conference, Robert Rose of SpaceX spoke about the "Lessons Learned Developing Software for Space Vehicles". In his talk, he discussed how SpaceX develops its Linux-based software for a wide variety of tasks needed to put spacecraft into orbit&mdash;and eventually beyond. Linux runs everywhere at SpaceX, he said, on everything from desktops to spacecraft."<p><div class="share_submission"> <a class="slashpop" href="http://twitter.com/home?status=SpaceX\u005c%3A+Lessons+Learned+Developing+Software+For+Space+Vehicles\u005c%3A+http\u005c%3A\u005c%2F\u005c%2Fbit.ly\u005c%2FZlIyBR"><img src="http://a.fsdn.com/sd/twitter_icon_large.png" /></a> <a class="slashpop" href="http://www.facebook.com/sharer.php?u=http\u005c%3A\u005c%2F\u005c%2Flinux.slashdot.org\u005c%2Fstory\u005c%2F13\u005c%2F03\u005c%2F24\u005c%2F2050221\u005c%2Fspacex-lessons-learned-developing-software-for-space-vehicles\u005c%3Futm_source\u005c%3Dslashdot\u005c%26utm_medium\u005c%3Dfacebook"><img src="http://a.fsdn.com/sd/facebook_icon_large.png" /></a> <a class="nobg" href="http://plus.google.com/share?url=http://linux.slashdot.org/story/13/03/24/2050221/spacex-lessons-learned-developing-software-for-space-vehicles?utm_source=slashdot&amp;utm_medium=googleplus"><img alt="Share on Google+" src="http://www.gstatic.com/images/icons/gplus-16.png" /></a> </div></p><p><a href="http://linux.slashdot.org/story/13/03/24/2050221/spacex-lessons-learned-developing-software-for-space-vehicles?utm_source=rss1.0moreanon&amp;utm_medium=feed">Read more of this story</a> at Slashdot.</p><img border="0" height="1" src="http://slashdot.feedsportal.com/c/35028/f/647410/s/29f05097/mf.gif" width="1" /><br /><br /><a href="http://da.feedsportal.com/r/161770368552/u/49/f/647410/c/35028/s/29f05097/a2.htm"><img border="0" src="http://da.feedsportal.com/r/161770368552/u/49/f/647410/c/35028/s/29f05097/a2.img" /></a><img border="0" height="1" src="http://pi.feedsportal.com/r/161770368552/u/49/f/647410/c/35028/s/29f05097/a2t.img" width="1" /><img height="1" src="http://feeds.feedburner.com/~r/Slashdot/slashdot/~4/n1kfUQBeGmU" width="1" />
p357
sg192
I00
sS'title_detail'
p358
g1
(g2
g3
(dp359
g50
Vhttp://rss.slashdot.org/slashdot/Slashdot
p360
sg19
g52
sg53
g356
sg55
NstRp361
sg107
VSun, 24 Mar 2013 21:38:00 GMT
p362
sg145
(lp363
g175
aV*
ag176
astRp364
ag1
(g2
g3
(dp365
S'summary_detail'
p366
g1
(g2
g3
(dp367
g50
Vhttp://rss.slashdot.org/slashdot/Slashdot
p368
sg19
g100
sg53
VAn anonymous reader writes "Archos have finally released their much anticipated touchscreen gamepad in the USA. The console boasts a Arm Cortex Dual-core A9 1.6GHz cpu, 1024MB Ram, 8GB internal storage and uses the Android 4.1 Jelly Bean OS. The Gamepad has 14 physical buttons and dual analog thumb-sticks as well as a touchscreen which means the latest 3D Android games should work great and for fans of emulation the traditional gamepad design and buttons will make N64/PS1 emulators work great on the gamepad." CNET UK was unimpressed, calling it "a bitter disappointment"; IGN was more optimistic, especially at its sub-$200 price.<p><div class="share_submission"> <a class="slashpop" href="http://twitter.com/home?status=Archos+Gamepad+Released+In+the+USA%3A+http%3A%2F%2Fbit.ly%2F11Afcaq"><img src="http://a.fsdn.com/sd/twitter_icon_large.png" /></a> <a class="slashpop" href="http://www.facebook.com/sharer.php?u=http%3A%2F%2Fhardware.slashdot.org%2Fstory%2F13%2F03%2F24%2F2025228%2Farchos-gamepad-released-in-the-usa%3Futm_source%3Dslashdot%26utm_medium%3Dfacebook"><img src="http://a.fsdn.com/sd/facebook_icon_large.png" /></a> <a class="nobg" href="http://plus.google.com/share?url=http://hardware.slashdot.org/story/13/03/24/2025228/archos-gamepad-released-in-the-usa?utm_source=slashdot&amp;utm_medium=googleplus"><img alt="Share on Google+" src="http://www.gstatic.com/images/icons/gplus-16.png" /></a> </div></p><p><a href="http://hardware.slashdot.org/story/13/03/24/2025228/archos-gamepad-released-in-the-usa?utm_source=rss1.0moreanon&amp;utm_medium=feed">Read more of this story</a> at Slashdot.</p><img border="0" height="1" src="http://slashdot.feedsportal.com/c/35028/f/647410/s/29f05ca6/mf.gif" width="1" /><br /><br /><a href="http://da.feedsportal.com/r/161770431553/u/49/f/647410/c/35028/s/29f05ca6/a2.htm"><img border="0" src="http://da.feedsportal.com/r/161770431553/u/49/f/647410/c/35028/s/29f05ca6/a2.img" /></a><img border="0" height="1" src="http://pi.feedsportal.com/r/161770431553/u/49/f/647410/c/35028/s/29f05ca6/a2t.img" width="1" /><img height="1" src="http://feeds.feedburner.com/~r/Slashdot/slashdot/~4/VwoUjopGBoU" width="1" />
p369
sg55
NstRp370
sg11
g12
((I2013
I3
I24
I20
I48
I0
I6
I83
I0
t(dtRp371
sg14
(lp372
g1
(g2
g3
(dp373
g17
Vhttp://rss.slashdot.org/~r/Slashdot/slashdot/~3/VwoUjopGBoU/story01.htm
p374
sg19
g20
sg21
g22
stRp375
asg38
(lp376
g1
(g2
g3
(dp377
g41
Vandroid
p378
sg43
Nsg44
NstRp379
asS'slash_department'
p380
Vtake-it-or-leave-it-or-use-it-as-a-shovel
p381
sS'feedburner_origlink'
p382
Vhttp://slashdot.feedsportal.com/c/35028/f/647410/s/29f05ca6/l/0Lhardware0Bslashdot0Borg0Cstory0C130C0A30C240C20A252280Carchos0Egamepad0Ereleased0Ein0Ethe0Eusa0Dutm0Isource0Frss10B0Amainlinkanon0Gutm0Imedium0Ffeed/story01.htm
p383
sg7
V2013-03-24T20:48:00Z
p384
sS'slash_section'
p385
Vhardware
p386
sg58
g374
sg70
(lp387
g1
(g2
g3
(dtRp388
asS'author_detail'
p389
g1
(g2
g3
(dp390
g81
Vtimothy
p391
stRp392
sS'slash_hit_parade'
p393
V0,0,0,0,0,0,0
p394
sg185
Vhttp://slashdot.feedsportal.com/c/35028/f/647410/s/29f05ca6/l/0Lhardware0Bslashdot0Borg0Cstory0C130C0A30C240C20A252280Carchos0Egamepad0Ereleased0Ein0Ethe0Eusa0Dutm0Isource0Frss10B0Amainlinkanon0Gutm0Imedium0Ffeed/story01.htm
p395
sg92
g12
((I2013
I3
I24
I20
I48
I0
I6
I83
I0
t(dtRp396
sg63
VArchos Gamepad Released In the USA
p397
sg95
g391
sg190
VAn anonymous reader writes "Archos have finally released their much anticipated touchscreen gamepad in the USA. The console boasts a Arm Cortex Dual-core A9 1.6GHz cpu, 1024MB Ram, 8GB internal storage and uses the Android 4.1 Jelly Bean OS. The Gamepad has 14 physical buttons and dual analog thumb-sticks as well as a touchscreen which means the latest 3D Android games should work great and for fans of emulation the traditional gamepad design and buttons will make N64/PS1 emulators work great on the gamepad." CNET UK was unimpressed, calling it "a bitter disappointment"; IGN was more optimistic, especially at its sub-$200 price.<p><div class="share_submission"> <a class="slashpop" href="http://twitter.com/home?status=Archos+Gamepad+Released+In+the+USA\u005c%3A+http\u005c%3A\u005c%2F\u005c%2Fbit.ly\u005c%2F11Afcaq"><img src="http://a.fsdn.com/sd/twitter_icon_large.png" /></a> <a class="slashpop" href="http://www.facebook.com/sharer.php?u=http\u005c%3A\u005c%2F\u005c%2Fhardware.slashdot.org\u005c%2Fstory\u005c%2F13\u005c%2F03\u005c%2F24\u005c%2F2025228\u005c%2Farchos-gamepad-released-in-the-usa\u005c%3Futm_source\u005c%3Dslashdot\u005c%26utm_medium\u005c%3Dfacebook"><img src="http://a.fsdn.com/sd/facebook_icon_large.png" /></a> <a class="nobg" href="http://plus.google.com/share?url=http://hardware.slashdot.org/story/13/03/24/2025228/archos-gamepad-released-in-the-usa?utm_source=slashdot&amp;utm_medium=googleplus"><img alt="Share on Google+" src="http://www.gstatic.com/images/icons/gplus-16.png" /></a> </div></p><p><a href="http://hardware.slashdot.org/story/13/03/24/2025228/archos-gamepad-released-in-the-usa?utm_source=rss1.0moreanon&amp;utm_medium=feed">Read more of this story</a> at Slashdot.</p><img border="0" height="1" src="http://slashdot.feedsportal.com/c/35028/f/647410/s/29f05ca6/mf.gif" width="1" /><br /><br /><a href="http://da.feedsportal.com/r/161770431553/u/49/f/647410/c/35028/s/29f05ca6/a2.htm"><img border="0" src="http://da.feedsportal.com/r/161770431553/u/49/f/647410/c/35028/s/29f05ca6/a2.img" /></a><img border="0" height="1" src="http://pi.feedsportal.com/r/161770431553/u/49/f/647410/c/35028/s/29f05ca6/a2t.img" width="1" /><img height="1" src="http://feeds.feedburner.com/~r/Slashdot/slashdot/~4/VwoUjopGBoU" width="1" />
p398
sg192
I00
sS'title_detail'
p399
g1
(g2
g3
(dp400
g50
Vhttp://rss.slashdot.org/slashdot/Slashdot
p401
sg19
g52
sg53
g397
sg55
NstRp402
sg107
VSun, 24 Mar 2013 20:48:00 GMT
p403
sg145
(lp404
g175
aV*
ag176
astRp405
ag1
(g2
g3
(dp406
S'summary_detail'
p407
g1
(g2
g3
(dp408
g50
Vhttp://rss.slashdot.org/slashdot/Slashdot
p409
sg19
g100
sg53
Vhypnosec writes "UEFI guru Matthew Garrett, who cleared the Linux kernel in Samsung laptop bricking issues, has come to rescue beleaguered users by offering a survival guide enabling them to avoid similar issues. According to Garrett, storage space constraints in UEFI storage variables is the reason Samsung laptops end up bricking themselves. Garrett said that if the storage space utilized by the UEFI firmware is more than 50 percent full, the laptop will refuse to start and ends up being bricked. To prevent this from happening, he has provided a Kernel patch."<p><div class="share_submission"> <a class="slashpop" href="http://twitter.com/home?status=Matthew+Garrett+Has+a+Fix+To+Prevent+Bricked+UEFI+Linux+Laptops%3A+http%3A%2F%2Fbit.ly%2F11zeYMW"><img src="http://a.fsdn.com/sd/twitter_icon_large.png" /></a> <a class="slashpop" href="http://www.facebook.com/sharer.php?u=http%3A%2F%2Flinux.slashdot.org%2Fstory%2F13%2F03%2F24%2F1952200%2Fmatthew-garrett-has-a-fix-to-prevent-bricked-uefi-linux-laptops%3Futm_source%3Dslashdot%26utm_medium%3Dfacebook"><img src="http://a.fsdn.com/sd/facebook_icon_large.png" /></a> <a class="nobg" href="http://plus.google.com/share?url=http://linux.slashdot.org/story/13/03/24/1952200/matthew-garrett-has-a-fix-to-prevent-bricked-uefi-linux-laptops?utm_source=slashdot&amp;utm_medium=googleplus"><img alt="Share on Google+" src="http://www.gstatic.com/images/icons/gplus-16.png" /></a> </div></p><p><a href="http://linux.slashdot.org/story/13/03/24/1952200/matthew-garrett-has-a-fix-to-prevent-bricked-uefi-linux-laptops?utm_source=rss1.0moreanon&amp;utm_medium=feed">Read more of this story</a> at Slashdot.</p><img border="0" height="1" src="http://slashdot.feedsportal.com/c/35028/f/647410/s/29ef6c32/mf.gif" width="1" /><br /><br /><a href="http://da.feedsportal.com/r/161393758428/u/49/f/647410/c/35028/s/29ef6c32/a2.htm"><img border="0" src="http://da.feedsportal.com/r/161393758428/u/49/f/647410/c/35028/s/29ef6c32/a2.img" /></a><img border="0" height="1" src="http://pi.feedsportal.com/r/161393758428/u/49/f/647410/c/35028/s/29ef6c32/a2t.img" width="1" /><img height="1" src="http://feeds.feedburner.com/~r/Slashdot/slashdot/~4/R2zAuNQWbnQ" width="1" />
p410
sg55
NstRp411
sg11
g12
((I2013
I3
I24
I19
I52
I0
I6
I83
I0
t(dtRp412
sg14
(lp413
g1
(g2
g3
(dp414
g17
Vhttp://rss.slashdot.org/~r/Slashdot/slashdot/~3/R2zAuNQWbnQ/story01.htm
p415
sg19
g20
sg21
g22
stRp416
asg38
(lp417
g1
(g2
g3
(dp418
g41
Vbug
p419
sg43
Nsg44
NstRp420
asS'slash_department'
p421
Vand-it-can-be-yours-for-free
p422
sS'feedburner_origlink'
p423
Vhttp://slashdot.feedsportal.com/c/35028/f/647410/s/29ef6c32/l/0Llinux0Bslashdot0Borg0Cstory0C130C0A30C240C195220A0A0Cmatthew0Egarrett0Ehas0Ea0Efix0Eto0Eprevent0Ebricked0Euefi0Elinux0Elaptops0Dutm0Isource0Frss10B0Amainlinkanon0Gutm0Imedium0Ffeed/story01.htm
p424
sg7
V2013-03-24T19:52:00Z
p425
sS'slash_section'
p426
Vlinux
p427
sg145
(lp428
g175
aV*
ag176
asg70
(lp429
g1
(g2
g3
(dtRp430
asS'author_detail'
p431
g1
(g2
g3
(dp432
g81
Vtimothy
p433
stRp434
sS'slash_hit_parade'
p435
V2,2,1,1,0,0,0
p436
sg185
Vhttp://slashdot.feedsportal.com/c/35028/f/647410/s/29ef6c32/l/0Llinux0Bslashdot0Borg0Cstory0C130C0A30C240C195220A0A0Cmatthew0Egarrett0Ehas0Ea0Efix0Eto0Eprevent0Ebricked0Euefi0Elinux0Elaptops0Dutm0Isource0Frss10B0Amainlinkanon0Gutm0Imedium0Ffeed/story01.htm
p437
sS'slash_comments'
p438
V2
sg92
g12
((I2013
I3
I24
I19
I52
I0
I6
I83
I0
t(dtRp439
sg63
VMatthew Garrett Has a Fix To Prevent Bricked UEFI Linux Laptops
p440
sg95
g433
sg190
Vhypnosec writes "UEFI guru Matthew Garrett, who cleared the Linux kernel in Samsung laptop bricking issues, has come to rescue beleaguered users by offering a survival guide enabling them to avoid similar issues. According to Garrett, storage space constraints in UEFI storage variables is the reason Samsung laptops end up bricking themselves. Garrett said that if the storage space utilized by the UEFI firmware is more than 50 percent full, the laptop will refuse to start and ends up being bricked. To prevent this from happening, he has provided a Kernel patch."<p><div class="share_submission"> <a class="slashpop" href="http://twitter.com/home?status=Matthew+Garrett+Has+a+Fix+To+Prevent+Bricked+UEFI+Linux+Laptops\u005c%3A+http\u005c%3A\u005c%2F\u005c%2Fbit.ly\u005c%2F11zeYMW"><img src="http://a.fsdn.com/sd/twitter_icon_large.png" /></a> <a class="slashpop" href="http://www.facebook.com/sharer.php?u=http\u005c%3A\u005c%2F\u005c%2Flinux.slashdot.org\u005c%2Fstory\u005c%2F13\u005c%2F03\u005c%2F24\u005c%2F1952200\u005c%2Fmatthew-garrett-has-a-fix-to-prevent-bricked-uefi-linux-laptops\u005c%3Futm_source\u005c%3Dslashdot\u005c%26utm_medium\u005c%3Dfacebook"><img src="http://a.fsdn.com/sd/facebook_icon_large.png" /></a> <a class="nobg" href="http://plus.google.com/share?url=http://linux.slashdot.org/story/13/03/24/1952200/matthew-garrett-has-a-fix-to-prevent-bricked-uefi-linux-laptops?utm_source=slashdot&amp;utm_medium=googleplus"><img alt="Share on Google+" src="http://www.gstatic.com/images/icons/gplus-16.png" /></a> </div></p><p><a href="http://linux.slashdot.org/story/13/03/24/1952200/matthew-garrett-has-a-fix-to-prevent-bricked-uefi-linux-laptops?utm_source=rss1.0moreanon&amp;utm_medium=feed">Read more of this story</a> at Slashdot.</p><img border="0" height="1" src="http://slashdot.feedsportal.com/c/35028/f/647410/s/29ef6c32/mf.gif" width="1" /><br /><br /><a href="http://da.feedsportal.com/r/161393758428/u/49/f/647410/c/35028/s/29ef6c32/a2.htm"><img border="0" src="http://da.feedsportal.com/r/161393758428/u/49/f/647410/c/35028/s/29ef6c32/a2.img" /></a><img border="0" height="1" src="http://pi.feedsportal.com/r/161393758428/u/49/f/647410/c/35028/s/29ef6c32/a2t.img" width="1" /><img height="1" src="http://feeds.feedburner.com/~r/Slashdot/slashdot/~4/R2zAuNQWbnQ" width="1" />
p441
sg192
I00
sS'title_detail'
p442
g1
(g2
g3
(dp443
g50
Vhttp://rss.slashdot.org/slashdot/Slashdot
p444
sg19
g52
sg53
g440
sg55
NstRp445
sg107
VSun, 24 Mar 2013 19:52:00 GMT
p446
sg58
g415
stRp447
ag1
(g2
g3
(dp448
S'summary_detail'
p449
g1
(g2
g3
(dp450
g50
Vhttp://rss.slashdot.org/slashdot/Slashdot
p451
sg19
g100
sg53
VAn anonymous reader writes "Last week, in a blow to the content industry, the Ninth Circuit granted Veoh a pyrrhic victory against Universal Music Group and clarified the scope of the Digital Millennium Copyright Act's safe harbor provisions for online service providers. By adopting a position taken by the Second Circuit in Viacom v. YouTube, the decision harmonized the law in two intellectually influential jurisdictions and set the standard in New York and California, national hubs for content creation and technological innovation. Going forward, tech startups will have more room to innovate while facing decreased risk of crippling financial liability. An article by two IP lawyers published today in TechCrunch simplifies and explains the scope of safe harbor protection in light of these rulings.<p><div class="share_submission"> <a class="slashpop" href="http://twitter.com/home?status=TechCrunch%3AExpanded+DMCA+Still+Has+Limits%3A+http%3A%2F%2Fbit.ly%2FZlxNQ2"><img src="http://a.fsdn.com/sd/twitter_icon_large.png" /></a> <a class="slashpop" href="http://www.facebook.com/sharer.php?u=http%3A%2F%2Fyro.slashdot.org%2Fstory%2F13%2F03%2F24%2F1846207%2Ftechcrunchexpanded-dmca-still-has-limits%3Futm_source%3Dslashdot%26utm_medium%3Dfacebook"><img src="http://a.fsdn.com/sd/facebook_icon_large.png" /></a> <a class="nobg" href="http://plus.google.com/share?url=http://yro.slashdot.org/story/13/03/24/1846207/techcrunchexpanded-dmca-still-has-limits?utm_source=slashdot&amp;utm_medium=googleplus"><img alt="Share on Google+" src="http://www.gstatic.com/images/icons/gplus-16.png" /></a> </div></p><p><a href="http://yro.slashdot.org/story/13/03/24/1846207/techcrunchexpanded-dmca-still-has-limits?utm_source=rss1.0moreanon&amp;utm_medium=feed">Read more of this story</a> at Slashdot.</p><img border="0" height="1" src="http://slashdot.feedsportal.com/c/35028/f/647410/s/29ef4f8f/mf.gif" width="1" /><br /><br /><a href="http://da.feedsportal.com/r/161393945618/u/49/f/647410/c/35028/s/29ef4f8f/a2.htm"><img border="0" src="http://da.feedsportal.com/r/161393945618/u/49/f/647410/c/35028/s/29ef4f8f/a2.img" /></a><img border="0" height="1" src="http://pi.feedsportal.com/r/161393945618/u/49/f/647410/c/35028/s/29ef4f8f/a2t.img" width="1" /><img height="1" src="http://feeds.feedburner.com/~r/Slashdot/slashdot/~4/Tc71COWfQVc" width="1" />
p452
sg55
NstRp453
sg11
g12
((I2013
I3
I24
I18
I48
I0
I6
I83
I0
t(dtRp454
sg14
(lp455
g1
(g2
g3
(dp456
g17
Vhttp://rss.slashdot.org/~r/Slashdot/slashdot/~3/Tc71COWfQVc/story01.htm
p457
sg19
g20
sg21
g22
stRp458
asg38
(lp459
g1
(g2
g3
(dp460
g41
Vgoogle
p461
sg43
Nsg44
NstRp462
asS'slash_department'
p463
Vthat-which-is-not-expressly-allowed
p464
sS'feedburner_origlink'
p465
Vhttp://slashdot.feedsportal.com/c/35028/f/647410/s/29ef4f8f/l/0Lyro0Bslashdot0Borg0Cstory0C130C0A30C240C184620A70Ctechcrunchexpanded0Edmca0Estill0Ehas0Elimits0Dutm0Isource0Frss10B0Amainlinkanon0Gutm0Imedium0Ffeed/story01.htm
p466
sg7
V2013-03-24T18:48:00Z
p467
sS'slash_section'
p468
Vyro
p469
sg145
(lp470
g175
aV*
ag176
asg70
(lp471
g1
(g2
g3
(dtRp472
asS'author_detail'
p473
g1
(g2
g3
(dp474
g81
Vtimothy
p475
stRp476
sS'slash_hit_parade'
p477
V3,3,2,1,0,0,0
p478
sg185
Vhttp://slashdot.feedsportal.com/c/35028/f/647410/s/29ef4f8f/l/0Lyro0Bslashdot0Borg0Cstory0C130C0A30C240C184620A70Ctechcrunchexpanded0Edmca0Estill0Ehas0Elimits0Dutm0Isource0Frss10B0Amainlinkanon0Gutm0Imedium0Ffeed/story01.htm
p479
sS'slash_comments'
p480
V3
sg92
g12
((I2013
I3
I24
I18
I48
I0
I6
I83
I0
t(dtRp481
sg63
VTechCrunch:Expanded DMCA Still Has Limits
p482
sg95
g475
sg190
VAn anonymous reader writes "Last week, in a blow to the content industry, the Ninth Circuit granted Veoh a pyrrhic victory against Universal Music Group and clarified the scope of the Digital Millennium Copyright Act's safe harbor provisions for online service providers. By adopting a position taken by the Second Circuit in Viacom v. YouTube, the decision harmonized the law in two intellectually influential jurisdictions and set the standard in New York and California, national hubs for content creation and technological innovation. Going forward, tech startups will have more room to innovate while facing decreased risk of crippling financial liability. An article by two IP lawyers published today in TechCrunch simplifies and explains the scope of safe harbor protection in light of these rulings.<p><div class="share_submission"> <a class="slashpop" href="http://twitter.com/home?status=TechCrunch\u005c%3AExpanded+DMCA+Still+Has+Limits\u005c%3A+http\u005c%3A\u005c%2F\u005c%2Fbit.ly\u005c%2FZlxNQ2"><img src="http://a.fsdn.com/sd/twitter_icon_large.png" /></a> <a class="slashpop" href="http://www.facebook.com/sharer.php?u=http\u005c%3A\u005c%2F\u005c%2Fyro.slashdot.org\u005c%2Fstory\u005c%2F13\u005c%2F03\u005c%2F24\u005c%2F1846207\u005c%2Ftechcrunchexpanded-dmca-still-has-limits\u005c%3Futm_source\u005c%3Dslashdot\u005c%26utm_medium\u005c%3Dfacebook"><img src="http://a.fsdn.com/sd/facebook_icon_large.png" /></a> <a class="nobg" href="http://plus.google.com/share?url=http://yro.slashdot.org/story/13/03/24/1846207/techcrunchexpanded-dmca-still-has-limits?utm_source=slashdot&amp;utm_medium=googleplus"><img alt="Share on Google+" src="http://www.gstatic.com/images/icons/gplus-16.png" /></a> </div></p><p><a href="http://yro.slashdot.org/story/13/03/24/1846207/techcrunchexpanded-dmca-still-has-limits?utm_source=rss1.0moreanon&amp;utm_medium=feed">Read more of this story</a> at Slashdot.</p><img border="0" height="1" src="http://slashdot.feedsportal.com/c/35028/f/647410/s/29ef4f8f/mf.gif" width="1" /><br /><br /><a href="http://da.feedsportal.com/r/161393945618/u/49/f/647410/c/35028/s/29ef4f8f/a2.htm"><img border="0" src="http://da.feedsportal.com/r/161393945618/u/49/f/647410/c/35028/s/29ef4f8f/a2.img" /></a><img border="0" height="1" src="http://pi.feedsportal.com/r/161393945618/u/49/f/647410/c/35028/s/29ef4f8f/a2t.img" width="1" /><img height="1" src="http://feeds.feedburner.com/~r/Slashdot/slashdot/~4/Tc71COWfQVc" width="1" />
p483
sg192
I00
sS'title_detail'
p484
g1
(g2
g3
(dp485
g50
Vhttp://rss.slashdot.org/slashdot/Slashdot
p486
sg19
g52
sg53
g482
sg55
NstRp487
sg107
VSun, 24 Mar 2013 18:48:00 GMT
p488
sg58
g457
stRp489
ag1
(g2
g3
(dp490
S'summary_detail'
p491
g1
(g2
g3
(dp492
g50
Vhttp://rss.slashdot.org/slashdot/Slashdot
p493
sg19
g100
sg53
VAn anonymous reader writes "I'm a very new user to Linux looking for a distro that allows me to control and customize, but I'm not sure where to start. I had a friend install Ubuntu 12.04 on my computer, with the E17 window manager and somehow I managed to crash it during the copying of some non-important files and now my computer won't boot (the hardware's fine though). I've found descriptions of Arch Linux to be spot on to what I'm looking for and want (Slashdot user serviscope_minor mentioned Arch a couple weeks ago and it caught my attention), but my experience in the terminal is literally about an hour. That said, I really want to learn more, don't mind hard work, enjoy challenges, and am perfectly willing to spend hours and hours for months on end to learn command line. Any suggestions, projects to start with, books to read, or tutorials to do to try would be appreciated."<p><div class="share_submission"> <a class="slashpop" href="http://twitter.com/home?status=Ask+Slashdot%3A+New+To+Linux%3B+Which+Distro%3F%3A+http%3A%2F%2Fbit.ly%2FYpqD41"><img src="http://a.fsdn.com/sd/twitter_icon_large.png" /></a> <a class="slashpop" href="http://www.facebook.com/sharer.php?u=http%3A%2F%2Flinux.slashdot.org%2Fstory%2F13%2F03%2F24%2F1746212%2Fask-slashdot-new-to-linux-which-distro%3Futm_source%3Dslashdot%26utm_medium%3Dfacebook"><img src="http://a.fsdn.com/sd/facebook_icon_large.png" /></a> <a class="nobg" href="http://plus.google.com/share?url=http://linux.slashdot.org/story/13/03/24/1746212/ask-slashdot-new-to-linux-which-distro?utm_source=slashdot&amp;utm_medium=googleplus"><img alt="Share on Google+" src="http://www.gstatic.com/images/icons/gplus-16.png" /></a> </div></p><p><a href="http://linux.slashdot.org/story/13/03/24/1746212/ask-slashdot-new-to-linux-which-distro?utm_source=rss1.0moreanon&amp;utm_medium=feed">Read more of this story</a> at Slashdot.</p><img border="0" height="1" src="http://slashdot.feedsportal.com/c/35028/f/647410/s/29eea8c8/mf.gif" width="1" /><br /><br /><a href="http://da.feedsportal.com/r/161393756265/u/49/f/647410/c/35028/s/29eea8c8/a2.htm"><img border="0" src="http://da.feedsportal.com/r/161393756265/u/49/f/647410/c/35028/s/29eea8c8/a2.img" /></a><img border="0" height="1" src="http://pi.feedsportal.com/r/161393756265/u/49/f/647410/c/35028/s/29eea8c8/a2t.img" width="1" /><img height="1" src="http://feeds.feedburner.com/~r/Slashdot/slashdot/~4/FjeArRO_gu4" width="1" />
p494
sg55
NstRp495
sg11
g12
((I2013
I3
I24
I17
I45
I0
I6
I83
I0
t(dtRp496
sg14
(lp497
g1
(g2
g3
(dp498
g17
Vhttp://rss.slashdot.org/~r/Slashdot/slashdot/~3/FjeArRO_gu4/story01.htm
p499
sg19
g20
sg21
g22
stRp500
asg38
(lp501
g1
(g2
g3
(dp502
g41
Vos
p503
sg43
Nsg44
NstRp504
asS'slash_department'
p505
Vpick-and-choose
p506
sS'feedburner_origlink'
p507
Vhttp://slashdot.feedsportal.com/c/35028/f/647410/s/29eea8c8/l/0Llinux0Bslashdot0Borg0Cstory0C130C0A30C240C17462120Cask0Eslashdot0Enew0Eto0Elinux0Ewhich0Edistro0Dutm0Isource0Frss10B0Amainlinkanon0Gutm0Imedium0Ffeed/story01.htm
p508
sg7
V2013-03-24T17:45:00Z
p509
sS'slash_section'
p510
Vlinux
p511
sg145
(lp512
g175
aV*
ag176
asg70
(lp513
g1
(g2
g3
(dtRp514
asS'author_detail'
p515
g1
(g2
g3
(dp516
g81
Vtimothy
p517
stRp518
sS'slash_hit_parade'
p519
V31,27,9,4,0,0,0
p520
sg185
Vhttp://slashdot.feedsportal.com/c/35028/f/647410/s/29eea8c8/l/0Llinux0Bslashdot0Borg0Cstory0C130C0A30C240C17462120Cask0Eslashdot0Enew0Eto0Elinux0Ewhich0Edistro0Dutm0Isource0Frss10B0Amainlinkanon0Gutm0Imedium0Ffeed/story01.htm
p521
sS'slash_comments'
p522
V31
p523
sg92
g12
((I2013
I3
I24
I17
I45
I0
I6
I83
I0
t(dtRp524
sg63
VAsk Slashdot: New To Linux; Which Distro?
p525
sg95
g517
sg190
VAn anonymous reader writes "I'm a very new user to Linux looking for a distro that allows me to control and customize, but I'm not sure where to start. I had a friend install Ubuntu 12.04 on my computer, with the E17 window manager and somehow I managed to crash it during the copying of some non-important files and now my computer won't boot (the hardware's fine though). I've found descriptions of Arch Linux to be spot on to what I'm looking for and want (Slashdot user serviscope_minor mentioned Arch a couple weeks ago and it caught my attention), but my experience in the terminal is literally about an hour. That said, I really want to learn more, don't mind hard work, enjoy challenges, and am perfectly willing to spend hours and hours for months on end to learn command line. Any suggestions, projects to start with, books to read, or tutorials to do to try would be appreciated."<p><div class="share_submission"> <a class="slashpop" href="http://twitter.com/home?status=Ask+Slashdot\u005c%3A+New+To+Linux\u005c%3B+Which+Distro\u005c%3F\u005c%3A+http\u005c%3A\u005c%2F\u005c%2Fbit.ly\u005c%2FYpqD41"><img src="http://a.fsdn.com/sd/twitter_icon_large.png" /></a> <a class="slashpop" href="http://www.facebook.com/sharer.php?u=http\u005c%3A\u005c%2F\u005c%2Flinux.slashdot.org\u005c%2Fstory\u005c%2F13\u005c%2F03\u005c%2F24\u005c%2F1746212\u005c%2Fask-slashdot-new-to-linux-which-distro\u005c%3Futm_source\u005c%3Dslashdot\u005c%26utm_medium\u005c%3Dfacebook"><img src="http://a.fsdn.com/sd/facebook_icon_large.png" /></a> <a class="nobg" href="http://plus.google.com/share?url=http://linux.slashdot.org/story/13/03/24/1746212/ask-slashdot-new-to-linux-which-distro?utm_source=slashdot&amp;utm_medium=googleplus"><img alt="Share on Google+" src="http://www.gstatic.com/images/icons/gplus-16.png" /></a> </div></p><p><a href="http://linux.slashdot.org/story/13/03/24/1746212/ask-slashdot-new-to-linux-which-distro?utm_source=rss1.0moreanon&amp;utm_medium=feed">Read more of this story</a> at Slashdot.</p><img border="0" height="1" src="http://slashdot.feedsportal.com/c/35028/f/647410/s/29eea8c8/mf.gif" width="1" /><br /><br /><a href="http://da.feedsportal.com/r/161393756265/u/49/f/647410/c/35028/s/29eea8c8/a2.htm"><img border="0" src="http://da.feedsportal.com/r/161393756265/u/49/f/647410/c/35028/s/29eea8c8/a2.img" /></a><img border="0" height="1" src="http://pi.feedsportal.com/r/161393756265/u/49/f/647410/c/35028/s/29eea8c8/a2t.img" width="1" /><img height="1" src="http://feeds.feedburner.com/~r/Slashdot/slashdot/~4/FjeArRO_gu4" width="1" />
p526
sg192
I00
sS'title_detail'
p527
g1
(g2
g3
(dp528
g50
Vhttp://rss.slashdot.org/slashdot/Slashdot
p529
sg19
g52
sg53
g525
sg55
NstRp530
sg107
VSun, 24 Mar 2013 17:45:00 GMT
p531
sg58
g499
stRp532
ag1
(g2
g3
(dp533
S'summary_detail'
p534
g1
(g2
g3
(dp535
g50
Vhttp://rss.slashdot.org/slashdot/Slashdot
p536
sg19
g100
sg53
VFirst time accepted submitter Gerardo Zamudio writes with the news that Ur-distribution Slackware is replacing MySQL with MariaDB. From an update posted to the Slackware news feed yesterday: "This shouldn't really be a surprise on any level. The poll on LQ showed a large majority of our users were in favor of the change. It's my belief that the MariaDB Foundation will do a better job with the code, be more responsive to security concerns, and be more willing to work with the open source community. And while I don't think there is currently any issue with MySQL's licensing of the community edition for commercial uses, several threads on LQ showed that there is confusion about this, whereas with MariaDB the freedom to use the software is quite clear." (Here's a link to the mentioned poll.)<p><div class="share_submission"> <a class="slashpop" href="http://twitter.com/home?status=Longest+Running+Linux+Distribution+Slackware+Adopts+MariaDB%3A+http%3A%2F%2Fbit.ly%2FZgSpfL"><img src="http://a.fsdn.com/sd/twitter_icon_large.png" /></a> <a class="slashpop" href="http://www.facebook.com/sharer.php?u=http%3A%2F%2Flinux.slashdot.org%2Fstory%2F13%2F03%2F24%2F1625240%2Flongest-running-linux-distribution-slackware-adopts-mariadb%3Futm_source%3Dslashdot%26utm_medium%3Dfacebook"><img src="http://a.fsdn.com/sd/facebook_icon_large.png" /></a> <a class="nobg" href="http://plus.google.com/share?url=http://linux.slashdot.org/story/13/03/24/1625240/longest-running-linux-distribution-slackware-adopts-mariadb?utm_source=slashdot&amp;utm_medium=googleplus"><img alt="Share on Google+" src="http://www.gstatic.com/images/icons/gplus-16.png" /></a> </div></p><p><a href="http://linux.slashdot.org/story/13/03/24/1625240/longest-running-linux-distribution-slackware-adopts-mariadb?utm_source=rss1.0moreanon&amp;utm_medium=feed">Read more of this story</a> at Slashdot.</p><img border="0" height="1" src="http://slashdot.feedsportal.com/c/35028/f/647410/s/29ee41ce/mf.gif" width="1" /><br /><br /><a href="http://da.feedsportal.com/r/161393989857/u/49/f/647410/c/35028/s/29ee41ce/a2.htm"><img border="0" src="http://da.feedsportal.com/r/161393989857/u/49/f/647410/c/35028/s/29ee41ce/a2.img" /></a><img border="0" height="1" src="http://pi.feedsportal.com/r/161393989857/u/49/f/647410/c/35028/s/29ee41ce/a2t.img" width="1" /><img height="1" src="http://feeds.feedburner.com/~r/Slashdot/slashdot/~4/QUmd2yyJKs0" width="1" />
p537
sg55
NstRp538
sg11
g12
((I2013
I3
I24
I16
I25
I0
I6
I83
I0
t(dtRp539
sg14
(lp540
g1
(g2
g3
(dp541
g17
Vhttp://rss.slashdot.org/~r/Slashdot/slashdot/~3/QUmd2yyJKs0/story01.htm
p542
sg19
g20
sg21
g22
stRp543
asg38
(lp544
g1
(g2
g3
(dp545
g41
Vdatabase
p546
sg43
Nsg44
NstRp547
asS'slash_department'
p548
Vonward-and-upward
p549
sS'feedburner_origlink'
p550
Vhttp://slashdot.feedsportal.com/c/35028/f/647410/s/29ee41ce/l/0Llinux0Bslashdot0Borg0Cstory0C130C0A30C240C1625240A0Clongest0Erunning0Elinux0Edistribution0Eslackware0Eadopts0Emariadb0Dutm0Isource0Frss10B0Amainlinkanon0Gutm0Imedium0Ffeed/story01.htm
p551
sg7
V2013-03-24T16:25:00Z
p552
sS'slash_section'
p553
Vlinux
p554
sg145
(lp555
g175
aV*
ag176
asg70
(lp556
g1
(g2
g3
(dtRp557
asS'author_detail'
p558
g1
(g2
g3
(dp559
g81
Vtimothy
p560
stRp561
sS'slash_hit_parade'
p562
V5,5,0,0,0,0,0
p563
sg185
Vhttp://slashdot.feedsportal.com/c/35028/f/647410/s/29ee41ce/l/0Llinux0Bslashdot0Borg0Cstory0C130C0A30C240C1625240A0Clongest0Erunning0Elinux0Edistribution0Eslackware0Eadopts0Emariadb0Dutm0Isource0Frss10B0Amainlinkanon0Gutm0Imedium0Ffeed/story01.htm
p564
sS'slash_comments'
p565
V5
sg92
g12
((I2013
I3
I24
I16
I25
I0
I6
I83
I0
t(dtRp566
sg63
VLongest Running Linux Distribution Slackware Adopts MariaDB
p567
sg95
g560
sg190
VFirst time accepted submitter Gerardo Zamudio writes with the news that Ur-distribution Slackware is replacing MySQL with MariaDB. From an update posted to the Slackware news feed yesterday: "This shouldn't really be a surprise on any level. The poll on LQ showed a large majority of our users were in favor of the change. It's my belief that the MariaDB Foundation will do a better job with the code, be more responsive to security concerns, and be more willing to work with the open source community. And while I don't think there is currently any issue with MySQL's licensing of the community edition for commercial uses, several threads on LQ showed that there is confusion about this, whereas with MariaDB the freedom to use the software is quite clear." (Here's a link to the mentioned poll.)<p><div class="share_submission"> <a class="slashpop" href="http://twitter.com/home?status=Longest+Running+Linux+Distribution+Slackware+Adopts+MariaDB\u005c%3A+http\u005c%3A\u005c%2F\u005c%2Fbit.ly\u005c%2FZgSpfL"><img src="http://a.fsdn.com/sd/twitter_icon_large.png" /></a> <a class="slashpop" href="http://www.facebook.com/sharer.php?u=http\u005c%3A\u005c%2F\u005c%2Flinux.slashdot.org\u005c%2Fstory\u005c%2F13\u005c%2F03\u005c%2F24\u005c%2F1625240\u005c%2Flongest-running-linux-distribution-slackware-adopts-mariadb\u005c%3Futm_source\u005c%3Dslashdot\u005c%26utm_medium\u005c%3Dfacebook"><img src="http://a.fsdn.com/sd/facebook_icon_large.png" /></a> <a class="nobg" href="http://plus.google.com/share?url=http://linux.slashdot.org/story/13/03/24/1625240/longest-running-linux-distribution-slackware-adopts-mariadb?utm_source=slashdot&amp;utm_medium=googleplus"><img alt="Share on Google+" src="http://www.gstatic.com/images/icons/gplus-16.png" /></a> </div></p><p><a href="http://linux.slashdot.org/story/13/03/24/1625240/longest-running-linux-distribution-slackware-adopts-mariadb?utm_source=rss1.0moreanon&amp;utm_medium=feed">Read more of this story</a> at Slashdot.</p><img border="0" height="1" src="http://slashdot.feedsportal.com/c/35028/f/647410/s/29ee41ce/mf.gif" width="1" /><br /><br /><a href="http://da.feedsportal.com/r/161393989857/u/49/f/647410/c/35028/s/29ee41ce/a2.htm"><img border="0" src="http://da.feedsportal.com/r/161393989857/u/49/f/647410/c/35028/s/29ee41ce/a2.img" /></a><img border="0" height="1" src="http://pi.feedsportal.com/r/161393989857/u/49/f/647410/c/35028/s/29ee41ce/a2t.img" width="1" /><img height="1" src="http://feeds.feedburner.com/~r/Slashdot/slashdot/~4/QUmd2yyJKs0" width="1" />
p568
sg192
I00
sS'title_detail'
p569
g1
(g2
g3
(dp570
g50
Vhttp://rss.slashdot.org/slashdot/Slashdot
p571
sg19
g52
sg53
g567
sg55
NstRp572
sg107
VSun, 24 Mar 2013 16:25:00 GMT
p573
sg58
g542
stRp574
ag1
(g2
g3
(dp575
S'summary_detail'
p576
g1
(g2
g3
(dp577
g50
Vhttp://rss.slashdot.org/slashdot/Slashdot
p578
sg19
g100
sg53
Vschwit1 writes "Rep. Steve Pearce (R-N.M.) wants to create a 'virtual Congress,' where lawmakers would leverage videoconferencing and other remote work technology to conduct their daily duties in Washington from their home districts. Under a resolution Pearce introduced on Thursday, lawmakers would be able to hold hearings, debate and vote on legislation virtually from their district offices. The big loser would be the DC area and K Street in particular. The change would also be a double-edged sword for security."<p><div class="share_submission"> <a class="slashpop" href="http://twitter.com/home?status=Should+Congress+Telecommute%3F%3A+http%3A%2F%2Fbit.ly%2F11zlIxZ"><img src="http://a.fsdn.com/sd/twitter_icon_large.png" /></a> <a class="slashpop" href="http://www.facebook.com/sharer.php?u=http%3A%2F%2Fyro.slashdot.org%2Fstory%2F13%2F03%2F24%2F1255255%2Fshould-congress-telecommute%3Futm_source%3Dslashdot%26utm_medium%3Dfacebook"><img src="http://a.fsdn.com/sd/facebook_icon_large.png" /></a> <a class="nobg" href="http://plus.google.com/share?url=http://yro.slashdot.org/story/13/03/24/1255255/should-congress-telecommute?utm_source=slashdot&amp;utm_medium=googleplus"><img alt="Share on Google+" src="http://www.gstatic.com/images/icons/gplus-16.png" /></a> </div></p><p><a href="http://yro.slashdot.org/story/13/03/24/1255255/should-congress-telecommute?utm_source=rss1.0moreanon&amp;utm_medium=feed">Read more of this story</a> at Slashdot.</p><img border="0" height="1" src="http://slashdot.feedsportal.com/c/35028/f/647410/s/29edcee3/mf.gif" width="1" /><br /><br /><a href="http://da.feedsportal.com/r/161393941717/u/49/f/647410/c/35028/s/29edcee3/a2.htm"><img border="0" src="http://da.feedsportal.com/r/161393941717/u/49/f/647410/c/35028/s/29edcee3/a2.img" /></a><img border="0" height="1" src="http://pi.feedsportal.com/r/161393941717/u/49/f/647410/c/35028/s/29edcee3/a2t.img" width="1" /><img height="1" src="http://feeds.feedburner.com/~r/Slashdot/slashdot/~4/fl-mz8loJ6Q" width="1" />
p579
sg55
NstRp580
sg11
g12
((I2013
I3
I24
I15
I15
I0
I6
I83
I0
t(dtRp581
sg14
(lp582
g1
(g2
g3
(dp583
g17
Vhttp://rss.slashdot.org/~r/Slashdot/slashdot/~3/fl-mz8loJ6Q/story01.htm
p584
sg19
g20
sg21
g22
stRp585
asg38
(lp586
g1
(g2
g3
(dp587
g41
Vgovernment
p588
sg43
Nsg44
NstRp589
asS'slash_department'
p590
Vvirtual-personal-assistant-spam-convinced-him
p591
sS'feedburner_origlink'
p592
Vhttp://slashdot.feedsportal.com/c/35028/f/647410/s/29edcee3/l/0Lyro0Bslashdot0Borg0Cstory0C130C0A30C240C12552550Cshould0Econgress0Etelecommute0Dutm0Isource0Frss10B0Amainlinkanon0Gutm0Imedium0Ffeed/story01.htm
p593
sg7
V2013-03-24T15:15:00Z
p594
sS'slash_section'
p595
Vyro
p596
sg58
g584
sg70
(lp597
g1
(g2
g3
(dtRp598
asS'author_detail'
p599
g1
(g2
g3
(dp600
g81
Vtimothy
p601
stRp602
sS'slash_hit_parade'
p603
V0,0,0,0,0,0,0
p604
sg185
Vhttp://slashdot.feedsportal.com/c/35028/f/647410/s/29edcee3/l/0Lyro0Bslashdot0Borg0Cstory0C130C0A30C240C12552550Cshould0Econgress0Etelecommute0Dutm0Isource0Frss10B0Amainlinkanon0Gutm0Imedium0Ffeed/story01.htm
p605
sg92
g12
((I2013
I3
I24
I15
I15
I0
I6
I83
I0
t(dtRp606
sg63
VShould Congress Telecommute?
p607
sg95
g601
sg190
Vschwit1 writes "Rep. Steve Pearce (R-N.M.) wants to create a 'virtual Congress,' where lawmakers would leverage videoconferencing and other remote work technology to conduct their daily duties in Washington from their home districts. Under a resolution Pearce introduced on Thursday, lawmakers would be able to hold hearings, debate and vote on legislation virtually from their district offices. The big loser would be the DC area and K Street in particular. The change would also be a double-edged sword for security."<p><div class="share_submission"> <a class="slashpop" href="http://twitter.com/home?status=Should+Congress+Telecommute\u005c%3F\u005c%3A+http\u005c%3A\u005c%2F\u005c%2Fbit.ly\u005c%2F11zlIxZ"><img src="http://a.fsdn.com/sd/twitter_icon_large.png" /></a> <a class="slashpop" href="http://www.facebook.com/sharer.php?u=http\u005c%3A\u005c%2F\u005c%2Fyro.slashdot.org\u005c%2Fstory\u005c%2F13\u005c%2F03\u005c%2F24\u005c%2F1255255\u005c%2Fshould-congress-telecommute\u005c%3Futm_source\u005c%3Dslashdot\u005c%26utm_medium\u005c%3Dfacebook"><img src="http://a.fsdn.com/sd/facebook_icon_large.png" /></a> <a class="nobg" href="http://plus.google.com/share?url=http://yro.slashdot.org/story/13/03/24/1255255/should-congress-telecommute?utm_source=slashdot&amp;utm_medium=googleplus"><img alt="Share on Google+" src="http://www.gstatic.com/images/icons/gplus-16.png" /></a> </div></p><p><a href="http://yro.slashdot.org/story/13/03/24/1255255/should-congress-telecommute?utm_source=rss1.0moreanon&amp;utm_medium=feed">Read more of this story</a> at Slashdot.</p><img border="0" height="1" src="http://slashdot.feedsportal.com/c/35028/f/647410/s/29edcee3/mf.gif" width="1" /><br /><br /><a href="http://da.feedsportal.com/r/161393941717/u/49/f/647410/c/35028/s/29edcee3/a2.htm"><img border="0" src="http://da.feedsportal.com/r/161393941717/u/49/f/647410/c/35028/s/29edcee3/a2.img" /></a><img border="0" height="1" src="http://pi.feedsportal.com/r/161393941717/u/49/f/647410/c/35028/s/29edcee3/a2t.img" width="1" /><img height="1" src="http://feeds.feedburner.com/~r/Slashdot/slashdot/~4/fl-mz8loJ6Q" width="1" />
p608
sg192
I00
sS'title_detail'
p609
g1
(g2
g3
(dp610
g50
Vhttp://rss.slashdot.org/slashdot/Slashdot
p611
sg19
g52
sg53
g607
sg55
NstRp612
sg107
VSun, 24 Mar 2013 15:15:00 GMT
p613
sg145
(lp614
g175
aV*
ag176
astRp615
ag1
(g2
g3
(dp616
S'summary_detail'
p617
g1
(g2
g3
(dp618
g50
Vhttp://rss.slashdot.org/slashdot/Slashdot
p619
sg19
g100
sg53
VAn anonymous reader writes with this snippet from CBC News: " It's not often that Canadian real estate listings make international headlines, but a mid-sized Alberta bungalow has people around the world buzzing today after its owner declared that he would like to sell it &mdash; for Bitcoins. If successful, 22-year-old entrepreneur Taylor More would be the first person ever to accept the fast-rising virtual currency in exchange for property. 'My home is being traded for Bitcoins!' reads the listing for More's 'quaint' two bedroom home in Crowsnest Pass, Alberta. ... The property is listed for $405,000 CDN, but More writes that 'the price can be reduced" if a buyer has some Bitcoins to spare.'"<p><div class="share_submission"> <a class="slashpop" href="http://twitter.com/home?status=Canadian+Man+Wants+To+Trade+Home+For+Bitcoins%3A+http%3A%2F%2Fbit.ly%2F104Xe9s"><img src="http://a.fsdn.com/sd/twitter_icon_large.png" /></a> <a class="slashpop" href="http://www.facebook.com/sharer.php?u=http%3A%2F%2Fnews.slashdot.org%2Fstory%2F13%2F03%2F24%2F130215%2Fcanadian-man-wants-to-trade-home-for-bitcoins%3Futm_source%3Dslashdot%26utm_medium%3Dfacebook"><img src="http://a.fsdn.com/sd/facebook_icon_large.png" /></a> <a class="nobg" href="http://plus.google.com/share?url=http://news.slashdot.org/story/13/03/24/130215/canadian-man-wants-to-trade-home-for-bitcoins?utm_source=slashdot&amp;utm_medium=googleplus"><img alt="Share on Google+" src="http://www.gstatic.com/images/icons/gplus-16.png" /></a> </div></p><p><a href="http://news.slashdot.org/story/13/03/24/130215/canadian-man-wants-to-trade-home-for-bitcoins?utm_source=rss1.0moreanon&amp;utm_medium=feed">Read more of this story</a> at Slashdot.</p><img border="0" height="1" src="http://slashdot.feedsportal.com/c/35028/f/647410/s/29edeeac/mf.gif" width="1" /><br /><br /><a href="http://da.feedsportal.com/r/161393752861/u/49/f/647410/c/35028/s/29edeeac/a2.htm"><img border="0" src="http://da.feedsportal.com/r/161393752861/u/49/f/647410/c/35028/s/29edeeac/a2.img" /></a><img border="0" height="1" src="http://pi.feedsportal.com/r/161393752861/u/49/f/647410/c/35028/s/29edeeac/a2t.img" width="1" /><img height="1" src="http://feeds.feedburner.com/~r/Slashdot/slashdot/~4/G9MaRkqAwCU" width="1" />
p620
sg55
NstRp621
sg11
g12
((I2013
I3
I24
I14
I39
I0
I6
I83
I0
t(dtRp622
sg14
(lp623
g1
(g2
g3
(dp624
g17
Vhttp://rss.slashdot.org/~r/Slashdot/slashdot/~3/G9MaRkqAwCU/story01.htm
p625
sg19
g20
sg21
g22
stRp626
asg38
(lp627
g1
(g2
g3
(dp628
g41
Vbitcoin
p629
sg43
Nsg44
NstRp630
asS'slash_department'
p631
Vliving-in-the-matrix-now
p632
sS'feedburner_origlink'
p633
Vhttp://slashdot.feedsportal.com/c/35028/f/647410/s/29edeeac/l/0Lnews0Bslashdot0Borg0Cstory0C130C0A30C240C130A2150Ccanadian0Eman0Ewants0Eto0Etrade0Ehome0Efor0Ebitcoins0Dutm0Isource0Frss10B0Amainlinkanon0Gutm0Imedium0Ffeed/story01.htm
p634
sg7
V2013-03-24T14:39:00Z
p635
sS'slash_section'
p636
Vnews
p637
sg58
g625
sg70
(lp638
g1
(g2
g3
(dtRp639
asS'author_detail'
p640
g1
(g2
g3
(dp641
g81
Vtimothy
p642
stRp643
sS'slash_hit_parade'
p644
V0,0,0,0,0,0,0
p645
sg185
Vhttp://slashdot.feedsportal.com/c/35028/f/647410/s/29edeeac/l/0Lnews0Bslashdot0Borg0Cstory0C130C0A30C240C130A2150Ccanadian0Eman0Ewants0Eto0Etrade0Ehome0Efor0Ebitcoins0Dutm0Isource0Frss10B0Amainlinkanon0Gutm0Imedium0Ffeed/story01.htm
p646
sg92
g12
((I2013
I3
I24
I14
I39
I0
I6
I83
I0
t(dtRp647
sg63
VCanadian Man Wants To Trade Home For Bitcoins
p648
sg95
g642
sg190
VAn anonymous reader writes with this snippet from CBC News: " It's not often that Canadian real estate listings make international headlines, but a mid-sized Alberta bungalow has people around the world buzzing today after its owner declared that he would like to sell it &mdash; for Bitcoins. If successful, 22-year-old entrepreneur Taylor More would be the first person ever to accept the fast-rising virtual currency in exchange for property. 'My home is being traded for Bitcoins!' reads the listing for More's 'quaint' two bedroom home in Crowsnest Pass, Alberta. ... The property is listed for $405,000 CDN, but More writes that 'the price can be reduced" if a buyer has some Bitcoins to spare.'"<p><div class="share_submission"> <a class="slashpop" href="http://twitter.com/home?status=Canadian+Man+Wants+To+Trade+Home+For+Bitcoins\u005c%3A+http\u005c%3A\u005c%2F\u005c%2Fbit.ly\u005c%2F104Xe9s"><img src="http://a.fsdn.com/sd/twitter_icon_large.png" /></a> <a class="slashpop" href="http://www.facebook.com/sharer.php?u=http\u005c%3A\u005c%2F\u005c%2Fnews.slashdot.org\u005c%2Fstory\u005c%2F13\u005c%2F03\u005c%2F24\u005c%2F130215\u005c%2Fcanadian-man-wants-to-trade-home-for-bitcoins\u005c%3Futm_source\u005c%3Dslashdot\u005c%26utm_medium\u005c%3Dfacebook"><img src="http://a.fsdn.com/sd/facebook_icon_large.png" /></a> <a class="nobg" href="http://plus.google.com/share?url=http://news.slashdot.org/story/13/03/24/130215/canadian-man-wants-to-trade-home-for-bitcoins?utm_source=slashdot&amp;utm_medium=googleplus"><img alt="Share on Google+" src="http://www.gstatic.com/images/icons/gplus-16.png" /></a> </div></p><p><a href="http://news.slashdot.org/story/13/03/24/130215/canadian-man-wants-to-trade-home-for-bitcoins?utm_source=rss1.0moreanon&amp;utm_medium=feed">Read more of this story</a> at Slashdot.</p><img border="0" height="1" src="http://slashdot.feedsportal.com/c/35028/f/647410/s/29edeeac/mf.gif" width="1" /><br /><br /><a href="http://da.feedsportal.com/r/161393752861/u/49/f/647410/c/35028/s/29edeeac/a2.htm"><img border="0" src="http://da.feedsportal.com/r/161393752861/u/49/f/647410/c/35028/s/29edeeac/a2.img" /></a><img border="0" height="1" src="http://pi.feedsportal.com/r/161393752861/u/49/f/647410/c/35028/s/29edeeac/a2t.img" width="1" /><img height="1" src="http://feeds.feedburner.com/~r/Slashdot/slashdot/~4/G9MaRkqAwCU" width="1" />
p649
sg192
I00
sS'title_detail'
p650
g1
(g2
g3
(dp651
g50
Vhttp://rss.slashdot.org/slashdot/Slashdot
p652
sg19
g52
sg53
g648
sg55
NstRp653
sg107
VSun, 24 Mar 2013 14:39:00 GMT
p654
sg145
(lp655
g175
aV*
ag176
astRp656
ag1
(g2
g3
(dp657
S'summary_detail'
p658
g1
(g2
g3
(dp659
g50
Vhttp://rss.slashdot.org/slashdot/Slashdot
p660
sg19
g100
sg53
VNew submitter RougeFemme writes with news of Friday's announcement that FCC chairman Julius Genachowski will step down in the next several weeks (also at Politico), and asks "Obama promised us the continuation of a free, open Internet. Will the resignation of the FCC chairman have any affect on that 'net neutrality'?"<p><div class="share_submission"> <a class="slashpop" href="http://twitter.com/home?status=FCC+Chair+Genachowski+Resigns%3B+What+Effect+on+Net+Regulation%3F%3A+http%3A%2F%2Fbit.ly%2F11zcCkO"><img src="http://a.fsdn.com/sd/twitter_icon_large.png" /></a> <a class="slashpop" href="http://www.facebook.com/sharer.php?u=http%3A%2F%2Fpolitics.slashdot.org%2Fstory%2F13%2F03%2F24%2F1328219%2Ffcc-chair-genachowski-resigns-what-effect-on-net-regulation%3Futm_source%3Dslashdot%26utm_medium%3Dfacebook"><img src="http://a.fsdn.com/sd/facebook_icon_large.png" /></a> <a class="nobg" href="http://plus.google.com/share?url=http://politics.slashdot.org/story/13/03/24/1328219/fcc-chair-genachowski-resigns-what-effect-on-net-regulation?utm_source=slashdot&amp;utm_medium=googleplus"><img alt="Share on Google+" src="http://www.gstatic.com/images/icons/gplus-16.png" /></a> </div></p><p><a href="http://politics.slashdot.org/story/13/03/24/1328219/fcc-chair-genachowski-resigns-what-effect-on-net-regulation?utm_source=rss1.0moreanon&amp;utm_medium=feed">Read more of this story</a> at Slashdot.</p><img border="0" height="1" src="http://slashdot.feedsportal.com/c/35028/f/647410/s/29eda3ec/mf.gif" width="1" /><br /><br /><a href="http://da.feedsportal.com/r/161393987560/u/49/f/647410/c/35028/s/29eda3ec/a2.htm"><img border="0" src="http://da.feedsportal.com/r/161393987560/u/49/f/647410/c/35028/s/29eda3ec/a2.img" /></a><img border="0" height="1" src="http://pi.feedsportal.com/r/161393987560/u/49/f/647410/c/35028/s/29eda3ec/a2t.img" width="1" /><img height="1" src="http://feeds.feedburner.com/~r/Slashdot/slashdot/~4/xRwOjSfZ49A" width="1" />
p661
sg55
NstRp662
sg11
g12
((I2013
I3
I24
I14
I18
I0
I6
I83
I0
t(dtRp663
sg14
(lp664
g1
(g2
g3
(dp665
g17
Vhttp://rss.slashdot.org/~r/Slashdot/slashdot/~3/xRwOjSfZ49A/story01.htm
p666
sg19
g20
sg21
g22
stRp667
asg38
(lp668
g1
(g2
g3
(dp669
g41
Vinternet
p670
sg43
Nsg44
NstRp671
asS'slash_department'
p672
Vwish-the-government-would-be-neutral-toward-the-net
p673
sS'feedburner_origlink'
p674
Vhttp://slashdot.feedsportal.com/c/35028/f/647410/s/29eda3ec/l/0Lpolitics0Bslashdot0Borg0Cstory0C130C0A30C240C13282190Cfcc0Echair0Egenachowski0Eresigns0Ewhat0Eeffect0Eon0Enet0Eregulation0Dutm0Isource0Frss10B0Amainlinkanon0Gutm0Imedium0Ffeed/story01.htm
p675
sg7
V2013-03-24T14:18:00Z
p676
sS'slash_section'
p677
Vpolitics
p678
sg145
(lp679
g175
aV*
ag176
asg70
(lp680
g1
(g2
g3
(dtRp681
asS'author_detail'
p682
g1
(g2
g3
(dp683
g81
Vtimothy
p684
stRp685
sS'slash_hit_parade'
p686
V1,1,0,0,0,0,0
p687
sg185
Vhttp://slashdot.feedsportal.com/c/35028/f/647410/s/29eda3ec/l/0Lpolitics0Bslashdot0Borg0Cstory0C130C0A30C240C13282190Cfcc0Echair0Egenachowski0Eresigns0Ewhat0Eeffect0Eon0Enet0Eregulation0Dutm0Isource0Frss10B0Amainlinkanon0Gutm0Imedium0Ffeed/story01.htm
p688
sS'slash_comments'
p689
V1
sg92
g12
((I2013
I3
I24
I14
I18
I0
I6
I83
I0
t(dtRp690
sg63
VFCC Chair Genachowski Resigns; What Effect on Net Regulation?
p691
sg95
g684
sg190
VNew submitter RougeFemme writes with news of Friday's announcement that FCC chairman Julius Genachowski will step down in the next several weeks (also at Politico), and asks "Obama promised us the continuation of a free, open Internet. Will the resignation of the FCC chairman have any affect on that 'net neutrality'?"<p><div class="share_submission"> <a class="slashpop" href="http://twitter.com/home?status=FCC+Chair+Genachowski+Resigns\u005c%3B+What+Effect+on+Net+Regulation\u005c%3F\u005c%3A+http\u005c%3A\u005c%2F\u005c%2Fbit.ly\u005c%2F11zcCkO"><img src="http://a.fsdn.com/sd/twitter_icon_large.png" /></a> <a class="slashpop" href="http://www.facebook.com/sharer.php?u=http\u005c%3A\u005c%2F\u005c%2Fpolitics.slashdot.org\u005c%2Fstory\u005c%2F13\u005c%2F03\u005c%2F24\u005c%2F1328219\u005c%2Ffcc-chair-genachowski-resigns-what-effect-on-net-regulation\u005c%3Futm_source\u005c%3Dslashdot\u005c%26utm_medium\u005c%3Dfacebook"><img src="http://a.fsdn.com/sd/facebook_icon_large.png" /></a> <a class="nobg" href="http://plus.google.com/share?url=http://politics.slashdot.org/story/13/03/24/1328219/fcc-chair-genachowski-resigns-what-effect-on-net-regulation?utm_source=slashdot&amp;utm_medium=googleplus"><img alt="Share on Google+" src="http://www.gstatic.com/images/icons/gplus-16.png" /></a> </div></p><p><a href="http://politics.slashdot.org/story/13/03/24/1328219/fcc-chair-genachowski-resigns-what-effect-on-net-regulation?utm_source=rss1.0moreanon&amp;utm_medium=feed">Read more of this story</a> at Slashdot.</p><img border="0" height="1" src="http://slashdot.feedsportal.com/c/35028/f/647410/s/29eda3ec/mf.gif" width="1" /><br /><br /><a href="http://da.feedsportal.com/r/161393987560/u/49/f/647410/c/35028/s/29eda3ec/a2.htm"><img border="0" src="http://da.feedsportal.com/r/161393987560/u/49/f/647410/c/35028/s/29eda3ec/a2.img" /></a><img border="0" height="1" src="http://pi.feedsportal.com/r/161393987560/u/49/f/647410/c/35028/s/29eda3ec/a2t.img" width="1" /><img height="1" src="http://feeds.feedburner.com/~r/Slashdot/slashdot/~4/xRwOjSfZ49A" width="1" />
p692
sg192
I00
sS'title_detail'
p693
g1
(g2
g3
(dp694
g50
Vhttp://rss.slashdot.org/slashdot/Slashdot
p695
sg19
g52
sg53
g691
sg55
NstRp696
sg107
VSun, 24 Mar 2013 14:18:00 GMT
p697
sg58
g666
stRp698
ag1
(g2
g3
(dp699
S'summary_detail'
p700
g1
(g2
g3
(dp701
g50
Vhttp://rss.slashdot.org/slashdot/Slashdot
p702
sg19
g100
sg53
VCarewolf writes "Jeff Mitchell writes on his blog about what almost became 'The Great KDE Disaster Of 2013.' It all started as simple update of the root git server and ended up with a corrupt git repository automatically mirrored to every mirror and deleting every copy of most KDE repositories. It ends by discussing what the problem is with git --mirror and how you can avoid similar problems in the future."<p><div class="share_submission"> <a class="slashpop" href="http://twitter.com/home?status=Too+Perfect+a+Mirror%3A+http%3A%2F%2Fbit.ly%2FYND96S"><img src="http://a.fsdn.com/sd/twitter_icon_large.png" /></a> <a class="slashpop" href="http://www.facebook.com/sharer.php?u=http%3A%2F%2Fit.slashdot.org%2Fstory%2F13%2F03%2F24%2F1252237%2Ftoo-perfect-a-mirror%3Futm_source%3Dslashdot%26utm_medium%3Dfacebook"><img src="http://a.fsdn.com/sd/facebook_icon_large.png" /></a> <a class="nobg" href="http://plus.google.com/share?url=http://it.slashdot.org/story/13/03/24/1252237/too-perfect-a-mirror?utm_source=slashdot&amp;utm_medium=googleplus"><img alt="Share on Google+" src="http://www.gstatic.com/images/icons/gplus-16.png" /></a> </div></p><p><a href="http://it.slashdot.org/story/13/03/24/1252237/too-perfect-a-mirror?utm_source=rss1.0moreanon&amp;utm_medium=feed">Read more of this story</a> at Slashdot.</p><img border="0" height="1" src="http://slashdot.feedsportal.com/c/35028/f/647410/s/29ed351a/mf.gif" width="1" /><br /><br /><a href="http://da.feedsportal.com/r/161393939855/u/49/f/647410/c/35028/s/29ed351a/a2.htm"><img border="0" src="http://da.feedsportal.com/r/161393939855/u/49/f/647410/c/35028/s/29ed351a/a2.img" /></a><img border="0" height="1" src="http://pi.feedsportal.com/r/161393939855/u/49/f/647410/c/35028/s/29ed351a/a2t.img" width="1" /><img height="1" src="http://feeds.feedburner.com/~r/Slashdot/slashdot/~4/bFJ3JNjXhZ8" width="1" />
p703
sg55
NstRp704
sg11
g12
((I2013
I3
I24
I13
I20
I0
I6
I83
I0
t(dtRp705
sg14
(lp706
g1
(g2
g3
(dp707
g17
Vhttp://rss.slashdot.org/~r/Slashdot/slashdot/~3/bFJ3JNjXhZ8/story01.htm
p708
sg19
g20
sg21
g22
stRp709
asg38
(lp710
g1
(g2
g3
(dp711
g41
Vkde
p712
sg43
Nsg44
NstRp713
asS'slash_department'
p714
Vcomputer-behaving-badly
p715
sS'feedburner_origlink'
p716
Vhttp://slashdot.feedsportal.com/c/35028/f/647410/s/29ed351a/l/0Lit0Bslashdot0Borg0Cstory0C130C0A30C240C12522370Ctoo0Eperfect0Ea0Emirror0Dutm0Isource0Frss10B0Amainlinkanon0Gutm0Imedium0Ffeed/story01.htm
p717
sg7
V2013-03-24T13:20:00Z
p718
sS'slash_section'
p719
Vit
p720
sg145
(lp721
g175
aV*
ag176
asg70
(lp722
g1
(g2
g3
(dtRp723
asS'author_detail'
p724
g1
(g2
g3
(dp725
g81
Vtimothy
p726
stRp727
sS'slash_hit_parade'
p728
V2,2,2,2,0,0,0
p729
sg185
Vhttp://slashdot.feedsportal.com/c/35028/f/647410/s/29ed351a/l/0Lit0Bslashdot0Borg0Cstory0C130C0A30C240C12522370Ctoo0Eperfect0Ea0Emirror0Dutm0Isource0Frss10B0Amainlinkanon0Gutm0Imedium0Ffeed/story01.htm
p730
sS'slash_comments'
p731
V2
sg92
g12
((I2013
I3
I24
I13
I20
I0
I6
I83
I0
t(dtRp732
sg63
VToo Perfect a Mirror
p733
sg95
g726
sg190
VCarewolf writes "Jeff Mitchell writes on his blog about what almost became 'The Great KDE Disaster Of 2013.' It all started as simple update of the root git server and ended up with a corrupt git repository automatically mirrored to every mirror and deleting every copy of most KDE repositories. It ends by discussing what the problem is with git --mirror and how you can avoid similar problems in the future."<p><div class="share_submission"> <a class="slashpop" href="http://twitter.com/home?status=Too+Perfect+a+Mirror\u005c%3A+http\u005c%3A\u005c%2F\u005c%2Fbit.ly\u005c%2FYND96S"><img src="http://a.fsdn.com/sd/twitter_icon_large.png" /></a> <a class="slashpop" href="http://www.facebook.com/sharer.php?u=http\u005c%3A\u005c%2F\u005c%2Fit.slashdot.org\u005c%2Fstory\u005c%2F13\u005c%2F03\u005c%2F24\u005c%2F1252237\u005c%2Ftoo-perfect-a-mirror\u005c%3Futm_source\u005c%3Dslashdot\u005c%26utm_medium\u005c%3Dfacebook"><img src="http://a.fsdn.com/sd/facebook_icon_large.png" /></a> <a class="nobg" href="http://plus.google.com/share?url=http://it.slashdot.org/story/13/03/24/1252237/too-perfect-a-mirror?utm_source=slashdot&amp;utm_medium=googleplus"><img alt="Share on Google+" src="http://www.gstatic.com/images/icons/gplus-16.png" /></a> </div></p><p><a href="http://it.slashdot.org/story/13/03/24/1252237/too-perfect-a-mirror?utm_source=rss1.0moreanon&amp;utm_medium=feed">Read more of this story</a> at Slashdot.</p><img border="0" height="1" src="http://slashdot.feedsportal.com/c/35028/f/647410/s/29ed351a/mf.gif" width="1" /><br /><br /><a href="http://da.feedsportal.com/r/161393939855/u/49/f/647410/c/35028/s/29ed351a/a2.htm"><img border="0" src="http://da.feedsportal.com/r/161393939855/u/49/f/647410/c/35028/s/29ed351a/a2.img" /></a><img border="0" height="1" src="http://pi.feedsportal.com/r/161393939855/u/49/f/647410/c/35028/s/29ed351a/a2t.img" width="1" /><img height="1" src="http://feeds.feedburner.com/~r/Slashdot/slashdot/~4/bFJ3JNjXhZ8" width="1" />
p734
sg192
I00
sS'title_detail'
p735
g1
(g2
g3
(dp736
g50
Vhttp://rss.slashdot.org/slashdot/Slashdot
p737
sg19
g52
sg53
g733
sg55
NstRp738
sg107
VSun, 24 Mar 2013 13:20:00 GMT
p739
sg58
g708
stRp740
ag1
(g2
g3
(dp741
S'summary_detail'
p742
g1
(g2
g3
(dp743
g50
Vhttp://rss.slashdot.org/slashdot/Slashdot
p744
sg19
g100
sg53
VHugh Pickens writes writes "Gosia Wonzniacka reports that farmers in Fresno County, California, supported by university experts and a $5 million state grant, are set to start construction of the nation's first commercial-scale bio-refinery to turn beets into biofuel with farmers saying the so-called 'energy beets' can deliver ethanol yields more than twice those of corn per acre because beets have a higher sugar content per ton than corn. 'We're trying to reduce greenhouse gas emissions and to shift our transportation fuels to a lower carbon content,' says Robert Weisenmiller. 'The beets have the potential to provide that.' Europe already has more than a dozen such plants, so the bio-refinery would resurrect a crop that has nearly vanished. The birthplace of the sugar beet industry, California once grew over 330,000 acres of the gnarly root vegetable (PDF), with 11 sugar mills processing the beets but as sugar prices collapsed, the mills shut down. So what's the difference between sugar beets and energy beets? To produce table sugar, producers are looking for sucrose, sucrose and more sucrose. Energy beets, on the other hand, contain multiple sugars, meaning sucrose as well as glucose, fructose and other minor sugars, called invert sugars. To create energy beet hybrids, plant breeders select for traits such as high sugar yield, not just sucrose production. America's first commercial energy beet bio-refinery will be capable of producing 40 million gallons of ethanol annually but the bio-refinery will also bring jobs and investment, putting about 80 beet growers and 35,000 acres back into production."<p><div class="share_submission"> <a class="slashpop" href="http://twitter.com/home?status='Energy+Beet'+Power+Is+Coming+To+America%3A+http%3A%2F%2Fbit.ly%2F14mrdRA"><img src="http://a.fsdn.com/sd/twitter_icon_large.png" /></a> <a class="slashpop" href="http://www.facebook.com/sharer.php?u=http%3A%2F%2Fhardware.slashdot.org%2Fstory%2F13%2F03%2F23%2F2225233%2Fenergy-beet-power-is-coming-to-america%3Futm_source%3Dslashdot%26utm_medium%3Dfacebook"><img src="http://a.fsdn.com/sd/facebook_icon_large.png" /></a> <a class="nobg" href="http://plus.google.com/share?url=http://hardware.slashdot.org/story/13/03/23/2225233/energy-beet-power-is-coming-to-america?utm_source=slashdot&amp;utm_medium=googleplus"><img alt="Share on Google+" src="http://www.gstatic.com/images/icons/gplus-16.png" /></a> </div></p><p><a href="http://hardware.slashdot.org/story/13/03/23/2225233/energy-beet-power-is-coming-to-america?utm_source=rss1.0moreanon&amp;utm_medium=feed">Read more of this story</a> at Slashdot.</p><img border="0" height="1" src="http://slashdot.feedsportal.com/c/35028/f/647410/s/29ed0731/mf.gif" width="1" /><br /><br /><a href="http://da.feedsportal.com/r/161393800863/u/49/f/647410/c/35028/s/29ed0731/a2.htm"><img border="0" src="http://da.feedsportal.com/r/161393800863/u/49/f/647410/c/35028/s/29ed0731/a2.img" /></a><img border="0" height="1" src="http://pi.feedsportal.com/r/161393800863/u/49/f/647410/c/35028/s/29ed0731/a2t.img" width="1" /><img height="1" src="http://feeds.feedburner.com/~r/Slashdot/slashdot/~4/NeHcO9KSi-w" width="1" />
p745
sg55
NstRp746
sg11
g12
((I2013
I3
I24
I12
I24
I0
I6
I83
I0
t(dtRp747
sg14
(lp748
g1
(g2
g3
(dp749
g17
Vhttp://rss.slashdot.org/~r/Slashdot/slashdot/~3/NeHcO9KSi-w/story01.htm
p750
sg19
g20
sg21
g22
stRp751
asg38
(lp752
g1
(g2
g3
(dp753
g41
Vpower
p754
sg43
Nsg44
NstRp755
asS'slash_department'
p756
Vyes-but-do-you-have-a-lobby
p757
sS'feedburner_origlink'
p758
Vhttp://slashdot.feedsportal.com/c/35028/f/647410/s/29ed0731/l/0Lhardware0Bslashdot0Borg0Cstory0C130C0A30C230C22252330Cenergy0Ebeet0Epower0Eis0Ecoming0Eto0Eamerica0Dutm0Isource0Frss10B0Amainlinkanon0Gutm0Imedium0Ffeed/story01.htm
p759
sg7
V2013-03-24T12:24:00Z
p760
sS'slash_section'
p761
Vhardware
p762
sg145
(lp763
g175
aV*
ag176
asg70
(lp764
g1
(g2
g3
(dtRp765
asS'author_detail'
p766
g1
(g2
g3
(dp767
g81
Vtimothy
p768
stRp769
sS'slash_hit_parade'
p770
V5,4,3,2,0,0,0
p771
sg185
Vhttp://slashdot.feedsportal.com/c/35028/f/647410/s/29ed0731/l/0Lhardware0Bslashdot0Borg0Cstory0C130C0A30C230C22252330Cenergy0Ebeet0Epower0Eis0Ecoming0Eto0Eamerica0Dutm0Isource0Frss10B0Amainlinkanon0Gutm0Imedium0Ffeed/story01.htm
p772
sS'slash_comments'
p773
V5
sg92
g12
((I2013
I3
I24
I12
I24
I0
I6
I83
I0
t(dtRp774
sg63
V'Energy Beet' Power Is Coming To America
p775
sg95
g768
sg190
VHugh Pickens writes writes "Gosia Wonzniacka reports that farmers in Fresno County, California, supported by university experts and a $5 million state grant, are set to start construction of the nation's first commercial-scale bio-refinery to turn beets into biofuel with farmers saying the so-called 'energy beets' can deliver ethanol yields more than twice those of corn per acre because beets have a higher sugar content per ton than corn. 'We're trying to reduce greenhouse gas emissions and to shift our transportation fuels to a lower carbon content,' says Robert Weisenmiller. 'The beets have the potential to provide that.' Europe already has more than a dozen such plants, so the bio-refinery would resurrect a crop that has nearly vanished. The birthplace of the sugar beet industry, California once grew over 330,000 acres of the gnarly root vegetable (PDF), with 11 sugar mills processing the beets but as sugar prices collapsed, the mills shut down. So what's the difference between sugar beets and energy beets? To produce table sugar, producers are looking for sucrose, sucrose and more sucrose. Energy beets, on the other hand, contain multiple sugars, meaning sucrose as well as glucose, fructose and other minor sugars, called invert sugars. To create energy beet hybrids, plant breeders select for traits such as high sugar yield, not just sucrose production. America's first commercial energy beet bio-refinery will be capable of producing 40 million gallons of ethanol annually but the bio-refinery will also bring jobs and investment, putting about 80 beet growers and 35,000 acres back into production."<p><div class="share_submission"> <a class="slashpop" href="http://twitter.com/home?status='Energy+Beet'+Power+Is+Coming+To+America\u005c%3A+http\u005c%3A\u005c%2F\u005c%2Fbit.ly\u005c%2F14mrdRA"><img src="http://a.fsdn.com/sd/twitter_icon_large.png" /></a> <a class="slashpop" href="http://www.facebook.com/sharer.php?u=http\u005c%3A\u005c%2F\u005c%2Fhardware.slashdot.org\u005c%2Fstory\u005c%2F13\u005c%2F03\u005c%2F23\u005c%2F2225233\u005c%2Fenergy-beet-power-is-coming-to-america\u005c%3Futm_source\u005c%3Dslashdot\u005c%26utm_medium\u005c%3Dfacebook"><img src="http://a.fsdn.com/sd/facebook_icon_large.png" /></a> <a class="nobg" href="http://plus.google.com/share?url=http://hardware.slashdot.org/story/13/03/23/2225233/energy-beet-power-is-coming-to-america?utm_source=slashdot&amp;utm_medium=googleplus"><img alt="Share on Google+" src="http://www.gstatic.com/images/icons/gplus-16.png" /></a> </div></p><p><a href="http://hardware.slashdot.org/story/13/03/23/2225233/energy-beet-power-is-coming-to-america?utm_source=rss1.0moreanon&amp;utm_medium=feed">Read more of this story</a> at Slashdot.</p><img border="0" height="1" src="http://slashdot.feedsportal.com/c/35028/f/647410/s/29ed0731/mf.gif" width="1" /><br /><br /><a href="http://da.feedsportal.com/r/161393800863/u/49/f/647410/c/35028/s/29ed0731/a2.htm"><img border="0" src="http://da.feedsportal.com/r/161393800863/u/49/f/647410/c/35028/s/29ed0731/a2.img" /></a><img border="0" height="1" src="http://pi.feedsportal.com/r/161393800863/u/49/f/647410/c/35028/s/29ed0731/a2t.img" width="1" /><img height="1" src="http://feeds.feedburner.com/~r/Slashdot/slashdot/~4/NeHcO9KSi-w" width="1" />
p776
sg192
I00
sS'title_detail'
p777
g1
(g2
g3
(dp778
g50
Vhttp://rss.slashdot.org/slashdot/Slashdot
p779
sg19
g52
sg53
g775
sg55
NstRp780
sg107
VSun, 24 Mar 2013 12:24:00 GMT
p781
sg58
g750
stRp782
ag1
(g2
g3
(dp783
S'summary_detail'
p784
g1
(g2
g3
(dp785
g50
Vhttp://rss.slashdot.org/slashdot/Slashdot
p786
sg19
g100
sg53
VAn anonymous reader writes "Seven weeks ago, Dell announced a definitive agreement to be taken private by a group led by founder and CEO Michael Dell and the private equity firm Silver Lake Partners, assisted by a $2 billion loan from Microsoft and debt financing from a group of big banks. The deal was valued at $24.4 billion ($13.65 per share of Dell common stock), but allowed for a 45-day "go shop" period for alternative bids to be submitted to a special committee of Dell's board. Not all large shareholders were happy with the price, and early this month billionaire investor Carl Icahn threatened to tie up the buyout in court unless a large special dividend was paid to shareholders &mdash; without showing interest in buying the company himself. More recently, the private equity firm Blackstone Group jumped into the fray, and by Friday night's deadline both Blackstone and Icahn had submitted bids for Dell exceeding the original $13.65 per share agreement. Blackstone is said to be interested in installing Oracle's Mark Hurd as CEO, replacing Michael Dell. As Hurd was fired as Hewlett Packard's CEO in 2010 for alleged sexual misconduct involving an outside consultant named Jodie Fisher, he might have difficulty landing another CEO job at a publicly traded company; the Dell position could be an intriguing fit for both sides."<p><div class="share_submission"> <a class="slashpop" href="http://twitter.com/home?status=Two+Outside+Bids+For+Dell+Threaten+Founder's+Buyout+Plan%3A+http%3A%2F%2Fbit.ly%2FWO0HM8"><img src="http://a.fsdn.com/sd/twitter_icon_large.png" /></a> <a class="slashpop" href="http://www.facebook.com/sharer.php?u=http%3A%2F%2Fnews.slashdot.org%2Fstory%2F13%2F03%2F24%2F0528228%2Ftwo-outside-bids-for-dell-threaten-founders-buyout-plan%3Futm_source%3Dslashdot%26utm_medium%3Dfacebook"><img src="http://a.fsdn.com/sd/facebook_icon_large.png" /></a> <a class="nobg" href="http://plus.google.com/share?url=http://news.slashdot.org/story/13/03/24/0528228/two-outside-bids-for-dell-threaten-founders-buyout-plan?utm_source=slashdot&amp;utm_medium=googleplus"><img alt="Share on Google+" src="http://www.gstatic.com/images/icons/gplus-16.png" /></a> </div></p><p><a href="http://news.slashdot.org/story/13/03/24/0528228/two-outside-bids-for-dell-threaten-founders-buyout-plan?utm_source=rss1.0moreanon&amp;utm_medium=feed">Read more of this story</a> at Slashdot.</p><img border="0" height="1" src="http://slashdot.feedsportal.com/c/35028/f/647410/s/29ec88f4/mf.gif" width="1" /><br /><br /><a href="http://da.feedsportal.com/r/161393747312/u/49/f/647410/c/35028/s/29ec88f4/a2.htm"><img border="0" src="http://da.feedsportal.com/r/161393747312/u/49/f/647410/c/35028/s/29ec88f4/a2.img" /></a><img border="0" height="1" src="http://pi.feedsportal.com/r/161393747312/u/49/f/647410/c/35028/s/29ec88f4/a2t.img" width="1" /><img height="1" src="http://feeds.feedburner.com/~r/Slashdot/slashdot/~4/MIuw1UTUYmo" width="1" />
p787
sg55
NstRp788
sg11
g12
((I2013
I3
I24
I10
I0
I0
I6
I83
I0
t(dtRp789
sg14
(lp790
g1
(g2
g3
(dp791
g17
Vhttp://rss.slashdot.org/~r/Slashdot/slashdot/~3/MIuw1UTUYmo/story01.htm
p792
sg19
g20
sg21
g22
stRp793
asg38
(lp794
g1
(g2
g3
(dp795
g41
Vmoney
p796
sg43
Nsg44
NstRp797
asS'slash_department'
p798
Vround-rock-rumble
p799
sS'feedburner_origlink'
p800
Vhttp://slashdot.feedsportal.com/c/35028/f/647410/s/29ec88f4/l/0Lnews0Bslashdot0Borg0Cstory0C130C0A30C240C0A5282280Ctwo0Eoutside0Ebids0Efor0Edell0Ethreaten0Efounders0Ebuyout0Eplan0Dutm0Isource0Frss10B0Amainlinkanon0Gutm0Imedium0Ffeed/story01.htm
p801
sg7
V2013-03-24T10:00:00Z
p802
sS'slash_section'
p803
Vnews
p804
sg145
(lp805
g175
aV*
ag176
asg70
(lp806
g1
(g2
g3
(dtRp807
asS'author_detail'
p808
g1
(g2
g3
(dp809
g81
Vtimothy
p810
stRp811
sS'slash_hit_parade'
p812
V1,1,0,0,0,0,0
p813
sg185
Vhttp://slashdot.feedsportal.com/c/35028/f/647410/s/29ec88f4/l/0Lnews0Bslashdot0Borg0Cstory0C130C0A30C240C0A5282280Ctwo0Eoutside0Ebids0Efor0Edell0Ethreaten0Efounders0Ebuyout0Eplan0Dutm0Isource0Frss10B0Amainlinkanon0Gutm0Imedium0Ffeed/story01.htm
p814
sS'slash_comments'
p815
V1
sg92
g12
((I2013
I3
I24
I10
I0
I0
I6
I83
I0
t(dtRp816
sg63
VTwo Outside Bids For Dell Threaten Founder's Buyout Plan
p817
sg95
g810
sg190
VAn anonymous reader writes "Seven weeks ago, Dell announced a definitive agreement to be taken private by a group led by founder and CEO Michael Dell and the private equity firm Silver Lake Partners, assisted by a $2 billion loan from Microsoft and debt financing from a group of big banks. The deal was valued at $24.4 billion ($13.65 per share of Dell common stock), but allowed for a 45-day "go shop" period for alternative bids to be submitted to a special committee of Dell's board. Not all large shareholders were happy with the price, and early this month billionaire investor Carl Icahn threatened to tie up the buyout in court unless a large special dividend was paid to shareholders &mdash; without showing interest in buying the company himself. More recently, the private equity firm Blackstone Group jumped into the fray, and by Friday night's deadline both Blackstone and Icahn had submitted bids for Dell exceeding the original $13.65 per share agreement. Blackstone is said to be interested in installing Oracle's Mark Hurd as CEO, replacing Michael Dell. As Hurd was fired as Hewlett Packard's CEO in 2010 for alleged sexual misconduct involving an outside consultant named Jodie Fisher, he might have difficulty landing another CEO job at a publicly traded company; the Dell position could be an intriguing fit for both sides."<p><div class="share_submission"> <a class="slashpop" href="http://twitter.com/home?status=Two+Outside+Bids+For+Dell+Threaten+Founder's+Buyout+Plan\u005c%3A+http\u005c%3A\u005c%2F\u005c%2Fbit.ly\u005c%2FWO0HM8"><img src="http://a.fsdn.com/sd/twitter_icon_large.png" /></a> <a class="slashpop" href="http://www.facebook.com/sharer.php?u=http\u005c%3A\u005c%2F\u005c%2Fnews.slashdot.org\u005c%2Fstory\u005c%2F13\u005c%2F03\u005c%2F24\u005c%2F0528228\u005c%2Ftwo-outside-bids-for-dell-threaten-founders-buyout-plan\u005c%3Futm_source\u005c%3Dslashdot\u005c%26utm_medium\u005c%3Dfacebook"><img src="http://a.fsdn.com/sd/facebook_icon_large.png" /></a> <a class="nobg" href="http://plus.google.com/share?url=http://news.slashdot.org/story/13/03/24/0528228/two-outside-bids-for-dell-threaten-founders-buyout-plan?utm_source=slashdot&amp;utm_medium=googleplus"><img alt="Share on Google+" src="http://www.gstatic.com/images/icons/gplus-16.png" /></a> </div></p><p><a href="http://news.slashdot.org/story/13/03/24/0528228/two-outside-bids-for-dell-threaten-founders-buyout-plan?utm_source=rss1.0moreanon&amp;utm_medium=feed">Read more of this story</a> at Slashdot.</p><img border="0" height="1" src="http://slashdot.feedsportal.com/c/35028/f/647410/s/29ec88f4/mf.gif" width="1" /><br /><br /><a href="http://da.feedsportal.com/r/161393747312/u/49/f/647410/c/35028/s/29ec88f4/a2.htm"><img border="0" src="http://da.feedsportal.com/r/161393747312/u/49/f/647410/c/35028/s/29ec88f4/a2.img" /></a><img border="0" height="1" src="http://pi.feedsportal.com/r/161393747312/u/49/f/647410/c/35028/s/29ec88f4/a2t.img" width="1" /><img height="1" src="http://feeds.feedburner.com/~r/Slashdot/slashdot/~4/MIuw1UTUYmo" width="1" />
p818
sg192
I00
sS'title_detail'
p819
g1
(g2
g3
(dp820
g50
Vhttp://rss.slashdot.org/slashdot/Slashdot
p821
sg19
g52
sg53
g817
sg55
NstRp822
sg107
VSun, 24 Mar 2013 10:00:00 GMT
p823
sg58
g792
stRp824
ag1
(g2
g3
(dp825
S'summary_detail'
p826
g1
(g2
g3
(dp827
g50
Vhttp://rss.slashdot.org/slashdot/Slashdot
p828
sg19
g100
sg53
VNew submitter cloudozer writes "Virtual servers in the future may stop using OSes entirely. As recently demonstrated OS-less platforms may change our understanding of how long does it take to bring a server up. A demo server gets created, booted up, configured, runs an application and shuts down in under 1 second. Radically lower startup latency means that the computing infrastructure may be woven strictly on demand, during the processing window allotted for a given request. Currently cloud providers round an instance uptime to the full hour when calculating charges. They might need to switch to per-second billing if OS-less instances get traction. The demo uses a new Erlang runtime system capable of running directly on Xen hypervisor."<p><div class="share_submission"> <a class="slashpop" href="http://twitter.com/home?status=A+Glimpse+of+a+Truly+Elastic+Cloud%3A+http%3A%2F%2Fbit.ly%2F169CkeK"><img src="http://a.fsdn.com/sd/twitter_icon_large.png" /></a> <a class="slashpop" href="http://www.facebook.com/sharer.php?u=http%3A%2F%2Ftech.slashdot.org%2Fstory%2F13%2F03%2F24%2F0350217%2Fa-glimpse-of-a-truly-elastic-cloud%3Futm_source%3Dslashdot%26utm_medium%3Dfacebook"><img src="http://a.fsdn.com/sd/facebook_icon_large.png" /></a> <a class="nobg" href="http://plus.google.com/share?url=http://tech.slashdot.org/story/13/03/24/0350217/a-glimpse-of-a-truly-elastic-cloud?utm_source=slashdot&amp;utm_medium=googleplus"><img alt="Share on Google+" src="http://www.gstatic.com/images/icons/gplus-16.png" /></a> </div></p><p><a href="http://tech.slashdot.org/story/13/03/24/0350217/a-glimpse-of-a-truly-elastic-cloud?utm_source=rss1.0moreanon&amp;utm_medium=feed">Read more of this story</a> at Slashdot.</p><img border="0" height="1" src="http://slashdot.feedsportal.com/c/35028/f/647410/s/29eb1034/mf.gif" width="1" /><br /><br /><a href="http://da.feedsportal.com/r/161393933036/u/49/f/647410/c/35028/s/29eb1034/a2.htm"><img border="0" src="http://da.feedsportal.com/r/161393933036/u/49/f/647410/c/35028/s/29eb1034/a2.img" /></a><img border="0" height="1" src="http://pi.feedsportal.com/r/161393933036/u/49/f/647410/c/35028/s/29eb1034/a2t.img" width="1" /><img height="1" src="http://feeds.feedburner.com/~r/Slashdot/slashdot/~4/tVT1i0dUy2U" width="1" />
p829
sg55
NstRp830
sg11
g12
((I2013
I3
I24
I7
I0
I0
I6
I83
I0
t(dtRp831
sg14
(lp832
g1
(g2
g3
(dp833
g17
Vhttp://rss.slashdot.org/~r/Slashdot/slashdot/~3/tVT1i0dUy2U/story01.htm
p834
sg19
g20
sg21
g22
stRp835
asg38
(lp836
g1
(g2
g3
(dp837
g41
Vcloud
p838
sg43
Nsg44
NstRp839
asS'slash_department'
p840
Vnice-to-meet-you-goodbye
p841
sS'feedburner_origlink'
p842
Vhttp://slashdot.feedsportal.com/c/35028/f/647410/s/29eb1034/l/0Ltech0Bslashdot0Borg0Cstory0C130C0A30C240C0A350A2170Ca0Eglimpse0Eof0Ea0Etruly0Eelastic0Ecloud0Dutm0Isource0Frss10B0Amainlinkanon0Gutm0Imedium0Ffeed/story01.htm
p843
sg7
V2013-03-24T07:00:00Z
p844
sS'slash_section'
p845
Vtechnology
p846
sg58
g834
sg70
(lp847
g1
(g2
g3
(dtRp848
asS'author_detail'
p849
g1
(g2
g3
(dp850
g81
Vtimothy
p851
stRp852
sS'slash_hit_parade'
p853
V0,0,0,0,0,0,0
p854
sg185
Vhttp://slashdot.feedsportal.com/c/35028/f/647410/s/29eb1034/l/0Ltech0Bslashdot0Borg0Cstory0C130C0A30C240C0A350A2170Ca0Eglimpse0Eof0Ea0Etruly0Eelastic0Ecloud0Dutm0Isource0Frss10B0Amainlinkanon0Gutm0Imedium0Ffeed/story01.htm
p855
sg92
g12
((I2013
I3
I24
I7
I0
I0
I6
I83
I0
t(dtRp856
sg63
VA Glimpse of a Truly Elastic Cloud
p857
sg95
g851
sg190
VNew submitter cloudozer writes "Virtual servers in the future may stop using OSes entirely. As recently demonstrated OS-less platforms may change our understanding of how long does it take to bring a server up. A demo server gets created, booted up, configured, runs an application and shuts down in under 1 second. Radically lower startup latency means that the computing infrastructure may be woven strictly on demand, during the processing window allotted for a given request. Currently cloud providers round an instance uptime to the full hour when calculating charges. They might need to switch to per-second billing if OS-less instances get traction. The demo uses a new Erlang runtime system capable of running directly on Xen hypervisor."<p><div class="share_submission"> <a class="slashpop" href="http://twitter.com/home?status=A+Glimpse+of+a+Truly+Elastic+Cloud\u005c%3A+http\u005c%3A\u005c%2F\u005c%2Fbit.ly\u005c%2F169CkeK"><img src="http://a.fsdn.com/sd/twitter_icon_large.png" /></a> <a class="slashpop" href="http://www.facebook.com/sharer.php?u=http\u005c%3A\u005c%2F\u005c%2Ftech.slashdot.org\u005c%2Fstory\u005c%2F13\u005c%2F03\u005c%2F24\u005c%2F0350217\u005c%2Fa-glimpse-of-a-truly-elastic-cloud\u005c%3Futm_source\u005c%3Dslashdot\u005c%26utm_medium\u005c%3Dfacebook"><img src="http://a.fsdn.com/sd/facebook_icon_large.png" /></a> <a class="nobg" href="http://plus.google.com/share?url=http://tech.slashdot.org/story/13/03/24/0350217/a-glimpse-of-a-truly-elastic-cloud?utm_source=slashdot&amp;utm_medium=googleplus"><img alt="Share on Google+" src="http://www.gstatic.com/images/icons/gplus-16.png" /></a> </div></p><p><a href="http://tech.slashdot.org/story/13/03/24/0350217/a-glimpse-of-a-truly-elastic-cloud?utm_source=rss1.0moreanon&amp;utm_medium=feed">Read more of this story</a> at Slashdot.</p><img border="0" height="1" src="http://slashdot.feedsportal.com/c/35028/f/647410/s/29eb1034/mf.gif" width="1" /><br /><br /><a href="http://da.feedsportal.com/r/161393933036/u/49/f/647410/c/35028/s/29eb1034/a2.htm"><img border="0" src="http://da.feedsportal.com/r/161393933036/u/49/f/647410/c/35028/s/29eb1034/a2.img" /></a><img border="0" height="1" src="http://pi.feedsportal.com/r/161393933036/u/49/f/647410/c/35028/s/29eb1034/a2t.img" width="1" /><img height="1" src="http://feeds.feedburner.com/~r/Slashdot/slashdot/~4/tVT1i0dUy2U" width="1" />
p858
sg192
I00
sS'title_detail'
p859
g1
(g2
g3
(dp860
g50
Vhttp://rss.slashdot.org/slashdot/Slashdot
p861
sg19
g52
sg53
g857
sg55
NstRp862
sg107
VSun, 24 Mar 2013 07:00:00 GMT
p863
sg145
(lp864
g175
aV*
ag176
astRp865
ag1
(g2
g3
(dp866
S'summary_detail'
p867
g1
(g2
g3
(dp868
g50
Vhttp://rss.slashdot.org/slashdot/Slashdot
p869
sg19
g100
sg53
Vjrepin writes "Coffice is a new project that tries to make KDE's Calligra office suite available on mobile platforms like Android, Blackberry 10, Jolla SailfishOS and Ubuntu Phone. Calligra already has some presence on smartphones, since document viewer on Nokia N9 is based on it. The first release brings Calligra Words viewer for OpenDocument Text documents and is currently available for Android only. Plans for later releases include viewers for spredsheets and presentations. Editing and saving as well as support for proprietary Microsoft Office formats are coming later."<p><div class="share_submission"> <a class="slashpop" href="http://twitter.com/home?status=KDE's+Calligra+Office+Suite+For+Android+Released%3A+http%3A%2F%2Fbit.ly%2FYwLRdm"><img src="http://a.fsdn.com/sd/twitter_icon_large.png" /></a> <a class="slashpop" href="http://www.facebook.com/sharer.php?u=http%3A%2F%2Fmobile.slashdot.org%2Fstory%2F13%2F03%2F24%2F0131205%2Fkdes-calligra-office-suite-for-android-released%3Futm_source%3Dslashdot%26utm_medium%3Dfacebook"><img src="http://a.fsdn.com/sd/facebook_icon_large.png" /></a> <a class="nobg" href="http://plus.google.com/share?url=http://mobile.slashdot.org/story/13/03/24/0131205/kdes-calligra-office-suite-for-android-released?utm_source=slashdot&amp;utm_medium=googleplus"><img alt="Share on Google+" src="http://www.gstatic.com/images/icons/gplus-16.png" /></a> </div></p><p><a href="http://mobile.slashdot.org/story/13/03/24/0131205/kdes-calligra-office-suite-for-android-released?utm_source=rss1.0moreanon&amp;utm_medium=feed">Read more of this story</a> at Slashdot.</p><img border="0" height="1" src="http://slashdot.feedsportal.com/c/35028/f/647410/s/29eaae70/mf.gif" width="1" /><br /><br /><a href="http://da.feedsportal.com/r/161393977570/u/49/f/647410/c/35028/s/29eaae70/a2.htm"><img border="0" src="http://da.feedsportal.com/r/161393977570/u/49/f/647410/c/35028/s/29eaae70/a2.img" /></a><img border="0" height="1" src="http://pi.feedsportal.com/r/161393977570/u/49/f/647410/c/35028/s/29eaae70/a2t.img" width="1" /><img height="1" src="http://feeds.feedburner.com/~r/Slashdot/slashdot/~4/FhTNTVLXiaI" width="1" />
p870
sg55
NstRp871
sg11
g12
((I2013
I3
I24
I3
I58
I0
I6
I83
I0
t(dtRp872
sg14
(lp873
g1
(g2
g3
(dp874
g17
Vhttp://rss.slashdot.org/~r/Slashdot/slashdot/~3/FhTNTVLXiaI/story01.htm
p875
sg19
g20
sg21
g22
stRp876
asg38
(lp877
g1
(g2
g3
(dp878
g41
Vandroid
p879
sg43
Nsg44
NstRp880
asS'slash_department'
p881
Vnose-under-the-tent
p882
sS'feedburner_origlink'
p883
Vhttp://slashdot.feedsportal.com/c/35028/f/647410/s/29eaae70/l/0Lmobile0Bslashdot0Borg0Cstory0C130C0A30C240C0A13120A50Ckdes0Ecalligra0Eoffice0Esuite0Efor0Eandroid0Ereleased0Dutm0Isource0Frss10B0Amainlinkanon0Gutm0Imedium0Ffeed/story01.htm
p884
sg7
V2013-03-24T03:58:00Z
p885
sS'slash_section'
p886
Vmobile
p887
sg145
(lp888
g175
aV*
ag176
asg70
(lp889
g1
(g2
g3
(dtRp890
asS'author_detail'
p891
g1
(g2
g3
(dp892
g81
Vtimothy
p893
stRp894
sS'slash_hit_parade'
p895
V3,2,0,0,0,0,0
p896
sg185
Vhttp://slashdot.feedsportal.com/c/35028/f/647410/s/29eaae70/l/0Lmobile0Bslashdot0Borg0Cstory0C130C0A30C240C0A13120A50Ckdes0Ecalligra0Eoffice0Esuite0Efor0Eandroid0Ereleased0Dutm0Isource0Frss10B0Amainlinkanon0Gutm0Imedium0Ffeed/story01.htm
p897
sS'slash_comments'
p898
V3
sg92
g12
((I2013
I3
I24
I3
I58
I0
I6
I83
I0
t(dtRp899
sg63
VKDE's Calligra Office Suite For Android Released
p900
sg95
g893
sg190
Vjrepin writes "Coffice is a new project that tries to make KDE's Calligra office suite available on mobile platforms like Android, Blackberry 10, Jolla SailfishOS and Ubuntu Phone. Calligra already has some presence on smartphones, since document viewer on Nokia N9 is based on it. The first release brings Calligra Words viewer for OpenDocument Text documents and is currently available for Android only. Plans for later releases include viewers for spredsheets and presentations. Editing and saving as well as support for proprietary Microsoft Office formats are coming later."<p><div class="share_submission"> <a class="slashpop" href="http://twitter.com/home?status=KDE's+Calligra+Office+Suite+For+Android+Released\u005c%3A+http\u005c%3A\u005c%2F\u005c%2Fbit.ly\u005c%2FYwLRdm"><img src="http://a.fsdn.com/sd/twitter_icon_large.png" /></a> <a class="slashpop" href="http://www.facebook.com/sharer.php?u=http\u005c%3A\u005c%2F\u005c%2Fmobile.slashdot.org\u005c%2Fstory\u005c%2F13\u005c%2F03\u005c%2F24\u005c%2F0131205\u005c%2Fkdes-calligra-office-suite-for-android-released\u005c%3Futm_source\u005c%3Dslashdot\u005c%26utm_medium\u005c%3Dfacebook"><img src="http://a.fsdn.com/sd/facebook_icon_large.png" /></a> <a class="nobg" href="http://plus.google.com/share?url=http://mobile.slashdot.org/story/13/03/24/0131205/kdes-calligra-office-suite-for-android-released?utm_source=slashdot&amp;utm_medium=googleplus"><img alt="Share on Google+" src="http://www.gstatic.com/images/icons/gplus-16.png" /></a> </div></p><p><a href="http://mobile.slashdot.org/story/13/03/24/0131205/kdes-calligra-office-suite-for-android-released?utm_source=rss1.0moreanon&amp;utm_medium=feed">Read more of this story</a> at Slashdot.</p><img border="0" height="1" src="http://slashdot.feedsportal.com/c/35028/f/647410/s/29eaae70/mf.gif" width="1" /><br /><br /><a href="http://da.feedsportal.com/r/161393977570/u/49/f/647410/c/35028/s/29eaae70/a2.htm"><img border="0" src="http://da.feedsportal.com/r/161393977570/u/49/f/647410/c/35028/s/29eaae70/a2.img" /></a><img border="0" height="1" src="http://pi.feedsportal.com/r/161393977570/u/49/f/647410/c/35028/s/29eaae70/a2t.img" width="1" /><img height="1" src="http://feeds.feedburner.com/~r/Slashdot/slashdot/~4/FhTNTVLXiaI" width="1" />
p901
sg192
I00
sS'title_detail'
p902
g1
(g2
g3
(dp903
g50
Vhttp://rss.slashdot.org/slashdot/Slashdot
p904
sg19
g52
sg53
g900
sg55
NstRp905
sg107
VSun, 24 Mar 2013 03:58:00 GMT
p906
sg58
g875
stRp907
ag1
(g2
g3
(dp908
S'summary_detail'
p909
g1
(g2
g3
(dp910
g50
Vhttp://rss.slashdot.org/slashdot/Slashdot
p911
sg19
g100
sg53
Vjrepin writes "Free Software Foundation president Richard M. Stallman announced the winners of the FSF's annual Free Software Awards at a ceremony held during the LibrePlanet 2013 conference. The Award for the Advancement of Free Software is given annually to an individual who has made a great contribution to the progress and development of free software, through activities that accord with the spirit of free software. This year, it was given to Dr. Fernando Perez, the creator of IPython, a rich architecture for interactive computing. The Award for Projects of Social Benefit is presented to the project or team responsible for applying free software, or the ideas of the free software movement, in a project that intentionally and significantly benefits society in other aspects of life. This award stresses the use of free software in the service of humanity. This year, the award went to OpenMRS, a free software medical record system for developing countries."<p><div class="share_submission"> <a class="slashpop" href="http://twitter.com/home?status=+2012+Free+Software+Award+Winners+Announced%3A+http%3A%2F%2Fbit.ly%2F16QqEPn"><img src="http://a.fsdn.com/sd/twitter_icon_large.png" /></a> <a class="slashpop" href="http://www.facebook.com/sharer.php?u=http%3A%2F%2Fdevelopers.slashdot.org%2Fstory%2F13%2F03%2F24%2F0053214%2F2012-free-software-award-winners-announced%3Futm_source%3Dslashdot%26utm_medium%3Dfacebook"><img src="http://a.fsdn.com/sd/facebook_icon_large.png" /></a> <a class="nobg" href="http://plus.google.com/share?url=http://developers.slashdot.org/story/13/03/24/0053214/2012-free-software-award-winners-announced?utm_source=slashdot&amp;utm_medium=googleplus"><img alt="Share on Google+" src="http://www.gstatic.com/images/icons/gplus-16.png" /></a> </div></p><p><a href="http://developers.slashdot.org/story/13/03/24/0053214/2012-free-software-award-winners-announced?utm_source=rss1.0moreanon&amp;utm_medium=feed">Read more of this story</a> at Slashdot.</p><img border="0" height="1" src="http://slashdot.feedsportal.com/c/35028/f/647410/s/29ea8c0d/mf.gif" width="1" /><br /><br /><a href="http://da.feedsportal.com/r/161393929670/u/49/f/647410/c/35028/s/29ea8c0d/a2.htm"><img border="0" src="http://da.feedsportal.com/r/161393929670/u/49/f/647410/c/35028/s/29ea8c0d/a2.img" /></a><img border="0" height="1" src="http://pi.feedsportal.com/r/161393929670/u/49/f/647410/c/35028/s/29ea8c0d/a2t.img" width="1" /><img height="1" src="http://feeds.feedburner.com/~r/Slashdot/slashdot/~4/h-4Jd5fcDRM" width="1" />
p912
sg55
NstRp913
sg11
g12
((I2013
I3
I24
I1
I7
I0
I6
I83
I0
t(dtRp914
sg14
(lp915
g1
(g2
g3
(dp916
g17
Vhttp://rss.slashdot.org/~r/Slashdot/slashdot/~3/h-4Jd5fcDRM/story01.htm
p917
sg19
g20
sg21
g22
stRp918
asg38
(lp919
g1
(g2
g3
(dp920
g41
Vgnu
p921
sg43
Nsg44
NstRp922
asS'slash_department'
p923
Vanagram-was-a-good-strategy
p924
sS'feedburner_origlink'
p925
Vhttp://slashdot.feedsportal.com/c/35028/f/647410/s/29ea8c0d/l/0Ldevelopers0Bslashdot0Borg0Cstory0C130C0A30C240C0A0A532140C20A120Efree0Esoftware0Eaward0Ewinners0Eannounced0Dutm0Isource0Frss10B0Amainlinkanon0Gutm0Imedium0Ffeed/story01.htm
p926
sg7
V2013-03-24T01:07:00Z
p927
sS'slash_section'
p928
Vdevelopers
p929
sg145
(lp930
g175
aV*
ag176
asg70
(lp931
g1
(g2
g3
(dtRp932
asS'author_detail'
p933
g1
(g2
g3
(dp934
g81
Vtimothy
p935
stRp936
sS'slash_hit_parade'
p937
V2,2,0,0,0,0,0
p938
sg185
Vhttp://slashdot.feedsportal.com/c/35028/f/647410/s/29ea8c0d/l/0Ldevelopers0Bslashdot0Borg0Cstory0C130C0A30C240C0A0A532140C20A120Efree0Esoftware0Eaward0Ewinners0Eannounced0Dutm0Isource0Frss10B0Amainlinkanon0Gutm0Imedium0Ffeed/story01.htm
p939
sS'slash_comments'
p940
V2
sg92
g12
((I2013
I3
I24
I1
I7
I0
I6
I83
I0
t(dtRp941
sg63
V2012 Free Software Award Winners Announced
p942
sg95
g935
sg190
Vjrepin writes "Free Software Foundation president Richard M. Stallman announced the winners of the FSF's annual Free Software Awards at a ceremony held during the LibrePlanet 2013 conference. The Award for the Advancement of Free Software is given annually to an individual who has made a great contribution to the progress and development of free software, through activities that accord with the spirit of free software. This year, it was given to Dr. Fernando Perez, the creator of IPython, a rich architecture for interactive computing. The Award for Projects of Social Benefit is presented to the project or team responsible for applying free software, or the ideas of the free software movement, in a project that intentionally and significantly benefits society in other aspects of life. This award stresses the use of free software in the service of humanity. This year, the award went to OpenMRS, a free software medical record system for developing countries."<p><div class="share_submission"> <a class="slashpop" href="http://twitter.com/home?status=+2012+Free+Software+Award+Winners+Announced\u005c%3A+http\u005c%3A\u005c%2F\u005c%2Fbit.ly\u005c%2F16QqEPn"><img src="http://a.fsdn.com/sd/twitter_icon_large.png" /></a> <a class="slashpop" href="http://www.facebook.com/sharer.php?u=http\u005c%3A\u005c%2F\u005c%2Fdevelopers.slashdot.org\u005c%2Fstory\u005c%2F13\u005c%2F03\u005c%2F24\u005c%2F0053214\u005c%2F2012-free-software-award-winners-announced\u005c%3Futm_source\u005c%3Dslashdot\u005c%26utm_medium\u005c%3Dfacebook"><img src="http://a.fsdn.com/sd/facebook_icon_large.png" /></a> <a class="nobg" href="http://plus.google.com/share?url=http://developers.slashdot.org/story/13/03/24/0053214/2012-free-software-award-winners-announced?utm_source=slashdot&amp;utm_medium=googleplus"><img alt="Share on Google+" src="http://www.gstatic.com/images/icons/gplus-16.png" /></a> </div></p><p><a href="http://developers.slashdot.org/story/13/03/24/0053214/2012-free-software-award-winners-announced?utm_source=rss1.0moreanon&amp;utm_medium=feed">Read more of this story</a> at Slashdot.</p><img border="0" height="1" src="http://slashdot.feedsportal.com/c/35028/f/647410/s/29ea8c0d/mf.gif" width="1" /><br /><br /><a href="http://da.feedsportal.com/r/161393929670/u/49/f/647410/c/35028/s/29ea8c0d/a2.htm"><img border="0" src="http://da.feedsportal.com/r/161393929670/u/49/f/647410/c/35028/s/29ea8c0d/a2.img" /></a><img border="0" height="1" src="http://pi.feedsportal.com/r/161393929670/u/49/f/647410/c/35028/s/29ea8c0d/a2t.img" width="1" /><img height="1" src="http://feeds.feedburner.com/~r/Slashdot/slashdot/~4/h-4Jd5fcDRM" width="1" />
p943
sg192
I00
sS'title_detail'
p944
g1
(g2
g3
(dp945
g50
Vhttp://rss.slashdot.org/slashdot/Slashdot
p946
sg19
g52
sg53
g942
sg55
NstRp947
sg107
VSun, 24 Mar 2013 01:07:00 GMT
p948
sg58
g917
stRp949
ag1
(g2
g3
(dp950
S'summary_detail'
p951
g1
(g2
g3
(dp952
g50
Vhttp://rss.slashdot.org/slashdot/Slashdot
p953
sg19
g100
sg53
Vcrankyspice writes "The federal Ninth Circuit Court of Appeals recently affirmed, in Columbia Pictures Industries v. Fung (docket no. 10-55946), the summary judgment and injunctions against Gary Fung and his IsoHunt (and 3d2k-it) websites, finding liability for secondary copyright infringement for the sites' users' BitTorrent (and eDonkey) file sharing, under the 'inducement' theory (set forth by the Supreme Court in Metro-Goldwyn-Mayer Studios, Inc. v. Grokster Ltd. , 545 U.S. 913 (2005)). The injunctions were left largely intact, with modifications required to make it more clear to the defendants what BitTorrent (etc) related activity they're enjoined from." Bloomberg has a short article on the case, too.<p><div class="share_submission"> <a class="slashpop" href="http://twitter.com/home?status=9th+Circuit+Affirms+IsoHunt+Decision%3B+No+DMCA+Safe+Harbor%3A+http%3A%2F%2Fbit.ly%2F11vNHuQ"><img src="http://a.fsdn.com/sd/twitter_icon_large.png" /></a> <a class="slashpop" href="http://www.facebook.com/sharer.php?u=http%3A%2F%2Fyro.slashdot.org%2Fstory%2F13%2F03%2F23%2F2350211%2F9th-circuit-affirms-isohunt-decision-no-dmca-safe-harbor%3Futm_source%3Dslashdot%26utm_medium%3Dfacebook"><img src="http://a.fsdn.com/sd/facebook_icon_large.png" /></a> <a class="nobg" href="http://plus.google.com/share?url=http://yro.slashdot.org/story/13/03/23/2350211/9th-circuit-affirms-isohunt-decision-no-dmca-safe-harbor?utm_source=slashdot&amp;utm_medium=googleplus"><img alt="Share on Google+" src="http://www.gstatic.com/images/icons/gplus-16.png" /></a> </div></p><p><a href="http://yro.slashdot.org/story/13/03/23/2350211/9th-circuit-affirms-isohunt-decision-no-dmca-safe-harbor?utm_source=rss1.0moreanon&amp;utm_medium=feed">Read more of this story</a> at Slashdot.</p><img border="0" height="1" src="http://slashdot.feedsportal.com/c/35028/f/647410/s/29ea4436/mf.gif" width="1" /><br /><br /><a href="http://da.feedsportal.com/r/161393739239/u/49/f/647410/c/35028/s/29ea4436/a2.htm"><img border="0" src="http://da.feedsportal.com/r/161393739239/u/49/f/647410/c/35028/s/29ea4436/a2.img" /></a><img border="0" height="1" src="http://pi.feedsportal.com/r/161393739239/u/49/f/647410/c/35028/s/29ea4436/a2t.img" width="1" /><img height="1" src="http://feeds.feedburner.com/~r/Slashdot/slashdot/~4/Z6cx1FPsRN0" width="1" />
p954
sg55
NstRp955
sg11
g12
((I2013
I3
I23
I23
I49
I0
I5
I82
I0
t(dtRp956
sg14
(lp957
g1
(g2
g3
(dp958
g17
Vhttp://rss.slashdot.org/~r/Slashdot/slashdot/~3/Z6cx1FPsRN0/story01.htm
p959
sg19
g20
sg21
g22
stRp960
asg38
(lp961
g1
(g2
g3
(dp962
g41
Vcourt
p963
sg43
Nsg44
NstRp964
asS'slash_department'
p965
Vdisproportion-nation
p966
sS'feedburner_origlink'
p967
Vhttp://slashdot.feedsportal.com/c/35028/f/647410/s/29ea4436/l/0Lyro0Bslashdot0Borg0Cstory0C130C0A30C230C2350A2110C9th0Ecircuit0Eaffirms0Eisohunt0Edecision0Eno0Edmca0Esafe0Eharbor0Dutm0Isource0Frss10B0Amainlinkanon0Gutm0Imedium0Ffeed/story01.htm
p968
sg7
V2013-03-23T23:49:00Z
p969
sS'slash_section'
p970
Vyro
p971
sg58
g959
sg70
(lp972
g1
(g2
g3
(dtRp973
asS'author_detail'
p974
g1
(g2
g3
(dp975
g81
Vtimothy
p976
stRp977
sS'slash_hit_parade'
p978
V0,0,0,0,0,0,0
p979
sg185
Vhttp://slashdot.feedsportal.com/c/35028/f/647410/s/29ea4436/l/0Lyro0Bslashdot0Borg0Cstory0C130C0A30C230C2350A2110C9th0Ecircuit0Eaffirms0Eisohunt0Edecision0Eno0Edmca0Esafe0Eharbor0Dutm0Isource0Frss10B0Amainlinkanon0Gutm0Imedium0Ffeed/story01.htm
p980
sg92
g12
((I2013
I3
I23
I23
I49
I0
I5
I82
I0
t(dtRp981
sg63
V9th Circuit Affirms IsoHunt Decision; No DMCA Safe Harbor
p982
sg95
g976
sg190
Vcrankyspice writes "The federal Ninth Circuit Court of Appeals recently affirmed, in Columbia Pictures Industries v. Fung (docket no. 10-55946), the summary judgment and injunctions against Gary Fung and his IsoHunt (and 3d2k-it) websites, finding liability for secondary copyright infringement for the sites' users' BitTorrent (and eDonkey) file sharing, under the 'inducement' theory (set forth by the Supreme Court in Metro-Goldwyn-Mayer Studios, Inc. v. Grokster Ltd. , 545 U.S. 913 (2005)). The injunctions were left largely intact, with modifications required to make it more clear to the defendants what BitTorrent (etc) related activity they're enjoined from." Bloomberg has a short article on the case, too.<p><div class="share_submission"> <a class="slashpop" href="http://twitter.com/home?status=9th+Circuit+Affirms+IsoHunt+Decision\u005c%3B+No+DMCA+Safe+Harbor\u005c%3A+http\u005c%3A\u005c%2F\u005c%2Fbit.ly\u005c%2F11vNHuQ"><img src="http://a.fsdn.com/sd/twitter_icon_large.png" /></a> <a class="slashpop" href="http://www.facebook.com/sharer.php?u=http\u005c%3A\u005c%2F\u005c%2Fyro.slashdot.org\u005c%2Fstory\u005c%2F13\u005c%2F03\u005c%2F23\u005c%2F2350211\u005c%2F9th-circuit-affirms-isohunt-decision-no-dmca-safe-harbor\u005c%3Futm_source\u005c%3Dslashdot\u005c%26utm_medium\u005c%3Dfacebook"><img src="http://a.fsdn.com/sd/facebook_icon_large.png" /></a> <a class="nobg" href="http://plus.google.com/share?url=http://yro.slashdot.org/story/13/03/23/2350211/9th-circuit-affirms-isohunt-decision-no-dmca-safe-harbor?utm_source=slashdot&amp;utm_medium=googleplus"><img alt="Share on Google+" src="http://www.gstatic.com/images/icons/gplus-16.png" /></a> </div></p><p><a href="http://yro.slashdot.org/story/13/03/23/2350211/9th-circuit-affirms-isohunt-decision-no-dmca-safe-harbor?utm_source=rss1.0moreanon&amp;utm_medium=feed">Read more of this story</a> at Slashdot.</p><img border="0" height="1" src="http://slashdot.feedsportal.com/c/35028/f/647410/s/29ea4436/mf.gif" width="1" /><br /><br /><a href="http://da.feedsportal.com/r/161393739239/u/49/f/647410/c/35028/s/29ea4436/a2.htm"><img border="0" src="http://da.feedsportal.com/r/161393739239/u/49/f/647410/c/35028/s/29ea4436/a2.img" /></a><img border="0" height="1" src="http://pi.feedsportal.com/r/161393739239/u/49/f/647410/c/35028/s/29ea4436/a2t.img" width="1" /><img height="1" src="http://feeds.feedburner.com/~r/Slashdot/slashdot/~4/Z6cx1FPsRN0" width="1" />
p983
sg192
I00
sS'title_detail'
p984
g1
(g2
g3
(dp985
g50
Vhttp://rss.slashdot.org/slashdot/Slashdot
p986
sg19
g52
sg53
g982
sg55
NstRp987
sg107
VSat, 23 Mar 2013 23:49:00 GMT
p988
sg145
(lp989
g175
aV*
ag176
astRp990
ag1
(g2
g3
(dp991
S'summary_detail'
p992
g1
(g2
g3
(dp993
g50
Vhttp://rss.slashdot.org/slashdot/Slashdot
p994
sg19
g100
sg53
VAn anonymous reader writes "Google just settled video codec patent claims with MPEG LA and its VP8 format, which it wants to be elevated to an Internet standard, already faces the next round of patent infringement allegations. Nokia submitted an IPR declaration to the Internet Engineering Task Force listing 64 issued patents and 22 pending patent applications it believes are essential to VP8. To add insult to injury, Nokia's declaration to the IETF says NO to royalty-free licensing and also NO to FRAND (fair, reasonable and non-discriminatory) licensing. Nokia reserves the right to sue over VP8 and to seek sales bans without necessarily negotiating a license deal. Two of the 86 declared IPRs are already being asserted in Mannheim, Germany, where Nokia is suing HTC in numerous patent infringement cases. A first VP8-related trial took place on March 8 and the next one is scheduled for June 14. In related Nokia-Google patent news, the Finns are trying to obtain a U.S. import ban against HTC to force it to disable tethering (or, more likely, to pay up)."<p><div class="share_submission"> <a class="slashpop" href="http://twitter.com/home?status=Nokia+Officially+Lists+Patents+Google's+VP8+Allegedly+Infringes%3A+http%3A%2F%2Fbit.ly%2FZWPN5O"><img src="http://a.fsdn.com/sd/twitter_icon_large.png" /></a> <a class="slashpop" href="http://www.facebook.com/sharer.php?u=http%3A%2F%2Ftech.slashdot.org%2Fstory%2F13%2F03%2F23%2F2242231%2Fnokia-officially-lists-patents-googles-vp8-allegedly-infringes%3Futm_source%3Dslashdot%26utm_medium%3Dfacebook"><img src="http://a.fsdn.com/sd/facebook_icon_large.png" /></a> <a class="nobg" href="http://plus.google.com/share?url=http://tech.slashdot.org/story/13/03/23/2242231/nokia-officially-lists-patents-googles-vp8-allegedly-infringes?utm_source=slashdot&amp;utm_medium=googleplus"><img alt="Share on Google+" src="http://www.gstatic.com/images/icons/gplus-16.png" /></a> </div></p><p><a href="http://tech.slashdot.org/story/13/03/23/2242231/nokia-officially-lists-patents-googles-vp8-allegedly-infringes?utm_source=rss1.0moreanon&amp;utm_medium=feed">Read more of this story</a> at Slashdot.</p><img border="0" height="1" src="http://slashdot.feedsportal.com/c/35028/f/647410/s/29ea2a07/mf.gif" width="1" /><br /><br /><a href="http://da.feedsportal.com/r/161393974047/u/49/f/647410/c/35028/s/29ea2a07/a2.htm"><img border="0" src="http://da.feedsportal.com/r/161393974047/u/49/f/647410/c/35028/s/29ea2a07/a2.img" /></a><img border="0" height="1" src="http://pi.feedsportal.com/r/161393974047/u/49/f/647410/c/35028/s/29ea2a07/a2t.img" width="1" /><img height="1" src="http://feeds.feedburner.com/~r/Slashdot/slashdot/~4/F_Bg20I23vQ" width="1" />
p995
sg55
NstRp996
sg11
g12
((I2013
I3
I23
I22
I42
I0
I5
I82
I0
t(dtRp997
sg14
(lp998
g1
(g2
g3
(dp999
g17
Vhttp://rss.slashdot.org/~r/Slashdot/slashdot/~3/F_Bg20I23vQ/story01.htm
p1000
sg19
g20
sg21
g22
stRp1001
asg38
(lp1002
g1
(g2
g3
(dp1003
g41
Vgoogle
p1004
sg43
Nsg44
NstRp1005
asS'slash_department'
p1006
Vbroken-system-is-broken
p1007
sS'feedburner_origlink'
p1008
Vhttp://slashdot.feedsportal.com/c/35028/f/647410/s/29ea2a07/l/0Ltech0Bslashdot0Borg0Cstory0C130C0A30C230C22422310Cnokia0Eofficially0Elists0Epatents0Egoogles0Evp80Eallegedly0Einfringes0Dutm0Isource0Frss10B0Amainlinkanon0Gutm0Imedium0Ffeed/story01.htm
p1009
sg7
V2013-03-23T22:42:00Z
p1010
sS'slash_section'
p1011
Vtechnology
p1012
sg145
(lp1013
g175
aV*
ag176
asg70
(lp1014
g1
(g2
g3
(dtRp1015
asS'author_detail'
p1016
g1
(g2
g3
(dp1017
g81
Vtimothy
p1018
stRp1019
sS'slash_hit_parade'
p1020
V5,5,3,3,1,0,0
p1021
sg185
Vhttp://slashdot.feedsportal.com/c/35028/f/647410/s/29ea2a07/l/0Ltech0Bslashdot0Borg0Cstory0C130C0A30C230C22422310Cnokia0Eofficially0Elists0Epatents0Egoogles0Evp80Eallegedly0Einfringes0Dutm0Isource0Frss10B0Amainlinkanon0Gutm0Imedium0Ffeed/story01.htm
p1022
sS'slash_comments'
p1023
V5
sg92
g12
((I2013
I3
I23
I22
I42
I0
I5
I82
I0
t(dtRp1024
sg63
VNokia Officially Lists Patents Google's VP8 Allegedly Infringes
p1025
sg95
g1018
sg190
VAn anonymous reader writes "Google just settled video codec patent claims with MPEG LA and its VP8 format, which it wants to be elevated to an Internet standard, already faces the next round of patent infringement allegations. Nokia submitted an IPR declaration to the Internet Engineering Task Force listing 64 issued patents and 22 pending patent applications it believes are essential to VP8. To add insult to injury, Nokia's declaration to the IETF says NO to royalty-free licensing and also NO to FRAND (fair, reasonable and non-discriminatory) licensing. Nokia reserves the right to sue over VP8 and to seek sales bans without necessarily negotiating a license deal. Two of the 86 declared IPRs are already being asserted in Mannheim, Germany, where Nokia is suing HTC in numerous patent infringement cases. A first VP8-related trial took place on March 8 and the next one is scheduled for June 14. In related Nokia-Google patent news, the Finns are trying to obtain a U.S. import ban against HTC to force it to disable tethering (or, more likely, to pay up)."<p><div class="share_submission"> <a class="slashpop" href="http://twitter.com/home?status=Nokia+Officially+Lists+Patents+Google's+VP8+Allegedly+Infringes\u005c%3A+http\u005c%3A\u005c%2F\u005c%2Fbit.ly\u005c%2FZWPN5O"><img src="http://a.fsdn.com/sd/twitter_icon_large.png" /></a> <a class="slashpop" href="http://www.facebook.com/sharer.php?u=http\u005c%3A\u005c%2F\u005c%2Ftech.slashdot.org\u005c%2Fstory\u005c%2F13\u005c%2F03\u005c%2F23\u005c%2F2242231\u005c%2Fnokia-officially-lists-patents-googles-vp8-allegedly-infringes\u005c%3Futm_source\u005c%3Dslashdot\u005c%26utm_medium\u005c%3Dfacebook"><img src="http://a.fsdn.com/sd/facebook_icon_large.png" /></a> <a class="nobg" href="http://plus.google.com/share?url=http://tech.slashdot.org/story/13/03/23/2242231/nokia-officially-lists-patents-googles-vp8-allegedly-infringes?utm_source=slashdot&amp;utm_medium=googleplus"><img alt="Share on Google+" src="http://www.gstatic.com/images/icons/gplus-16.png" /></a> </div></p><p><a href="http://tech.slashdot.org/story/13/03/23/2242231/nokia-officially-lists-patents-googles-vp8-allegedly-infringes?utm_source=rss1.0moreanon&amp;utm_medium=feed">Read more of this story</a> at Slashdot.</p><img border="0" height="1" src="http://slashdot.feedsportal.com/c/35028/f/647410/s/29ea2a07/mf.gif" width="1" /><br /><br /><a href="http://da.feedsportal.com/r/161393974047/u/49/f/647410/c/35028/s/29ea2a07/a2.htm"><img border="0" src="http://da.feedsportal.com/r/161393974047/u/49/f/647410/c/35028/s/29ea2a07/a2.img" /></a><img border="0" height="1" src="http://pi.feedsportal.com/r/161393974047/u/49/f/647410/c/35028/s/29ea2a07/a2t.img" width="1" /><img height="1" src="http://feeds.feedburner.com/~r/Slashdot/slashdot/~4/F_Bg20I23vQ" width="1" />
p1026
sg192
I00
sS'title_detail'
p1027
g1
(g2
g3
(dp1028
g50
Vhttp://rss.slashdot.org/slashdot/Slashdot
p1029
sg19
g52
sg53
g1025
sg55
NstRp1030
sg107
VSat, 23 Mar 2013 22:42:00 GMT
p1031
sg58
g1000
stRp1032
ag1
(g2
g3
(dp1033
S'summary_detail'
p1034
g1
(g2
g3
(dp1035
g50
Vhttp://rss.slashdot.org/slashdot/Slashdot
p1036
sg19
g100
sg53
VNew submitter terrywo5 writes "A new driver-less robotic car nicknamed ROPITS was revealed recently by Hitachi in the city of Tsukuba. This tiny robotic car uses GPS to transport its single passenger, and it can be programmed to pick up and drop passengers automatically. Check this article and video to learn more about this car."<p><div class="share_submission"> <a class="slashpop" href="http://twitter.com/home?status=Hitachi's+Tiny+Robo-Taxi+Carries+1+Passenger+and+No+Driver%3A+http%3A%2F%2Fbit.ly%2FZJOnMQ"><img src="http://a.fsdn.com/sd/twitter_icon_large.png" /></a> <a class="slashpop" href="http://www.facebook.com/sharer.php?u=http%3A%2F%2Ftech.slashdot.org%2Fstory%2F13%2F03%2F23%2F2136248%2Fhitachis-tiny-robo-taxi-carries-1-passenger-and-no-driver%3Futm_source%3Dslashdot%26utm_medium%3Dfacebook"><img src="http://a.fsdn.com/sd/facebook_icon_large.png" /></a> <a class="nobg" href="http://plus.google.com/share?url=http://tech.slashdot.org/story/13/03/23/2136248/hitachis-tiny-robo-taxi-carries-1-passenger-and-no-driver?utm_source=slashdot&amp;utm_medium=googleplus"><img alt="Share on Google+" src="http://www.gstatic.com/images/icons/gplus-16.png" /></a> </div></p><p><a href="http://tech.slashdot.org/story/13/03/23/2136248/hitachis-tiny-robo-taxi-carries-1-passenger-and-no-driver?utm_source=rss1.0moreanon&amp;utm_medium=feed">Read more of this story</a> at Slashdot.</p><img border="0" height="1" src="http://slashdot.feedsportal.com/c/35028/f/647410/s/29e96364/mf.gif" width="1" /><br /><br /><a href="http://da.feedsportal.com/r/161393788883/u/49/f/647410/c/35028/s/29e96364/a2.htm"><img border="0" src="http://da.feedsportal.com/r/161393788883/u/49/f/647410/c/35028/s/29e96364/a2.img" /></a><img border="0" height="1" src="http://pi.feedsportal.com/r/161393788883/u/49/f/647410/c/35028/s/29e96364/a2t.img" width="1" /><img height="1" src="http://feeds.feedburner.com/~r/Slashdot/slashdot/~4/j8JGyU4g9ZY" width="1" />
p1037
sg55
NstRp1038
sg11
g12
((I2013
I3
I23
I21
I37
I0
I5
I82
I0
t(dtRp1039
sg14
(lp1040
g1
(g2
g3
(dp1041
g17
Vhttp://rss.slashdot.org/~r/Slashdot/slashdot/~3/j8JGyU4g9ZY/story01.htm
p1042
sg19
g20
sg21
g22
stRp1043
asg38
(lp1044
g1
(g2
g3
(dp1045
g41
Vjapan
p1046
sg43
Nsg44
NstRp1047
asS'slash_department'
p1048
Vperfect-for-class-reunion-showoffs
p1049
sS'feedburner_origlink'
p1050
Vhttp://slashdot.feedsportal.com/c/35028/f/647410/s/29e96364/l/0Ltech0Bslashdot0Borg0Cstory0C130C0A30C230C21362480Chitachis0Etiny0Erobo0Etaxi0Ecarries0E10Epassenger0Eand0Eno0Edriver0Dutm0Isource0Frss10B0Amainlinkanon0Gutm0Imedium0Ffeed/story01.htm
p1051
sg7
V2013-03-23T21:37:00Z
p1052
sS'slash_section'
p1053
Vtechnology
p1054
sg58
g1042
sg70
(lp1055
g1
(g2
g3
(dtRp1056
asS'author_detail'
p1057
g1
(g2
g3
(dp1058
g81
Vtimothy
p1059
stRp1060
sS'slash_hit_parade'
p1061
V0,0,0,0,0,0,0
p1062
sg185
Vhttp://slashdot.feedsportal.com/c/35028/f/647410/s/29e96364/l/0Ltech0Bslashdot0Borg0Cstory0C130C0A30C230C21362480Chitachis0Etiny0Erobo0Etaxi0Ecarries0E10Epassenger0Eand0Eno0Edriver0Dutm0Isource0Frss10B0Amainlinkanon0Gutm0Imedium0Ffeed/story01.htm
p1063
sg92
g12
((I2013
I3
I23
I21
I37
I0
I5
I82
I0
t(dtRp1064
sg63
VHitachi's Tiny Robo-Taxi Carries 1 Passenger and No Driver
p1065
sg95
g1059
sg190
VNew submitter terrywo5 writes "A new driver-less robotic car nicknamed ROPITS was revealed recently by Hitachi in the city of Tsukuba. This tiny robotic car uses GPS to transport its single passenger, and it can be programmed to pick up and drop passengers automatically. Check this article and video to learn more about this car."<p><div class="share_submission"> <a class="slashpop" href="http://twitter.com/home?status=Hitachi's+Tiny+Robo-Taxi+Carries+1+Passenger+and+No+Driver\u005c%3A+http\u005c%3A\u005c%2F\u005c%2Fbit.ly\u005c%2FZJOnMQ"><img src="http://a.fsdn.com/sd/twitter_icon_large.png" /></a> <a class="slashpop" href="http://www.facebook.com/sharer.php?u=http\u005c%3A\u005c%2F\u005c%2Ftech.slashdot.org\u005c%2Fstory\u005c%2F13\u005c%2F03\u005c%2F23\u005c%2F2136248\u005c%2Fhitachis-tiny-robo-taxi-carries-1-passenger-and-no-driver\u005c%3Futm_source\u005c%3Dslashdot\u005c%26utm_medium\u005c%3Dfacebook"><img src="http://a.fsdn.com/sd/facebook_icon_large.png" /></a> <a class="nobg" href="http://plus.google.com/share?url=http://tech.slashdot.org/story/13/03/23/2136248/hitachis-tiny-robo-taxi-carries-1-passenger-and-no-driver?utm_source=slashdot&amp;utm_medium=googleplus"><img alt="Share on Google+" src="http://www.gstatic.com/images/icons/gplus-16.png" /></a> </div></p><p><a href="http://tech.slashdot.org/story/13/03/23/2136248/hitachis-tiny-robo-taxi-carries-1-passenger-and-no-driver?utm_source=rss1.0moreanon&amp;utm_medium=feed">Read more of this story</a> at Slashdot.</p><img border="0" height="1" src="http://slashdot.feedsportal.com/c/35028/f/647410/s/29e96364/mf.gif" width="1" /><br /><br /><a href="http://da.feedsportal.com/r/161393788883/u/49/f/647410/c/35028/s/29e96364/a2.htm"><img border="0" src="http://da.feedsportal.com/r/161393788883/u/49/f/647410/c/35028/s/29e96364/a2.img" /></a><img border="0" height="1" src="http://pi.feedsportal.com/r/161393788883/u/49/f/647410/c/35028/s/29e96364/a2t.img" width="1" /><img height="1" src="http://feeds.feedburner.com/~r/Slashdot/slashdot/~4/j8JGyU4g9ZY" width="1" />
p1066
sg192
I00
sS'title_detail'
p1067
g1
(g2
g3
(dp1068
g50
Vhttp://rss.slashdot.org/slashdot/Slashdot
p1069
sg19
g52
sg53
g1065
sg55
NstRp1070
sg107
VSat, 23 Mar 2013 21:37:00 GMT
p1071
sg145
(lp1072
g175
aV*
ag176
astRp1073
ag1
(g2
g3
(dp1074
S'summary_detail'
p1075
g1
(g2
g3
(dp1076
g50
Vhttp://rss.slashdot.org/slashdot/Slashdot
p1077
sg19
g100
sg53
Vhypnosec writes "The Internet Corporation for Assigned Names and Numbers has approved and released a list of domain names as per its new global Top Level Domain plans. A total of 27 domain names have been cleared for use by ICANN, and all of them are non-English domain names. Consisting of Chinese and Arabic names, the list of domain names seems to be mostly for regional companies, prominent among which are the .Qatartelecom and .Mozaic domains."<p><div class="share_submission"> <a class="slashpop" href="http://twitter.com/home?status=ICANN+Reveals+Regional+Winners+of+New+gTLDs%3A+http%3A%2F%2Fbit.ly%2F10xT6CD"><img src="http://a.fsdn.com/sd/twitter_icon_large.png" /></a> <a class="slashpop" href="http://www.facebook.com/sharer.php?u=http%3A%2F%2Ftech.slashdot.org%2Fstory%2F13%2F03%2F23%2F2030243%2Ficann-reveals-regional-winners-of-new-gtlds%3Futm_source%3Dslashdot%26utm_medium%3Dfacebook"><img src="http://a.fsdn.com/sd/facebook_icon_large.png" /></a> <a class="nobg" href="http://plus.google.com/share?url=http://tech.slashdot.org/story/13/03/23/2030243/icann-reveals-regional-winners-of-new-gtlds?utm_source=slashdot&amp;utm_medium=googleplus"><img alt="Share on Google+" src="http://www.gstatic.com/images/icons/gplus-16.png" /></a> </div></p><p><a href="http://tech.slashdot.org/story/13/03/23/2030243/icann-reveals-regional-winners-of-new-gtlds?utm_source=rss1.0moreanon&amp;utm_medium=feed">Read more of this story</a> at Slashdot.</p><img border="0" height="1" src="http://slashdot.feedsportal.com/c/35028/f/647410/s/29e95bd2/mf.gif" width="1" /><br /><br /><a href="http://da.feedsportal.com/r/161393788163/u/49/f/647410/c/35028/s/29e95bd2/a2.htm"><img border="0" src="http://da.feedsportal.com/r/161393788163/u/49/f/647410/c/35028/s/29e95bd2/a2.img" /></a><img border="0" height="1" src="http://pi.feedsportal.com/r/161393788163/u/49/f/647410/c/35028/s/29e95bd2/a2t.img" width="1" /><img height="1" src="http://feeds.feedburner.com/~r/Slashdot/slashdot/~4/uWgA7Ntk2MM" width="1" />
p1078
sg55
NstRp1079
sg11
g12
((I2013
I3
I23
I20
I32
I0
I5
I82
I0
t(dtRp1080
sg14
(lp1081
g1
(g2
g3
(dp1082
g17
Vhttp://rss.slashdot.org/~r/Slashdot/slashdot/~3/uWgA7Ntk2MM/story01.htm
p1083
sg19
g20
sg21
g22
stRp1084
asg38
(lp1085
g1
(g2
g3
(dp1086
g41
Vinternet
p1087
sg43
Nsg44
NstRp1088
asS'slash_department'
p1089
Vthe-envelope-please
p1090
sS'feedburner_origlink'
p1091
Vhttp://slashdot.feedsportal.com/c/35028/f/647410/s/29e95bd2/l/0Ltech0Bslashdot0Borg0Cstory0C130C0A30C230C20A30A2430Cicann0Ereveals0Eregional0Ewinners0Eof0Enew0Egtlds0Dutm0Isource0Frss10B0Amainlinkanon0Gutm0Imedium0Ffeed/story01.htm
p1092
sg7
V2013-03-23T20:32:00Z
p1093
sS'slash_section'
p1094
Vtechnology
p1095
sg145
(lp1096
g175
aV*
ag176
asg70
(lp1097
g1
(g2
g3
(dtRp1098
asS'author_detail'
p1099
g1
(g2
g3
(dp1100
g81
Vtimothy
p1101
stRp1102
sS'slash_hit_parade'
p1103
V1,1,0,0,0,0,0
p1104
sg185
Vhttp://slashdot.feedsportal.com/c/35028/f/647410/s/29e95bd2/l/0Ltech0Bslashdot0Borg0Cstory0C130C0A30C230C20A30A2430Cicann0Ereveals0Eregional0Ewinners0Eof0Enew0Egtlds0Dutm0Isource0Frss10B0Amainlinkanon0Gutm0Imedium0Ffeed/story01.htm
p1105
sS'slash_comments'
p1106
V1
sg92
g12
((I2013
I3
I23
I20
I32
I0
I5
I82
I0
t(dtRp1107
sg63
VICANN Reveals Regional Winners of New gTLDs
p1108
sg95
g1101
sg190
Vhypnosec writes "The Internet Corporation for Assigned Names and Numbers has approved and released a list of domain names as per its new global Top Level Domain plans. A total of 27 domain names have been cleared for use by ICANN, and all of them are non-English domain names. Consisting of Chinese and Arabic names, the list of domain names seems to be mostly for regional companies, prominent among which are the .Qatartelecom and .Mozaic domains."<p><div class="share_submission"> <a class="slashpop" href="http://twitter.com/home?status=ICANN+Reveals+Regional+Winners+of+New+gTLDs\u005c%3A+http\u005c%3A\u005c%2F\u005c%2Fbit.ly\u005c%2F10xT6CD"><img src="http://a.fsdn.com/sd/twitter_icon_large.png" /></a> <a class="slashpop" href="http://www.facebook.com/sharer.php?u=http\u005c%3A\u005c%2F\u005c%2Ftech.slashdot.org\u005c%2Fstory\u005c%2F13\u005c%2F03\u005c%2F23\u005c%2F2030243\u005c%2Ficann-reveals-regional-winners-of-new-gtlds\u005c%3Futm_source\u005c%3Dslashdot\u005c%26utm_medium\u005c%3Dfacebook"><img src="http://a.fsdn.com/sd/facebook_icon_large.png" /></a> <a class="nobg" href="http://plus.google.com/share?url=http://tech.slashdot.org/story/13/03/23/2030243/icann-reveals-regional-winners-of-new-gtlds?utm_source=slashdot&amp;utm_medium=googleplus"><img alt="Share on Google+" src="http://www.gstatic.com/images/icons/gplus-16.png" /></a> </div></p><p><a href="http://tech.slashdot.org/story/13/03/23/2030243/icann-reveals-regional-winners-of-new-gtlds?utm_source=rss1.0moreanon&amp;utm_medium=feed">Read more of this story</a> at Slashdot.</p><img border="0" height="1" src="http://slashdot.feedsportal.com/c/35028/f/647410/s/29e95bd2/mf.gif" width="1" /><br /><br /><a href="http://da.feedsportal.com/r/161393788163/u/49/f/647410/c/35028/s/29e95bd2/a2.htm"><img border="0" src="http://da.feedsportal.com/r/161393788163/u/49/f/647410/c/35028/s/29e95bd2/a2.img" /></a><img border="0" height="1" src="http://pi.feedsportal.com/r/161393788163/u/49/f/647410/c/35028/s/29e95bd2/a2t.img" width="1" /><img height="1" src="http://feeds.feedburner.com/~r/Slashdot/slashdot/~4/uWgA7Ntk2MM" width="1" />
p1109
sg192
I00
sS'title_detail'
p1110
g1
(g2
g3
(dp1111
g50
Vhttp://rss.slashdot.org/slashdot/Slashdot
p1112
sg19
g52
sg53
g1108
sg55
NstRp1113
sg107
VSat, 23 Mar 2013 20:32:00 GMT
p1114
sg58
g1083
stRp1115
ag1
(g2
g3
(dp1116
S'summary_detail'
p1117
g1
(g2
g3
(dp1118
g50
Vhttp://rss.slashdot.org/slashdot/Slashdot
p1119
sg19
g100
sg53
VAn anonymous reader writes According to the AP, the IRS is being "scolded for spending $60,000 dollars on an elaborate parody video that played at a 2010 conference. 'The video features an elaborate set depicting the control room, or bridge, of the spaceship featured in the hit TV show. IRS workers portray the characters, including one who plays Mr. Spock, complete with fake hair and pointed ears. The production value is high even though the acting is what one might expect from a bunch of tax collectors. In the video, the spaceship is approaching the planet 'Notax,' where alien identity theft appears to be a problem.' You can find the hilarious and/or nausea-inducing video on YouTube."<p><div class="share_submission"> <a class="slashpop" href="http://twitter.com/home?status=IRS+Spent+%2460%2C000+Producing+Star+Trek+Parody%3A+http%3A%2F%2Fbit.ly%2FWMEcHo"><img src="http://a.fsdn.com/sd/twitter_icon_large.png" /></a> <a class="slashpop" href="http://www.facebook.com/sharer.php?u=http%3A%2F%2Fyro.slashdot.org%2Fstory%2F13%2F03%2F23%2F1932218%2Firs-spent-60000-producing-star-trek-parody%3Futm_source%3Dslashdot%26utm_medium%3Dfacebook"><img src="http://a.fsdn.com/sd/facebook_icon_large.png" /></a> <a class="nobg" href="http://plus.google.com/share?url=http://yro.slashdot.org/story/13/03/23/1932218/irs-spent-60000-producing-star-trek-parody?utm_source=slashdot&amp;utm_medium=googleplus"><img alt="Share on Google+" src="http://www.gstatic.com/images/icons/gplus-16.png" /></a> </div></p><p><a href="http://yro.slashdot.org/story/13/03/23/1932218/irs-spent-60000-producing-star-trek-parody?utm_source=rss1.0moreanon&amp;utm_medium=feed">Read more of this story</a> at Slashdot.</p><img border="0" height="1" src="http://slashdot.feedsportal.com/c/35028/f/647410/s/29e953eb/mf.gif" width="1" /><br /><br /><a href="http://da.feedsportal.com/r/161393787216/u/49/f/647410/c/35028/s/29e953eb/a2.htm"><img border="0" src="http://da.feedsportal.com/r/161393787216/u/49/f/647410/c/35028/s/29e953eb/a2.img" /></a><img border="0" height="1" src="http://pi.feedsportal.com/r/161393787216/u/49/f/647410/c/35028/s/29e953eb/a2t.img" width="1" /><img height="1" src="http://feeds.feedburner.com/~r/Slashdot/slashdot/~4/muqDimJC8zo" width="1" />
p1120
sg55
NstRp1121
sg11
g12
((I2013
I3
I23
I19
I34
I0
I5
I82
I0
t(dtRp1122
sg14
(lp1123
g1
(g2
g3
(dp1124
g17
Vhttp://rss.slashdot.org/~r/Slashdot/slashdot/~3/muqDimJC8zo/story01.htm
p1125
sg19
g20
sg21
g22
stRp1126
asg38
(lp1127
g1
(g2
g3
(dp1128
g41
Vgovernment
p1129
sg43
Nsg44
NstRp1130
asS'slash_department'
p1131
Vbut-they're-stimulating-the-economy
p1132
sS'feedburner_origlink'
p1133
Vhttp://slashdot.feedsportal.com/c/35028/f/647410/s/29e953eb/l/0Lyro0Bslashdot0Borg0Cstory0C130C0A30C230C19322180Cirs0Espent0E60A0A0A0A0Eproducing0Estar0Etrek0Eparody0Dutm0Isource0Frss10B0Amainlinkanon0Gutm0Imedium0Ffeed/story01.htm
p1134
sg7
V2013-03-23T19:34:00Z
p1135
sS'slash_section'
p1136
Vyro
p1137
sg58
g1125
sg70
(lp1138
g1
(g2
g3
(dtRp1139
asS'author_detail'
p1140
g1
(g2
g3
(dp1141
g81
Vtimothy
p1142
stRp1143
sS'slash_hit_parade'
p1144
V0,0,0,0,0,0,0
p1145
sg185
Vhttp://slashdot.feedsportal.com/c/35028/f/647410/s/29e953eb/l/0Lyro0Bslashdot0Borg0Cstory0C130C0A30C230C19322180Cirs0Espent0E60A0A0A0A0Eproducing0Estar0Etrek0Eparody0Dutm0Isource0Frss10B0Amainlinkanon0Gutm0Imedium0Ffeed/story01.htm
p1146
sg92
g12
((I2013
I3
I23
I19
I34
I0
I5
I82
I0
t(dtRp1147
sg63
VIRS Spent $60,000 Producing Star Trek</em> Parody
p1148
sg95
g1142
sg190
VAn anonymous reader writes According to the AP, the IRS is being "scolded for spending $60,000 dollars on an elaborate parody video that played at a 2010 conference. 'The video features an elaborate set depicting the control room, or bridge, of the spaceship featured in the hit TV show. IRS workers portray the characters, including one who plays Mr. Spock, complete with fake hair and pointed ears. The production value is high even though the acting is what one might expect from a bunch of tax collectors. In the video, the spaceship is approaching the planet 'Notax,' where alien identity theft appears to be a problem.' You can find the hilarious and/or nausea-inducing video on YouTube."<p><div class="share_submission"> <a class="slashpop" href="http://twitter.com/home?status=IRS+Spent+\u005c%2460\u005c%2C000+Producing+Star+Trek+Parody\u005c%3A+http\u005c%3A\u005c%2F\u005c%2Fbit.ly\u005c%2FWMEcHo"><img src="http://a.fsdn.com/sd/twitter_icon_large.png" /></a> <a class="slashpop" href="http://www.facebook.com/sharer.php?u=http\u005c%3A\u005c%2F\u005c%2Fyro.slashdot.org\u005c%2Fstory\u005c%2F13\u005c%2F03\u005c%2F23\u005c%2F1932218\u005c%2Firs-spent-60000-producing-star-trek-parody\u005c%3Futm_source\u005c%3Dslashdot\u005c%26utm_medium\u005c%3Dfacebook"><img src="http://a.fsdn.com/sd/facebook_icon_large.png" /></a> <a class="nobg" href="http://plus.google.com/share?url=http://yro.slashdot.org/story/13/03/23/1932218/irs-spent-60000-producing-star-trek-parody?utm_source=slashdot&amp;utm_medium=googleplus"><img alt="Share on Google+" src="http://www.gstatic.com/images/icons/gplus-16.png" /></a> </div></p><p><a href="http://yro.slashdot.org/story/13/03/23/1932218/irs-spent-60000-producing-star-trek-parody?utm_source=rss1.0moreanon&amp;utm_medium=feed">Read more of this story</a> at Slashdot.</p><img border="0" height="1" src="http://slashdot.feedsportal.com/c/35028/f/647410/s/29e953eb/mf.gif" width="1" /><br /><br /><a href="http://da.feedsportal.com/r/161393787216/u/49/f/647410/c/35028/s/29e953eb/a2.htm"><img border="0" src="http://da.feedsportal.com/r/161393787216/u/49/f/647410/c/35028/s/29e953eb/a2.img" /></a><img border="0" height="1" src="http://pi.feedsportal.com/r/161393787216/u/49/f/647410/c/35028/s/29e953eb/a2t.img" width="1" /><img height="1" src="http://feeds.feedburner.com/~r/Slashdot/slashdot/~4/muqDimJC8zo" width="1" />
p1149
sg192
I00
sS'title_detail'
p1150
g1
(g2
g3
(dp1151
g50
Vhttp://rss.slashdot.org/slashdot/Slashdot
p1152
sg19
Vtext/html
p1153
sg53
g1148
sg55
NstRp1154
sg107
VSat, 23 Mar 2013 19:34:00 GMT
p1155
sg145
(lp1156
g175
aV*
ag176
astRp1157
ag1
(g2
g3
(dp1158
S'summary_detail'
p1159
g1
(g2
g3
(dp1160
g50
Vhttp://rss.slashdot.org/slashdot/Slashdot
p1161
sg19
g100
sg53
VSonicSpike writes with the news that the U.S. Senate yesterday "passed a nonbinding proposal to allow states to collect sales tax on Internet sellers that have no presence within their borders. The proposal was an amendment to a 2014 budget bill that the Senate debated Friday. It was pushed by Senators Mike Enzi, a Wyoming Republican, and Dick Durbin, an Illinois Democrat, and was designed to give backers a sense of whether they had enough votes to push forward with final legislation to impose an Internet sales tax. The vote showed they have plenty of backing to overcome any filibuster seeking to block a final sales tax bill."<p><div class="share_submission"> <a class="slashpop" href="http://twitter.com/home?status=US+Senate+Passes+National+Internet+Sales+Tax+Mandate%3A+http%3A%2F%2Fbit.ly%2F108iwnW"><img src="http://a.fsdn.com/sd/twitter_icon_large.png" /></a> <a class="slashpop" href="http://www.facebook.com/sharer.php?u=http%3A%2F%2Fpolitics.slashdot.org%2Fstory%2F13%2F03%2F23%2F1835242%2Fus-senate-passes-national-internet-sales-tax-mandate%3Futm_source%3Dslashdot%26utm_medium%3Dfacebook"><img src="http://a.fsdn.com/sd/facebook_icon_large.png" /></a> <a class="nobg" href="http://plus.google.com/share?url=http://politics.slashdot.org/story/13/03/23/1835242/us-senate-passes-national-internet-sales-tax-mandate?utm_source=slashdot&amp;utm_medium=googleplus"><img alt="Share on Google+" src="http://www.gstatic.com/images/icons/gplus-16.png" /></a> </div></p><p><a href="http://politics.slashdot.org/story/13/03/23/1835242/us-senate-passes-national-internet-sales-tax-mandate?utm_source=rss1.0moreanon&amp;utm_medium=feed">Read more of this story</a> at Slashdot.</p><img border="0" height="1" src="http://slashdot.feedsportal.com/c/35028/f/647410/s/29e8b1c4/mf.gif" width="1" /><br /><br /><a href="http://da.feedsportal.com/r/161393786666/u/49/f/647410/c/35028/s/29e8b1c4/a2.htm"><img border="0" src="http://da.feedsportal.com/r/161393786666/u/49/f/647410/c/35028/s/29e8b1c4/a2.img" /></a><img border="0" height="1" src="http://pi.feedsportal.com/r/161393786666/u/49/f/647410/c/35028/s/29e8b1c4/a2t.img" width="1" /><img height="1" src="http://feeds.feedburner.com/~r/Slashdot/slashdot/~4/XhEacMBlNeA" width="1" />
p1162
sg55
NstRp1163
sg11
g12
((I2013
I3
I23
I18
I36
I0
I5
I82
I0
t(dtRp1164
sg14
(lp1165
g1
(g2
g3
(dp1166
g17
Vhttp://rss.slashdot.org/~r/Slashdot/slashdot/~3/XhEacMBlNeA/story01.htm
p1167
sg19
g20
sg21
g22
stRp1168
asg38
(lp1169
g1
(g2
g3
(dp1170
g41
Vgovernment
p1171
sg43
Nsg44
NstRp1172
asS'slash_department'
p1173
Vman-vs-the-states
p1174
sS'feedburner_origlink'
p1175
Vhttp://slashdot.feedsportal.com/c/35028/f/647410/s/29e8b1c4/l/0Lpolitics0Bslashdot0Borg0Cstory0C130C0A30C230C18352420Cus0Esenate0Epasses0Enational0Einternet0Esales0Etax0Emandate0Dutm0Isource0Frss10B0Amainlinkanon0Gutm0Imedium0Ffeed/story01.htm
p1176
sg7
V2013-03-23T18:36:00Z
p1177
sS'slash_section'
p1178
Vpolitics
p1179
sg145
(lp1180
g175
aV*
ag176
asg70
(lp1181
g1
(g2
g3
(dtRp1182
asS'author_detail'
p1183
g1
(g2
g3
(dp1184
g81
Vtimothy
p1185
stRp1186
sS'slash_hit_parade'
p1187
V8,8,6,4,0,0,0
p1188
sg185
Vhttp://slashdot.feedsportal.com/c/35028/f/647410/s/29e8b1c4/l/0Lpolitics0Bslashdot0Borg0Cstory0C130C0A30C230C18352420Cus0Esenate0Epasses0Enational0Einternet0Esales0Etax0Emandate0Dutm0Isource0Frss10B0Amainlinkanon0Gutm0Imedium0Ffeed/story01.htm
p1189
sS'slash_comments'
p1190
V8
sg92
g12
((I2013
I3
I23
I18
I36
I0
I5
I82
I0
t(dtRp1191
sg63
VUS Senate Passes National Internet Sales Tax Mandate
p1192
sg95
g1185
sg190
VSonicSpike writes with the news that the U.S. Senate yesterday "passed a nonbinding proposal to allow states to collect sales tax on Internet sellers that have no presence within their borders. The proposal was an amendment to a 2014 budget bill that the Senate debated Friday. It was pushed by Senators Mike Enzi, a Wyoming Republican, and Dick Durbin, an Illinois Democrat, and was designed to give backers a sense of whether they had enough votes to push forward with final legislation to impose an Internet sales tax. The vote showed they have plenty of backing to overcome any filibuster seeking to block a final sales tax bill."<p><div class="share_submission"> <a class="slashpop" href="http://twitter.com/home?status=US+Senate+Passes+National+Internet+Sales+Tax+Mandate\u005c%3A+http\u005c%3A\u005c%2F\u005c%2Fbit.ly\u005c%2F108iwnW"><img src="http://a.fsdn.com/sd/twitter_icon_large.png" /></a> <a class="slashpop" href="http://www.facebook.com/sharer.php?u=http\u005c%3A\u005c%2F\u005c%2Fpolitics.slashdot.org\u005c%2Fstory\u005c%2F13\u005c%2F03\u005c%2F23\u005c%2F1835242\u005c%2Fus-senate-passes-national-internet-sales-tax-mandate\u005c%3Futm_source\u005c%3Dslashdot\u005c%26utm_medium\u005c%3Dfacebook"><img src="http://a.fsdn.com/sd/facebook_icon_large.png" /></a> <a class="nobg" href="http://plus.google.com/share?url=http://politics.slashdot.org/story/13/03/23/1835242/us-senate-passes-national-internet-sales-tax-mandate?utm_source=slashdot&amp;utm_medium=googleplus"><img alt="Share on Google+" src="http://www.gstatic.com/images/icons/gplus-16.png" /></a> </div></p><p><a href="http://politics.slashdot.org/story/13/03/23/1835242/us-senate-passes-national-internet-sales-tax-mandate?utm_source=rss1.0moreanon&amp;utm_medium=feed">Read more of this story</a> at Slashdot.</p><img border="0" height="1" src="http://slashdot.feedsportal.com/c/35028/f/647410/s/29e8b1c4/mf.gif" width="1" /><br /><br /><a href="http://da.feedsportal.com/r/161393786666/u/49/f/647410/c/35028/s/29e8b1c4/a2.htm"><img border="0" src="http://da.feedsportal.com/r/161393786666/u/49/f/647410/c/35028/s/29e8b1c4/a2.img" /></a><img border="0" height="1" src="http://pi.feedsportal.com/r/161393786666/u/49/f/647410/c/35028/s/29e8b1c4/a2t.img" width="1" /><img height="1" src="http://feeds.feedburner.com/~r/Slashdot/slashdot/~4/XhEacMBlNeA" width="1" />
p1193
sg192
I00
sS'title_detail'
p1194
g1
(g2
g3
(dp1195
g50
Vhttp://rss.slashdot.org/slashdot/Slashdot
p1196
sg19
g52
sg53
g1192
sg55
NstRp1197
sg107
VSat, 23 Mar 2013 18:36:00 GMT
p1198
sg58
g1167
stRp1199
asS'namespaces'
p1200
(dp1201
S''
Vhttp://www.w3.org/2005/Atom
p1202
sS'sy'
p1203
Vhttp://purl.org/rss/1.0/modules/syndication/
p1204
sS'taxo'
p1205
Vhttp://purl.org/rss/1.0/modules/taxonomy/
p1206
sS'dc'
p1207
Vhttp://purl.org/dc/elements/1.1/
p1208
sS'itunes'
p1209
Vhttp://www.itunes.com/dtds/podcast-1.0.dtd
p1210
sS'rdf'
p1211
Vhttp://www.w3.org/1999/02/22-rdf-syntax-ns#
p1212
sS'slash'
p1213
Vhttp://purl.org/rss/1.0/modules/slash/
p1214
sS'feedburner'
p1215
Vhttp://rssnamespace.org/feedburner/ext/1.0
p1216
sstRp1217
.