ccopy_reg
_reconstructor
p1
(cfeedparser
FeedParserDict
p2
c__builtin__
dict
p3
(dp4
S'feed'
p5
g1
(g2
g3
(dp6
S'title_detail'
p7
g1
(g2
g3
(dp8
S'base'
p9
Vhttp://www.reddit.com/.rss
p10
sS'type'
p11
Vtext/plain
p12
sS'language'
p13
NsS'value'
p14
Vreddit: the front page of the internet
p15
stRp16
sS'subtitle'
p17
V
sS'links'
p18
(lp19
g1
(g2
g3
(dp20
S'href'
p21
Vhttp://www.reddit.com/
p22
sg11
Vtext/html
p23
sS'rel'
p24
Valternate
p25
stRp26
ag1
(g2
g3
(dp27
S'href'
p28
Vhttp://www.reddit.com/.rss
p29
sS'type'
p30
Vapplication/rss+xml
p31
sS'rel'
p32
Vself
p33
stRp34
asS'title'
p35
g15
sS'link'
p36
g22
sS'image'
p37
g1
(g2
g3
(dp38
S'title_detail'
p39
g1
(g2
g3
(dp40
g9
Vhttp://www.reddit.com/.rss
p41
sg11
g12
sg13
Nsg14
Vreddit: the front page of the internet
p42
stRp43
sg21
Vhttp://www.reddit.com/reddit.com.header.png
p44
sg36
Vhttp://www.reddit.com/
p45
sg18
(lp46
g1
(g2
g3
(dp47
g21
g45
sg11
g23
sg24
g25
stRp48
asg35
g42
stRp49
sS'subtitle_detail'
p50
g1
(g2
g3
(dp51
g9
Vhttp://www.reddit.com/.rss
p52
sg11
Vtext/html
p53
sg13
Nsg14
V
stRp54
stRp55
sS'status'
p56
I200
sS'encoding'
p57
VUTF-8
p58
sS'bozo'
p59
I0
sS'entries'
p60
(lp61
g1
(g2
g3
(dp62
S'summary_detail'
p63
g1
(g2
g3
(dp64
g9
Vhttp://www.reddit.com/.rss
p65
sg11
g53
sg13
Nsg14
V<table> <tr><td> <a href="http://www.reddit.com/r/pics/comments/1ay7kc/ladies_and_gentlemen_i_present_to_you_white/"><img alt="ladies and gentlemen, i present to you White Carlton " src="http://a.thumbs.redditmedia.com/zQB_H2aNgBsfpWN0.jpg" title="ladies and gentlemen, i present to you White Carlton " /></a> </td><td> submitted by <a href="http://www.reddit.com/user/meetchew"> meetchew </a> to <a href="http://www.reddit.com/r/pics/"> pics</a> <br /> <a href="http://imgur.com/hByPgig">[link]</a> <a href="http://www.reddit.com/r/pics/comments/1ay7kc/ladies_and_gentlemen_i_present_to_you_white/">[146 comments]</a> </td></tr></table>
p66
stRp67
sg18
(lp68
g1
(g2
g3
(dp69
g21
Vhttp://www.reddit.com/r/pics/comments/1ay7kc/ladies_and_gentlemen_i_present_to_you_white/
p70
sg11
g23
sg24
g25
stRp71
asS'published_parsed'
p72
ctime
struct_time
p73
((I2013
I3
I25
I2
I20
I7
I0
I84
I0
t(dtRp74
sg35
Vladies and gentlemen, i present to you White Carlton
p75
sS'media_thumbnail'
p76
(lp77
(dp78
S'url'
p79
Vhttp://a.thumbs.redditmedia.com/zQB_H2aNgBsfpWN0.jpg
p80
sasS'summary'
p81
g66
sS'guidislink'
p82
I00
sS'title_detail'
p83
g1
(g2
g3
(dp84
g9
Vhttp://www.reddit.com/.rss
p85
sg11
g12
sg13
Nsg14
g75
stRp86
sg21
V
sg36
g70
sS'published'
p87
VMon, 25 Mar 2013 02:20:07 +0000
p88
sS'canto_state'
p89
(lp90
Vreddit: the front page of the internet
p91
aV*
aS'read'
p92
asS'id'
p93
Vhttp://www.reddit.com/r/pics/comments/1ay7kc/ladies_and_gentlemen_i_present_to_you_white/
p94
stRp95
ag1
(g2
g3
(dp96
S'summary_detail'
p97
g1
(g2
g3
(dp98
g9
Vhttp://www.reddit.com/.rss
p99
sg11
g53
sg13
Nsg14
Vsubmitted by <a href="http://www.reddit.com/user/neobergkamp"> neobergkamp </a> to <a href="http://www.reddit.com/r/science/"> science</a> <br /> <a href="http://www.thejournal.ie/science-conference-de-extinction-840062-Mar2013/">[link]</a> <a href="http://www.reddit.com/r/science/comments/1ay8jn/scientists_want_to_deextinct_22_species_of_animals/">[760 comments]</a>
p100
stRp101
sg18
(lp102
g1
(g2
g3
(dp103
g21
Vhttp://www.reddit.com/r/science/comments/1ay8jn/scientists_want_to_deextinct_22_species_of_animals/
p104
sg11
g23
sg24
g25
stRp105
asg72
g73
((I2013
I3
I25
I2
I34
I1
I0
I84
I0
t(dtRp106
sg35
VScientists want to "de-extinct" 22 species of animals.
p107
sg81
g100
sg82
I00
sS'title_detail'
p108
g1
(g2
g3
(dp109
g9
Vhttp://www.reddit.com/.rss
p110
sg11
g12
sg13
Nsg14
g107
stRp111
sg36
g104
sg87
VMon, 25 Mar 2013 02:34:01 +0000
p112
sg89
(lp113
g91
aV*
ag92
asg93
Vhttp://www.reddit.com/r/science/comments/1ay8jn/scientists_want_to_deextinct_22_species_of_animals/
p114
stRp115
ag1
(g2
g3
(dp116
S'summary_detail'
p117
g1
(g2
g3
(dp118
g9
Vhttp://www.reddit.com/.rss
p119
sg11
g53
sg13
Nsg14
V<table> <tr><td> <a href="http://www.reddit.com/r/todayilearned/comments/1ay4i2/til_that_a_priest_on_the_titanic_refused_a_place/"><img alt="TIL that a priest on the titanic refused a place on a life boat twice, and stayed behind to hear confessions and give absolution to people left on the ship." src="http://a.thumbs.redditmedia.com/F69WlmB6WBVoAhfx.jpg" title="TIL that a priest on the titanic refused a place on a life boat twice, and stayed behind to hear confessions and give absolution to people left on the ship." /></a> </td><td> submitted by <a href="http://www.reddit.com/user/Honkeyass"> Honkeyass </a> to <a href="http://www.reddit.com/r/todayilearned/"> todayilearned</a> <br /> <a href="http://en.wikipedia.org/wiki/Thomas_Byles">[link]</a> <a href="http://www.reddit.com/r/todayilearned/comments/1ay4i2/til_that_a_priest_on_the_titanic_refused_a_place/">[704 comments]</a> </td></tr></table>
p120
stRp121
sg18
(lp122
g1
(g2
g3
(dp123
g21
Vhttp://www.reddit.com/r/todayilearned/comments/1ay4i2/til_that_a_priest_on_the_titanic_refused_a_place/
p124
sg11
g23
sg24
g25
stRp125
asg72
g73
((I2013
I3
I25
I1
I38
I17
I0
I84
I0
t(dtRp126
sg35
VTIL that a priest on the titanic refused a place on a life boat twice, and stayed behind to hear confessions and give absolution to people left on the ship.
p127
sg76
(lp128
(dp129
S'url'
p130
Vhttp://a.thumbs.redditmedia.com/F69WlmB6WBVoAhfx.jpg
p131
sasg81
g120
sg82
I00
sS'title_detail'
p132
g1
(g2
g3
(dp133
g9
Vhttp://www.reddit.com/.rss
p134
sg11
g12
sg13
Nsg14
g127
stRp135
sg21
V
sg36
g124
sg87
VMon, 25 Mar 2013 01:38:17 +0000
p136
sg89
(lp137
g91
aV*
ag92
asg93
Vhttp://www.reddit.com/r/todayilearned/comments/1ay4i2/til_that_a_priest_on_the_titanic_refused_a_place/
p138
stRp139
ag1
(g2
g3
(dp140
S'summary_detail'
p141
g1
(g2
g3
(dp142
g9
Vhttp://www.reddit.com/.rss
p143
sg11
g53
sg13
Nsg14
Vsubmitted by <a href="http://www.reddit.com/user/spiderrichard"> spiderrichard </a> to <a href="http://www.reddit.com/r/funny/"> funny</a> <br /> <a href="http://imgur.com/mviunZc">[link]</a> <a href="http://www.reddit.com/r/funny/comments/1ay6hz/camouflage_level_girlfriend/">[169 comments]</a>
p144
stRp145
sg18
(lp146
g1
(g2
g3
(dp147
g21
Vhttp://www.reddit.com/r/funny/comments/1ay6hz/camouflage_level_girlfriend/
p148
sg11
g23
sg24
g25
stRp149
asg72
g73
((I2013
I3
I25
I2
I5
I40
I0
I84
I0
t(dtRp150
sg35
VCamouflage Level Girlfriend
p151
sg81
g144
sg82
I00
sS'title_detail'
p152
g1
(g2
g3
(dp153
g9
Vhttp://www.reddit.com/.rss
p154
sg11
g12
sg13
Nsg14
g151
stRp155
sg36
g148
sg87
VMon, 25 Mar 2013 02:05:40 +0000
p156
sg89
(lp157
g91
aV*
ag92
asg93
Vhttp://www.reddit.com/r/funny/comments/1ay6hz/camouflage_level_girlfriend/
p158
stRp159
ag1
(g2
g3
(dp160
S'summary_detail'
p161
g1
(g2
g3
(dp162
g9
Vhttp://www.reddit.com/.rss
p163
sg11
g53
sg13
Nsg14
V<table> <tr><td> <a href="http://www.reddit.com/r/AdviceAnimals/comments/1ay4ns/when_exs_play_games/"><img alt="When ex's play games..." src="http://c.thumbs.redditmedia.com/Z0Zgz8eINKgh5zwV.jpg" title="When ex's play games..." /></a> </td><td> submitted by <a href="http://www.reddit.com/user/troopercrzy"> troopercrzy </a> to <a href="http://www.reddit.com/r/AdviceAnimals/"> AdviceAnimals</a> <br /> <a href="http://www.quickmeme.com/meme/3tify1/">[link]</a> <a href="http://www.reddit.com/r/AdviceAnimals/comments/1ay4ns/when_exs_play_games/">[421 comments]</a> </td></tr></table>
p164
stRp165
sg18
(lp166
g1
(g2
g3
(dp167
g21
Vhttp://www.reddit.com/r/AdviceAnimals/comments/1ay4ns/when_exs_play_games/
p168
sg11
g23
sg24
g25
stRp169
asg72
g73
((I2013
I3
I25
I1
I40
I31
I0
I84
I0
t(dtRp170
sg35
VWhen ex's play games...
p171
sg76
(lp172
(dp173
S'url'
p174
Vhttp://c.thumbs.redditmedia.com/Z0Zgz8eINKgh5zwV.jpg
p175
sasg81
g164
sg82
I00
sS'title_detail'
p176
g1
(g2
g3
(dp177
g9
Vhttp://www.reddit.com/.rss
p178
sg11
g12
sg13
Nsg14
g171
stRp179
sg21
V
sg36
g168
sg87
VMon, 25 Mar 2013 01:40:31 +0000
p180
sg89
(lp181
g91
aV*
ag92
asg93
Vhttp://www.reddit.com/r/AdviceAnimals/comments/1ay4ns/when_exs_play_games/
p182
stRp183
ag1
(g2
g3
(dp184
S'summary_detail'
p185
g1
(g2
g3
(dp186
g9
Vhttp://www.reddit.com/.rss
p187
sg11
g53
sg13
Nsg14
Vsubmitted by <a href="http://www.reddit.com/user/knight1096"> knight1096 </a> to <a href="http://www.reddit.com/r/WTF/"> WTF</a> <br /> <a href="http://i.imgur.com/65bQjlh.jpg">[link]</a> <a href="http://www.reddit.com/r/WTF/comments/1axw3u/took_a_wrong_turn_into_an_economically_depressed/">[552 comments]</a>
p188
stRp189
sg18
(lp190
g1
(g2
g3
(dp191
g21
Vhttp://www.reddit.com/r/WTF/comments/1axw3u/took_a_wrong_turn_into_an_economically_depressed/
p192
sg11
g23
sg24
g25
stRp193
asg72
g73
((I2013
I3
I24
I23
I36
I53
I6
I83
I0
t(dtRp194
sg35
VTook a wrong turn into an "economically depressed" neighborhood. I regret nothing.
p195
sg81
g188
sg82
I00
sS'title_detail'
p196
g1
(g2
g3
(dp197
g9
Vhttp://www.reddit.com/.rss
p198
sg11
g12
sg13
Nsg14
g195
stRp199
sg36
g192
sg87
VSun, 24 Mar 2013 23:36:53 +0000
p200
sg89
(lp201
g91
aV*
ag92
asg93
Vhttp://www.reddit.com/r/WTF/comments/1axw3u/took_a_wrong_turn_into_an_economically_depressed/
p202
stRp203
ag1
(g2
g3
(dp204
S'summary_detail'
p205
g1
(g2
g3
(dp206
g9
Vhttp://www.reddit.com/.rss
p207
sg11
g53
sg13
Nsg14
V<table> <tr><td> <a href="http://www.reddit.com/r/atheism/comments/1ay2en/show_me_the_evidence/"><img alt="Show me the evidence!" src="http://b.thumbs.redditmedia.com/28nezVxlJvg9ZBhU.jpg" title="Show me the evidence!" /></a> </td><td> submitted by <a href="http://www.reddit.com/user/evanalmighty19"> evanalmighty19 </a> to <a href="http://www.reddit.com/r/atheism/"> atheism</a> <br /> <a href="http://www.imgur.com/TnmlgH4.jpeg">[link]</a> <a href="http://www.reddit.com/r/atheism/comments/1ay2en/show_me_the_evidence/">[764 comments]</a> </td></tr></table>
p208
stRp209
sg18
(lp210
g1
(g2
g3
(dp211
g21
Vhttp://www.reddit.com/r/atheism/comments/1ay2en/show_me_the_evidence/
p212
sg11
g23
sg24
g25
stRp213
asg72
g73
((I2013
I3
I25
I1
I7
I7
I0
I84
I0
t(dtRp214
sg35
VShow me the evidence!
p215
sg76
(lp216
(dp217
S'url'
p218
Vhttp://b.thumbs.redditmedia.com/28nezVxlJvg9ZBhU.jpg
p219
sasg81
g208
sg82
I00
sS'title_detail'
p220
g1
(g2
g3
(dp221
g9
Vhttp://www.reddit.com/.rss
p222
sg11
g12
sg13
Nsg14
g215
stRp223
sg21
V
sg36
g212
sg87
VMon, 25 Mar 2013 01:07:07 +0000
p224
sg89
(lp225
g91
aV*
ag92
asg93
Vhttp://www.reddit.com/r/atheism/comments/1ay2en/show_me_the_evidence/
p226
stRp227
ag1
(g2
g3
(dp228
S'summary_detail'
p229
g1
(g2
g3
(dp230
g9
Vhttp://www.reddit.com/.rss
p231
sg11
g53
sg13
Nsg14
V<table> <tr><td> <a href="http://www.reddit.com/r/aww/comments/1axubs/best_friends/"><img alt="Best friends." src="http://d.thumbs.redditmedia.com/a07NuDTdas0Ip-5Q.jpg" title="Best friends." /></a> </td><td> submitted by <a href="http://www.reddit.com/user/CopyX"> CopyX </a> to <a href="http://www.reddit.com/r/aww/"> aww</a> <br /> <a href="http://i.imgur.com/UGm6diS.jpg">[link]</a> <a href="http://www.reddit.com/r/aww/comments/1axubs/best_friends/">[198 comments]</a> </td></tr></table>
p232
stRp233
sg18
(lp234
g1
(g2
g3
(dp235
g21
Vhttp://www.reddit.com/r/aww/comments/1axubs/best_friends/
p236
sg11
g23
sg24
g25
stRp237
asg72
g73
((I2013
I3
I24
I23
I10
I51
I6
I83
I0
t(dtRp238
sg35
VBest friends.
p239
sg76
(lp240
(dp241
S'url'
p242
Vhttp://d.thumbs.redditmedia.com/a07NuDTdas0Ip-5Q.jpg
p243
sasg81
g232
sg82
I00
sS'title_detail'
p244
g1
(g2
g3
(dp245
g9
Vhttp://www.reddit.com/.rss
p246
sg11
g12
sg13
Nsg14
g239
stRp247
sg21
V
sg36
g236
sg87
VSun, 24 Mar 2013 23:10:51 +0000
p248
sg89
(lp249
g91
aV*
ag92
asg93
Vhttp://www.reddit.com/r/aww/comments/1axubs/best_friends/
p250
stRp251
ag1
(g2
g3
(dp252
S'summary_detail'
p253
g1
(g2
g3
(dp254
g9
Vhttp://www.reddit.com/.rss
p255
sg11
g53
sg13
Nsg14
V<table> <tr><td> <a href="http://www.reddit.com/r/gaming/comments/1axvu8/battlefield_3_logic/"><img alt="Battlefield 3 Logic" src="http://a.thumbs.redditmedia.com/M02YDIL0QHaZvqVr.jpg" title="Battlefield 3 Logic" /></a> </td><td> submitted by <a href="http://www.reddit.com/user/tbwfree"> tbwfree </a> to <a href="http://www.reddit.com/r/gaming/"> gaming</a> <br /> <a href="http://qkme.me/3tie2v">[link]</a> <a href="http://www.reddit.com/r/gaming/comments/1axvu8/battlefield_3_logic/">[263 comments]</a> </td></tr></table>
p256
stRp257
sg18
(lp258
g1
(g2
g3
(dp259
g21
Vhttp://www.reddit.com/r/gaming/comments/1axvu8/battlefield_3_logic/
p260
sg11
g23
sg24
g25
stRp261
asg72
g73
((I2013
I3
I24
I23
I33
I4
I6
I83
I0
t(dtRp262
sg35
VBattlefield 3 Logic
p263
sg76
(lp264
(dp265
S'url'
p266
Vhttp://a.thumbs.redditmedia.com/M02YDIL0QHaZvqVr.jpg
p267
sasg81
g256
sg82
I00
sS'title_detail'
p268
g1
(g2
g3
(dp269
g9
Vhttp://www.reddit.com/.rss
p270
sg11
g12
sg13
Nsg14
g263
stRp271
sg21
V
sg36
g260
sg87
VSun, 24 Mar 2013 23:33:04 +0000
p272
sg89
(lp273
g91
aV*
ag92
asg93
Vhttp://www.reddit.com/r/gaming/comments/1axvu8/battlefield_3_logic/
p274
stRp275
ag1
(g2
g3
(dp276
S'summary_detail'
p277
g1
(g2
g3
(dp278
g9
Vhttp://www.reddit.com/.rss
p279
sg11
g53
sg13
Nsg14
Vsubmitted by <a href="http://www.reddit.com/user/Greasy"> Greasy </a> to <a href="http://www.reddit.com/r/technology/"> technology</a> <br /> <a href="http://arstechnica.com/security/2013/03/how-i-became-a-password-cracker/">[link]</a> <a href="http://www.reddit.com/r/technology/comments/1ay6mo/how_i_became_a_password_cracker/">[144 comments]</a>
p280
stRp281
sg18
(lp282
g1
(g2
g3
(dp283
g21
Vhttp://www.reddit.com/r/technology/comments/1ay6mo/how_i_became_a_password_cracker/
p284
sg11
g23
sg24
g25
stRp285
asg72
g73
((I2013
I3
I25
I2
I7
I16
I0
I84
I0
t(dtRp286
sg35
VHow I became a password cracker
p287
sg81
g280
sg82
I00
sS'title_detail'
p288
g1
(g2
g3
(dp289
g9
Vhttp://www.reddit.com/.rss
p290
sg11
g12
sg13
Nsg14
g287
stRp291
sg36
g284
sg87
VMon, 25 Mar 2013 02:07:16 +0000
p292
sg89
(lp293
g91
aV*
ag92
asg93
Vhttp://www.reddit.com/r/technology/comments/1ay6mo/how_i_became_a_password_cracker/
p294
stRp295
ag1
(g2
g3
(dp296
S'summary_detail'
p297
g1
(g2
g3
(dp298
g9
Vhttp://www.reddit.com/.rss
p299
sg11
g53
sg13
Nsg14
Vsubmitted by <a href="http://www.reddit.com/user/Piscator629"> Piscator629 </a> to <a href="http://www.reddit.com/r/politics/"> politics</a> <br /> <a href="http://www.huffingtonpost.com/2013/03/24/rand-paul-marijuana_n_2945307.html">[link]</a> <a href="http://www.reddit.com/r/politics/comments/1axqy3/rand_paul_marijuana_use_is_not_something_to/">[712 comments]</a>
p300
stRp301
sg18
(lp302
g1
(g2
g3
(dp303
g21
Vhttp://www.reddit.com/r/politics/comments/1axqy3/rand_paul_marijuana_use_is_not_something_to/
p304
sg11
g23
sg24
g25
stRp305
asg72
g73
((I2013
I3
I24
I22
I22
I33
I6
I83
I0
t(dtRp306
sg35
VRand Paul: Marijuana Use Is Not Something To 'Promote,' But 'It's A Big Mistake' To Jail People Over It
p307
sg81
g300
sg82
I00
sS'title_detail'
p308
g1
(g2
g3
(dp309
g9
Vhttp://www.reddit.com/.rss
p310
sg11
g12
sg13
Nsg14
g307
stRp311
sg36
g304
sg87
VSun, 24 Mar 2013 22:22:33 +0000
p312
sg89
(lp313
g91
aV*
ag92
asg93
Vhttp://www.reddit.com/r/politics/comments/1axqy3/rand_paul_marijuana_use_is_not_something_to/
p314
stRp315
ag1
(g2
g3
(dp316
S'summary_detail'
p317
g1
(g2
g3
(dp318
g9
Vhttp://www.reddit.com/.rss
p319
sg11
g53
sg13
Nsg14
V<!-- SC_OFF --><div class="md"><p>She's in talks with producers on coming back to WLIIA.</p> <ol> <li>Who was your favorite cast member from Whose Line Is It Anyway?</li> <li>How did you get this gig?</li> <li>What do you miss most about WLIIA?</li> <li>Your favorite moment on the show.</li> <li>What did you dislike most about your job?</li> </ol> <p><a href="http://www.facebook.com/pages/Laura-Hall/134888457220?fref=ts">Laura Hall's Facebook Page</a></p> </div><!-- SC_ON --> submitted by <a href="http://www.reddit.com/user/bananana21"> bananana21 </a> to <a href="http://www.reddit.com/r/IAmA/"> IAmA</a> <br /> <a href="http://www.reddit.com/r/IAmA/comments/1axvsc/ama_request_laura_hall_pianist_from_whose_line_is/">[link]</a> <a href="http://www.reddit.com/r/IAmA/comments/1axvsc/ama_request_laura_hall_pianist_from_whose_line_is/">[136 comments]</a>
p320
stRp321
sg18
(lp322
g1
(g2
g3
(dp323
g21
Vhttp://www.reddit.com/r/IAmA/comments/1axvsc/ama_request_laura_hall_pianist_from_whose_line_is/
p324
sg11
g23
sg24
g25
stRp325
asg72
g73
((I2013
I3
I24
I23
I32
I16
I6
I83
I0
t(dtRp326
sg35
V[AMA Request] Laura Hall, pianist from Whose Line Is It Anyway?
p327
sg81
g320
sg82
I00
sS'title_detail'
p328
g1
(g2
g3
(dp329
g9
Vhttp://www.reddit.com/.rss
p330
sg11
g12
sg13
Nsg14
g327
stRp331
sg36
g324
sg87
VSun, 24 Mar 2013 23:32:16 +0000
p332
sg89
(lp333
g91
aV*
ag92
asg93
Vhttp://www.reddit.com/r/IAmA/comments/1axvsc/ama_request_laura_hall_pianist_from_whose_line_is/
p334
stRp335
ag1
(g2
g3
(dp336
S'summary_detail'
p337
g1
(g2
g3
(dp338
g9
Vhttp://www.reddit.com/.rss
p339
sg11
g53
sg13
Nsg14
V<table> <tr><td> <a href="http://www.reddit.com/r/videos/comments/1axub3/the_best_outtake_from_shaun_of_the_dead_simon/"><img alt="The best out-take from Shaun Of The Dead. Simon Pegg and Peter Serafinowicz imitate the Beatles." src="http://b.thumbs.redditmedia.com/5MIBAFmXLdykv1zg.jpg" title="The best out-take from Shaun Of The Dead. Simon Pegg and Peter Serafinowicz imitate the Beatles." /></a> </td><td> submitted by <a href="http://www.reddit.com/user/randybizzle"> randybizzle </a> to <a href="http://www.reddit.com/r/videos/"> videos</a> <br /> <a href="http://www.youtube.com/watch?v=0KVpCJCoRpo">[link]</a> <a href="http://www.reddit.com/r/videos/comments/1axub3/the_best_outtake_from_shaun_of_the_dead_simon/">[120 comments]</a> </td></tr></table>
p340
stRp341
sg18
(lp342
g1
(g2
g3
(dp343
g21
Vhttp://www.reddit.com/r/videos/comments/1axub3/the_best_outtake_from_shaun_of_the_dead_simon/
p344
sg11
g23
sg24
g25
stRp345
asg72
g73
((I2013
I3
I24
I23
I10
I35
I6
I83
I0
t(dtRp346
sg35
VThe best out-take from Shaun Of The Dead. Simon Pegg and Peter Serafinowicz imitate the Beatles.
p347
sg76
(lp348
(dp349
S'url'
p350
Vhttp://b.thumbs.redditmedia.com/5MIBAFmXLdykv1zg.jpg
p351
sasg81
g340
sg82
I00
sS'title_detail'
p352
g1
(g2
g3
(dp353
g9
Vhttp://www.reddit.com/.rss
p354
sg11
g12
sg13
Nsg14
g347
stRp355
sg21
V
sg36
g344
sg87
VSun, 24 Mar 2013 23:10:35 +0000
p356
sg89
(lp357
g91
aV*
ag92
asg93
Vhttp://www.reddit.com/r/videos/comments/1axub3/the_best_outtake_from_shaun_of_the_dead_simon/
p358
stRp359
ag1
(g2
g3
(dp360
S'summary_detail'
p361
g1
(g2
g3
(dp362
g9
Vhttp://www.reddit.com/.rss
p363
sg11
g53
sg13
Nsg14
Vsubmitted by <a href="http://www.reddit.com/user/brazen_ape"> brazen_ape </a> to <a href="http://www.reddit.com/r/Music/"> Music</a> <br /> <a href="http://www.youtube.com/watch?v=NfOHjeI-Bns">[link]</a> <a href="http://www.reddit.com/r/Music/comments/1axuj0/girl_absolutely_rocking_hendrix_on_a_gayageum/">[200 comments]</a>
p364
stRp365
sg18
(lp366
g1
(g2
g3
(dp367
g21
Vhttp://www.reddit.com/r/Music/comments/1axuj0/girl_absolutely_rocking_hendrix_on_a_gayageum/
p368
sg11
g23
sg24
g25
stRp369
asg72
g73
((I2013
I3
I24
I23
I14
I7
I6
I83
I0
t(dtRp370
sg35
VGirl absolutely rocking Hendrix on a gayageum (Korean stringed instrument)
p371
sg81
g364
sg82
I00
sS'title_detail'
p372
g1
(g2
g3
(dp373
g9
Vhttp://www.reddit.com/.rss
p374
sg11
g12
sg13
Nsg14
g371
stRp375
sg36
g368
sg87
VSun, 24 Mar 2013 23:14:07 +0000
p376
sg89
(lp377
g91
aV*
ag92
asg93
Vhttp://www.reddit.com/r/Music/comments/1axuj0/girl_absolutely_rocking_hendrix_on_a_gayageum/
p378
stRp379
ag1
(g2
g3
(dp380
S'summary_detail'
p381
g1
(g2
g3
(dp382
g9
Vhttp://www.reddit.com/.rss
p383
sg11
g53
sg13
Nsg14
Vsubmitted by <a href="http://www.reddit.com/user/nastratin"> nastratin </a> to <a href="http://www.reddit.com/r/worldnews/"> worldnews</a> <br /> <a href="http://www.aljazeera.com/indepth/features/2013/03/201331792224757326.html">[link]</a> <a href="http://www.reddit.com/r/worldnews/comments/1axjc6/armenia_is_the_first_country_in_the_world_to_make/">[1169 comments]</a>
p384
stRp385
sg18
(lp386
g1
(g2
g3
(dp387
g21
Vhttp://www.reddit.com/r/worldnews/comments/1axjc6/armenia_is_the_first_country_in_the_world_to_make/
p388
sg11
g23
sg24
g25
stRp389
asg72
g73
((I2013
I3
I24
I20
I34
I38
I6
I83
I0
t(dtRp390
sg35
VArmenia is the first country in the world to make chess mandatory in schools, aiming to build a better society
p391
sg81
g384
sg82
I00
sS'title_detail'
p392
g1
(g2
g3
(dp393
g9
Vhttp://www.reddit.com/.rss
p394
sg11
g12
sg13
Nsg14
g391
stRp395
sg36
g388
sg87
VSun, 24 Mar 2013 20:34:38 +0000
p396
sg89
(lp397
g91
aV*
ag92
asg93
Vhttp://www.reddit.com/r/worldnews/comments/1axjc6/armenia_is_the_first_country_in_the_world_to_make/
p398
stRp399
ag1
(g2
g3
(dp400
S'summary_detail'
p401
g1
(g2
g3
(dp402
g9
Vhttp://www.reddit.com/.rss
p403
sg11
g53
sg13
Nsg14
V<table> <tr><td> <a href="http://www.reddit.com/r/movies/comments/1ayawf/i_went_to_miyazaki_studio_ghibli_museum_near/"><img alt="I went to (Miyazaki) Studio Ghibli Museum near Tokyo, Japan. The tickets are made up of cut up film cells. My ticket is from Princess Mononoke. " src="http://a.thumbs.redditmedia.com/fLmIlrnhkWA0dTcl.jpg" title="I went to (Miyazaki) Studio Ghibli Museum near Tokyo, Japan. The tickets are made up of cut up film cells. My ticket is from Princess Mononoke. " /></a> </td><td> submitted by <a href="http://www.reddit.com/user/adobo_power"> adobo_power </a> to <a href="http://www.reddit.com/r/movies/"> movies</a> <br /> <a href="http://i.imgur.com/WfGWeeg.jpg">[link]</a> <a href="http://www.reddit.com/r/movies/comments/1ayawf/i_went_to_miyazaki_studio_ghibli_museum_near/">[34 comments]</a> </td></tr></table>
p404
stRp405
sg18
(lp406
g1
(g2
g3
(dp407
g21
Vhttp://www.reddit.com/r/movies/comments/1ayawf/i_went_to_miyazaki_studio_ghibli_museum_near/
p408
sg11
g23
sg24
g25
stRp409
asg72
g73
((I2013
I3
I25
I3
I9
I37
I0
I84
I0
t(dtRp410
sg35
VI went to (Miyazaki) Studio Ghibli Museum near Tokyo, Japan. The tickets are made up of cut up film cells. My ticket is from Princess Mononoke.
p411
sg76
(lp412
(dp413
S'url'
p414
Vhttp://a.thumbs.redditmedia.com/fLmIlrnhkWA0dTcl.jpg
p415
sasg81
g404
sg82
I00
sS'title_detail'
p416
g1
(g2
g3
(dp417
g9
Vhttp://www.reddit.com/.rss
p418
sg11
g12
sg13
Nsg14
g411
stRp419
sg21
V
sg36
g408
sg87
VMon, 25 Mar 2013 03:09:37 +0000
p420
sg89
(lp421
g91
aV*
ag92
asg93
Vhttp://www.reddit.com/r/movies/comments/1ayawf/i_went_to_miyazaki_studio_ghibli_museum_near/
p422
stRp423
ag1
(g2
g3
(dp424
S'summary_detail'
p425
g1
(g2
g3
(dp426
g9
Vhttp://www.reddit.com/.rss
p427
sg11
g53
sg13
Nsg14
Vsubmitted by <a href="http://www.reddit.com/user/rulerofchaosandcats"> rulerofchaosandcats </a> to <a href="http://www.reddit.com/r/bestof/"> bestof</a> <br /> <a href="http://www.reddit.com/r/MensRights/comments/1awr1n/millionaire_using_kickstarter_to_send_her/c91h629">[link]</a> <a href="http://www.reddit.com/r/bestof/comments/1axqxe/redditor_explains_why_the_mom_using_reddit_to/">[411 comments]</a>
p428
stRp429
sg18
(lp430
g1
(g2
g3
(dp431
g21
Vhttp://www.reddit.com/r/bestof/comments/1axqxe/redditor_explains_why_the_mom_using_reddit_to/
p432
sg11
g23
sg24
g25
stRp433
asg72
g73
((I2013
I3
I24
I22
I22
I18
I6
I83
I0
t(dtRp434
sg35
VRedditor explains why the "Mom using Reddit to send daughter to RPG camp is so fishy".
p435
sg81
g428
sg82
I00
sS'title_detail'
p436
g1
(g2
g3
(dp437
g9
Vhttp://www.reddit.com/.rss
p438
sg11
g12
sg13
Nsg14
g435
stRp439
sg36
g432
sg87
VSun, 24 Mar 2013 22:22:18 +0000
p440
sg89
(lp441
g91
aV*
ag92
asg93
Vhttp://www.reddit.com/r/bestof/comments/1axqxe/redditor_explains_why_the_mom_using_reddit_to/
p442
stRp443
ag1
(g2
g3
(dp444
S'summary_detail'
p445
g1
(g2
g3
(dp446
g9
Vhttp://www.reddit.com/.rss
p447
sg11
g53
sg13
Nsg14
V<table> <tr><td> <a href="http://www.reddit.com/r/gaming/comments/1axzjy/bf4_concept_art_how_did_i_do/"><img alt="BF4 concept art. How did I do?" src="http://f.thumbs.redditmedia.com/01mcj7ZvUQV3SQ8Y.jpg" title="BF4 concept art. How did I do?" /></a> </td><td> submitted by <a href="http://www.reddit.com/user/Ohsneezeme"> Ohsneezeme </a> to <a href="http://www.reddit.com/r/gaming/"> gaming</a> <br /> <a href="http://i.imgur.com/JubWaJQ.jpg">[link]</a> <a href="http://www.reddit.com/r/gaming/comments/1axzjy/bf4_concept_art_how_did_i_do/">[283 comments]</a> </td></tr></table>
p448
stRp449
sg18
(lp450
g1
(g2
g3
(dp451
g21
Vhttp://www.reddit.com/r/gaming/comments/1axzjy/bf4_concept_art_how_did_i_do/
p452
sg11
g23
sg24
g25
stRp453
asg72
g73
((I2013
I3
I25
I0
I25
I26
I0
I84
I0
t(dtRp454
sg35
VBF4 concept art. How did I do?
p455
sg76
(lp456
(dp457
S'url'
p458
Vhttp://f.thumbs.redditmedia.com/01mcj7ZvUQV3SQ8Y.jpg
p459
sasg81
g448
sg82
I00
sS'title_detail'
p460
g1
(g2
g3
(dp461
g9
Vhttp://www.reddit.com/.rss
p462
sg11
g12
sg13
Nsg14
g455
stRp463
sg21
V
sg36
g452
sg87
VMon, 25 Mar 2013 00:25:26 +0000
p464
sg89
(lp465
g91
aV*
ag92
asg93
Vhttp://www.reddit.com/r/gaming/comments/1axzjy/bf4_concept_art_how_did_i_do/
p466
stRp467
ag1
(g2
g3
(dp468
S'summary_detail'
p469
g1
(g2
g3
(dp470
g9
Vhttp://www.reddit.com/.rss
p471
sg11
g53
sg13
Nsg14
V<table> <tr><td> <a href="http://www.reddit.com/r/AdviceAnimals/comments/1ay6a5/such_a_struggle/"><img alt="Such a struggle..." src="http://a.thumbs.redditmedia.com/ZKHCfzKJvFIxs9RZ.jpg" title="Such a struggle..." /></a> </td><td> submitted by <a href="http://www.reddit.com/user/Gee_I_Own"> Gee_I_Own </a> to <a href="http://www.reddit.com/r/AdviceAnimals/"> AdviceAnimals</a> <br /> <a href="http://qkme.me/3tigba">[link]</a> <a href="http://www.reddit.com/r/AdviceAnimals/comments/1ay6a5/such_a_struggle/">[382 comments]</a> </td></tr></table>
p472
stRp473
sg18
(lp474
g1
(g2
g3
(dp475
g21
Vhttp://www.reddit.com/r/AdviceAnimals/comments/1ay6a5/such_a_struggle/
p476
sg11
g23
sg24
g25
stRp477
asg72
g73
((I2013
I3
I25
I2
I2
I41
I0
I84
I0
t(dtRp478
sg35
VSuch a struggle...
p479
sg76
(lp480
(dp481
S'url'
p482
Vhttp://a.thumbs.redditmedia.com/ZKHCfzKJvFIxs9RZ.jpg
p483
sasg81
g472
sg82
I00
sS'title_detail'
p484
g1
(g2
g3
(dp485
g9
Vhttp://www.reddit.com/.rss
p486
sg11
g12
sg13
Nsg14
g479
stRp487
sg21
V
sg36
g476
sg87
VMon, 25 Mar 2013 02:02:41 +0000
p488
sg89
(lp489
g91
aV*
ag92
asg93
Vhttp://www.reddit.com/r/AdviceAnimals/comments/1ay6a5/such_a_struggle/
p490
stRp491
ag1
(g2
g3
(dp492
S'summary_detail'
p493
g1
(g2
g3
(dp494
g9
Vhttp://www.reddit.com/.rss
p495
sg11
g53
sg13
Nsg14
V<table> <tr><td> <a href="http://www.reddit.com/r/pics/comments/1ay3zw/my_girlfriend_was_eating_snow_off_the_hood_of_my/"><img alt="my girlfriend was eating snow off the hood of my car and I jokingly pushed her head down... this was the result." src="http://b.thumbs.redditmedia.com/A2gQSnzY_D0AfLms.jpg" title="my girlfriend was eating snow off the hood of my car and I jokingly pushed her head down... this was the result." /></a> </td><td> submitted by <a href="http://www.reddit.com/user/dirtyheads182"> dirtyheads182 </a> to <a href="http://www.reddit.com/r/pics/"> pics</a> <br /> <a href="http://i.imgur.com/N5YFO6D.jpg">[link]</a> <a href="http://www.reddit.com/r/pics/comments/1ay3zw/my_girlfriend_was_eating_snow_off_the_hood_of_my/">[1007 comments]</a> </td></tr></table>
p496
stRp497
sg18
(lp498
g1
(g2
g3
(dp499
g21
Vhttp://www.reddit.com/r/pics/comments/1ay3zw/my_girlfriend_was_eating_snow_off_the_hood_of_my/
p500
sg11
g23
sg24
g25
stRp501
asg72
g73
((I2013
I3
I25
I1
I30
I39
I0
I84
I0
t(dtRp502
sg35
Vmy girlfriend was eating snow off the hood of my car and I jokingly pushed her head down... this was the result.
p503
sg76
(lp504
(dp505
S'url'
p506
Vhttp://b.thumbs.redditmedia.com/A2gQSnzY_D0AfLms.jpg
p507
sasg81
g496
sg82
I00
sS'title_detail'
p508
g1
(g2
g3
(dp509
g9
Vhttp://www.reddit.com/.rss
p510
sg11
g12
sg13
Nsg14
g503
stRp511
sg21
V
sg36
g500
sg87
VMon, 25 Mar 2013 01:30:39 +0000
p512
sg89
(lp513
g91
aV*
ag92
asg93
Vhttp://www.reddit.com/r/pics/comments/1ay3zw/my_girlfriend_was_eating_snow_off_the_hood_of_my/
p514
stRp515
ag1
(g2
g3
(dp516
S'summary_detail'
p517
g1
(g2
g3
(dp518
g9
Vhttp://www.reddit.com/.rss
p519
sg11
g53
sg13
Nsg14
Vsubmitted by <a href="http://www.reddit.com/user/DannyMacho"> DannyMacho </a> to <a href="http://www.reddit.com/r/funny/"> funny</a> <br /> <a href="http://imgur.com/0hpqfcf">[link]</a> <a href="http://www.reddit.com/r/funny/comments/1ay6bz/story_of_my_life/">[131 comments]</a>
p520
stRp521
sg18
(lp522
g1
(g2
g3
(dp523
g21
Vhttp://www.reddit.com/r/funny/comments/1ay6bz/story_of_my_life/
p524
sg11
g23
sg24
g25
stRp525
asg72
g73
((I2013
I3
I25
I2
I3
I29
I0
I84
I0
t(dtRp526
sg35
VStory of my life
p527
sg81
g520
sg82
I00
sS'title_detail'
p528
g1
(g2
g3
(dp529
g9
Vhttp://www.reddit.com/.rss
p530
sg11
g12
sg13
Nsg14
g527
stRp531
sg36
g524
sg87
VMon, 25 Mar 2013 02:03:29 +0000
p532
sg89
(lp533
Vreddit: the front page of the internet
p534
aV*
asg93
Vhttp://www.reddit.com/r/funny/comments/1ay6bz/story_of_my_life/
p535
stRp536
ag1
(g2
g3
(dp537
S'summary_detail'
p538
g1
(g2
g3
(dp539
g9
Vhttp://www.reddit.com/.rss
p540
sg11
g53
sg13
Nsg14
V<table> <tr><td> <a href="http://www.reddit.com/r/gaming/comments/1axqgx/razer_really_needs_to_change_their_font/"><img alt="Razer really needs to change their font" src="http://d.thumbs.redditmedia.com/J0KDNGCtBKJhWJy3.jpg" title="Razer really needs to change their font" /></a> </td><td> submitted by <a href="http://www.reddit.com/user/Keanudabeast"> Keanudabeast </a> to <a href="http://www.reddit.com/r/gaming/"> gaming</a> <br /> <a href="http://i.imgur.com/OB4f4Hj.png">[link]</a> <a href="http://www.reddit.com/r/gaming/comments/1axqgx/razer_really_needs_to_change_their_font/">[195 comments]</a> </td></tr></table>
p541
stRp542
sg18
(lp543
g1
(g2
g3
(dp544
g21
Vhttp://www.reddit.com/r/gaming/comments/1axqgx/razer_really_needs_to_change_their_font/
p545
sg11
g23
sg24
g25
stRp546
asg72
g73
((I2013
I3
I24
I22
I15
I13
I6
I83
I0
t(dtRp547
sg35
VRazer really needs to change their font
p548
sg76
(lp549
(dp550
S'url'
p551
Vhttp://d.thumbs.redditmedia.com/J0KDNGCtBKJhWJy3.jpg
p552
sasg81
g541
sg82
I00
sS'title_detail'
p553
g1
(g2
g3
(dp554
g9
Vhttp://www.reddit.com/.rss
p555
sg11
g12
sg13
Nsg14
g548
stRp556
sg21
V
sg36
g545
sg87
VSun, 24 Mar 2013 22:15:13 +0000
p557
sg89
(lp558
g91
aV*
ag92
asg93
Vhttp://www.reddit.com/r/gaming/comments/1axqgx/razer_really_needs_to_change_their_font/
p559
stRp560
ag1
(g2
g3
(dp561
S'summary_detail'
p562
g1
(g2
g3
(dp563
g9
Vhttp://www.reddit.com/.rss
p564
sg11
g53
sg13
Nsg14
V<table> <tr><td> <a href="http://www.reddit.com/r/aww/comments/1axtw6/dwarf_squirrel/"><img alt="Dwarf squirrel" src="http://b.thumbs.redditmedia.com/BGNS97wI4RDVhGty.jpg" title="Dwarf squirrel" /></a> </td><td> submitted by <a href="http://www.reddit.com/user/buckie33"> buckie33 </a> to <a href="http://www.reddit.com/r/aww/"> aww</a> <br /> <a href="http://i.imgur.com/vYPHCDm.jpg">[link]</a> <a href="http://www.reddit.com/r/aww/comments/1axtw6/dwarf_squirrel/">[46 comments]</a> </td></tr></table>
p565
stRp566
sg18
(lp567
g1
(g2
g3
(dp568
g21
Vhttp://www.reddit.com/r/aww/comments/1axtw6/dwarf_squirrel/
p569
sg11
g23
sg24
g25
stRp570
asg72
g73
((I2013
I3
I24
I23
I4
I28
I6
I83
I0
t(dtRp571
sg35
VDwarf squirrel
p572
sg76
(lp573
(dp574
S'url'
p575
Vhttp://b.thumbs.redditmedia.com/BGNS97wI4RDVhGty.jpg
p576
sasg81
g565
sg82
I00
sS'title_detail'
p577
g1
(g2
g3
(dp578
g9
Vhttp://www.reddit.com/.rss
p579
sg11
g12
sg13
Nsg14
g572
stRp580
sg21
V
sg36
g569
sg87
VSun, 24 Mar 2013 23:04:28 +0000
p581
sg89
(lp582
g91
aV*
ag92
asg93
Vhttp://www.reddit.com/r/aww/comments/1axtw6/dwarf_squirrel/
p583
stRp584
ag1
(g2
g3
(dp585
S'summary_detail'
p586
g1
(g2
g3
(dp587
g9
Vhttp://www.reddit.com/.rss
p588
sg11
g53
sg13
Nsg14
V<table> <tr><td> <a href="http://www.reddit.com/r/AdviceAnimals/comments/1axy1t/as_a_resident_of_the_midwest/"><img alt="As a resident of the Midwest" src="http://e.thumbs.redditmedia.com/IA8V0MoV20iTuQ9X.jpg" title="As a resident of the Midwest" /></a> </td><td> submitted by <a href="http://www.reddit.com/user/joebernth"> joebernth </a> to <a href="http://www.reddit.com/r/AdviceAnimals/"> AdviceAnimals</a> <br /> <a href="http://i.imgur.com/aNdT8ct.png">[link]</a> <a href="http://www.reddit.com/r/AdviceAnimals/comments/1axy1t/as_a_resident_of_the_midwest/">[529 comments]</a> </td></tr></table>
p589
stRp590
sg18
(lp591
g1
(g2
g3
(dp592
g21
Vhttp://www.reddit.com/r/AdviceAnimals/comments/1axy1t/as_a_resident_of_the_midwest/
p593
sg11
g23
sg24
g25
stRp594
asg72
g73
((I2013
I3
I25
I0
I4
I2
I0
I84
I0
t(dtRp595
sg35
VAs a resident of the Midwest
p596
sg76
(lp597
(dp598
S'url'
p599
Vhttp://e.thumbs.redditmedia.com/IA8V0MoV20iTuQ9X.jpg
p600
sasg81
g589
sg82
I00
sS'title_detail'
p601
g1
(g2
g3
(dp602
g9
Vhttp://www.reddit.com/.rss
p603
sg11
g12
sg13
Nsg14
g596
stRp604
sg21
V
sg36
g593
sg87
VMon, 25 Mar 2013 00:04:02 +0000
p605
sg89
(lp606
g91
aV*
ag92
asg93
Vhttp://www.reddit.com/r/AdviceAnimals/comments/1axy1t/as_a_resident_of_the_midwest/
p607
stRp608
ag1
(g2
g3
(dp609
S'summary_detail'
p610
g1
(g2
g3
(dp611
g9
Vhttp://www.reddit.com/.rss
p612
sg11
g53
sg13
Nsg14
Vsubmitted by <a href="http://www.reddit.com/user/TehSamz0r"> TehSamz0r </a> to <a href="http://www.reddit.com/r/funny/"> funny</a> <br /> <a href="http://imgur.com/1onXPyl">[link]</a> <a href="http://www.reddit.com/r/funny/comments/1axw2i/reddits_understanding_of_mens_headwear/">[1071 comments]</a>
p613
stRp614
sg18
(lp615
g1
(g2
g3
(dp616
g21
Vhttp://www.reddit.com/r/funny/comments/1axw2i/reddits_understanding_of_mens_headwear/
p617
sg11
g23
sg24
g25
stRp618
asg72
g73
((I2013
I3
I24
I23
I36
I26
I6
I83
I0
t(dtRp619
sg35
VReddit's understanding of men's headwear.
p620
sg81
g613
sg82
I00
sS'title_detail'
p621
g1
(g2
g3
(dp622
g9
Vhttp://www.reddit.com/.rss
p623
sg11
g12
sg13
Nsg14
g620
stRp624
sg36
g617
sg87
VSun, 24 Mar 2013 23:36:26 +0000
p625
sg89
(lp626
g91
aV*
ag92
asg93
Vhttp://www.reddit.com/r/funny/comments/1axw2i/reddits_understanding_of_mens_headwear/
p627
stRp628
ag1
(g2
g3
(dp629
S'summary_detail'
p630
g1
(g2
g3
(dp631
S'base'
p632
Vhttp://www.reddit.com/.rss
p633
sS'type'
p634
Vtext/html
p635
sS'language'
p636
NsS'value'
p637
V<table> <tr><td> <a href="http://www.reddit.com/r/movies/comments/1axidu/new_poster_for_world_war_z_damn/"><img alt="New poster for 'World War Z'. Damn!" src="http://b.thumbs.redditmedia.com/-pgFOVYViwR_Kmia.jpg" title="New poster for 'World War Z'. Damn!" /></a> </td><td> submitted by <a href="http://www.reddit.com/user/NicholaiBlack"> NicholaiBlack </a> to <a href="http://www.reddit.com/r/movies/"> movies</a> <br /> <a href="http://oyster.ignimgs.com/wordpress/stg.ign.com/2013/03/Brad_Pitt_WorldWarZ-NewPoster.jpg">[link]</a> <a href="http://www.reddit.com/r/movies/comments/1axidu/new_poster_for_world_war_z_damn/">[982 comments]</a> </td></tr></table>
p638
stRp639
sS'links'
p640
(lp641
g1
(g2
g3
(dp642
S'href'
p643
Vhttp://www.reddit.com/r/movies/comments/1axidu/new_poster_for_world_war_z_damn/
p644
sg634
Vtext/html
p645
sS'rel'
p646
Valternate
p647
stRp648
asS'published_parsed'
p649
g73
((I2013
I3
I24
I20
I21
I2
I6
I83
I0
t(dtRp650
sS'title'
p651
VNew poster for 'World War Z'. Damn!
p652
sS'media_thumbnail'
p653
(lp654
(dp655
S'url'
p656
Vhttp://b.thumbs.redditmedia.com/-pgFOVYViwR_Kmia.jpg
p657
sasS'summary'
p658
g638
sS'guidislink'
p659
I00
sS'title_detail'
p660
g1
(g2
g3
(dp661
g632
Vhttp://www.reddit.com/.rss
p662
sg634
Vtext/plain
p663
sg636
Nsg637
g652
stRp664
sg643
V
sS'link'
p665
g644
sS'published'
p666
VSun, 24 Mar 2013 20:21:02 +0000
p667
sS'canto_state'
p668
(lp669
g91
aV*
ag92
asS'id'
p670
Vhttp://www.reddit.com/r/movies/comments/1axidu/new_poster_for_world_war_z_damn/
p671
stRp672
asS'canto_update'
p673
F1364190771.2911
sS'headers'
p674
(dp675
S'content-length'
p676
S'28830'
p677
sS'vary'
p678
S'accept-encoding'
p679
sS'server'
p680
S"'; DROP TABLE servertypes; --"
p681
sS'connection'
p682
S'close'
p683
sS'date'
p684
S'Mon, 25 Mar 2013 05:52:35 GMT'
p685
sS'content-type'
p686
S'text/xml; charset=UTF-8'
p687
ssS'version'
p688
Vrss20
p689
sg89
(lp690
sg21
Vhttp://www.reddit.com/.rss
p691
sS'namespaces'
p692
(dp693
S''
Vhttp://www.w3.org/2005/Atom
p694
sS'media'
p695
Vhttp://search.yahoo.com/mrss/
p696
sS'dc'
p697
Vhttp://purl.org/dc/elements/1.1/
p698
ssS'canto_version'
p699
(I0
I7
I10
tp700
stRp701
.